   1              		.syntax unified
   2              		.cpu cortex-m4
   3              		.fpu softvfp
   4              		.eabi_attribute 20, 1
   5              		.eabi_attribute 21, 1
   6              		.eabi_attribute 23, 3
   7              		.eabi_attribute 24, 1
   8              		.eabi_attribute 25, 1
   9              		.eabi_attribute 26, 1
  10              		.eabi_attribute 30, 6
  11              		.eabi_attribute 18, 4
  12              		.thumb
  13              		.file	"stm32f4xx_exti.c"
  23              	.Ltext0:
  24              		.file 1 "../Libraries/STM32F4xx_StdPeriph_Driver/src/stm32f4xx_exti.c"
 24566              		.align	2
 24567              		.global	EXTI_DeInit
 24568              		.thumb
 24569              		.thumb_func
 24571              	EXTI_DeInit:
 24572              	.LFB110:
   1:../Libraries/STM32F4xx_StdPeriph_Driver/src/stm32f4xx_exti.c **** /**
   2:../Libraries/STM32F4xx_StdPeriph_Driver/src/stm32f4xx_exti.c ****   ******************************************************************************
   3:../Libraries/STM32F4xx_StdPeriph_Driver/src/stm32f4xx_exti.c ****   * @file    stm32f4xx_exti.c
   4:../Libraries/STM32F4xx_StdPeriph_Driver/src/stm32f4xx_exti.c ****   * @author  MCD Application Team
   5:../Libraries/STM32F4xx_StdPeriph_Driver/src/stm32f4xx_exti.c ****   * @version V1.0.2
   6:../Libraries/STM32F4xx_StdPeriph_Driver/src/stm32f4xx_exti.c ****   * @date    05-March-2012
   7:../Libraries/STM32F4xx_StdPeriph_Driver/src/stm32f4xx_exti.c ****   * @brief   This file provides firmware functions to manage the following 
   8:../Libraries/STM32F4xx_StdPeriph_Driver/src/stm32f4xx_exti.c ****   *          functionalities of the EXTI peripheral:           
   9:../Libraries/STM32F4xx_StdPeriph_Driver/src/stm32f4xx_exti.c ****   *           - Initialization and Configuration
  10:../Libraries/STM32F4xx_StdPeriph_Driver/src/stm32f4xx_exti.c ****   *           - Interrupts and flags management
  11:../Libraries/STM32F4xx_StdPeriph_Driver/src/stm32f4xx_exti.c ****   *
  12:../Libraries/STM32F4xx_StdPeriph_Driver/src/stm32f4xx_exti.c ****   *  @verbatim  
  13:../Libraries/STM32F4xx_StdPeriph_Driver/src/stm32f4xx_exti.c ****   *  
  14:../Libraries/STM32F4xx_StdPeriph_Driver/src/stm32f4xx_exti.c ****   *          ===================================================================
  15:../Libraries/STM32F4xx_StdPeriph_Driver/src/stm32f4xx_exti.c ****   *                                     EXTI features
  16:../Libraries/STM32F4xx_StdPeriph_Driver/src/stm32f4xx_exti.c ****   *          ===================================================================
  17:../Libraries/STM32F4xx_StdPeriph_Driver/src/stm32f4xx_exti.c ****   *    
  18:../Libraries/STM32F4xx_StdPeriph_Driver/src/stm32f4xx_exti.c ****   *          External interrupt/event lines are mapped as following:
  19:../Libraries/STM32F4xx_StdPeriph_Driver/src/stm32f4xx_exti.c ****   *            1- All available GPIO pins are connected to the 16 external 
  20:../Libraries/STM32F4xx_StdPeriph_Driver/src/stm32f4xx_exti.c ****   *               interrupt/event lines from EXTI0 to EXTI15.
  21:../Libraries/STM32F4xx_StdPeriph_Driver/src/stm32f4xx_exti.c ****   *            2- EXTI line 16 is connected to the PVD Output
  22:../Libraries/STM32F4xx_StdPeriph_Driver/src/stm32f4xx_exti.c ****   *            3- EXTI line 17 is connected to the RTC Alarm event
  23:../Libraries/STM32F4xx_StdPeriph_Driver/src/stm32f4xx_exti.c ****   *            4- EXTI line 18 is connected to the USB OTG FS Wakeup from suspend event            
  24:../Libraries/STM32F4xx_StdPeriph_Driver/src/stm32f4xx_exti.c ****   *            5- EXTI line 19 is connected to the Ethernet Wakeup event
  25:../Libraries/STM32F4xx_StdPeriph_Driver/src/stm32f4xx_exti.c ****   *            6- EXTI line 20 is connected to the USB OTG HS (configured in FS) Wakeup event 
  26:../Libraries/STM32F4xx_StdPeriph_Driver/src/stm32f4xx_exti.c ****   *            7- EXTI line 21 is connected to the RTC Tamper and Time Stamp events                
  27:../Libraries/STM32F4xx_StdPeriph_Driver/src/stm32f4xx_exti.c ****   *            8- EXTI line 22 is connected to the RTC Wakeup event
  28:../Libraries/STM32F4xx_StdPeriph_Driver/src/stm32f4xx_exti.c ****   *        
  29:../Libraries/STM32F4xx_StdPeriph_Driver/src/stm32f4xx_exti.c ****   *          ===================================================================
  30:../Libraries/STM32F4xx_StdPeriph_Driver/src/stm32f4xx_exti.c ****   *                                 How to use this driver
  31:../Libraries/STM32F4xx_StdPeriph_Driver/src/stm32f4xx_exti.c ****   *          ===================================================================  
  32:../Libraries/STM32F4xx_StdPeriph_Driver/src/stm32f4xx_exti.c ****   *              
  33:../Libraries/STM32F4xx_StdPeriph_Driver/src/stm32f4xx_exti.c ****   *          In order to use an I/O pin as an external interrupt source, follow
  34:../Libraries/STM32F4xx_StdPeriph_Driver/src/stm32f4xx_exti.c ****   *          steps below:
  35:../Libraries/STM32F4xx_StdPeriph_Driver/src/stm32f4xx_exti.c ****   *            1- Configure the I/O in input mode using GPIO_Init()
  36:../Libraries/STM32F4xx_StdPeriph_Driver/src/stm32f4xx_exti.c ****   *            2- Select the input source pin for the EXTI line using SYSCFG_EXTILineConfig()
  37:../Libraries/STM32F4xx_StdPeriph_Driver/src/stm32f4xx_exti.c ****   *            3- Select the mode(interrupt, event) and configure the trigger 
  38:../Libraries/STM32F4xx_StdPeriph_Driver/src/stm32f4xx_exti.c ****   *               selection (Rising, falling or both) using EXTI_Init()
  39:../Libraries/STM32F4xx_StdPeriph_Driver/src/stm32f4xx_exti.c ****   *            4- Configure NVIC IRQ channel mapped to the EXTI line using NVIC_Init()
  40:../Libraries/STM32F4xx_StdPeriph_Driver/src/stm32f4xx_exti.c ****   *   
  41:../Libraries/STM32F4xx_StdPeriph_Driver/src/stm32f4xx_exti.c ****   *  @note  SYSCFG APB clock must be enabled to get write access to SYSCFG_EXTICRx
  42:../Libraries/STM32F4xx_StdPeriph_Driver/src/stm32f4xx_exti.c ****   *         registers using RCC_APB2PeriphClockCmd(RCC_APB2Periph_SYSCFG, ENABLE);
  43:../Libraries/STM32F4xx_StdPeriph_Driver/src/stm32f4xx_exti.c ****   *          
  44:../Libraries/STM32F4xx_StdPeriph_Driver/src/stm32f4xx_exti.c ****   *  @endverbatim                  
  45:../Libraries/STM32F4xx_StdPeriph_Driver/src/stm32f4xx_exti.c ****   *
  46:../Libraries/STM32F4xx_StdPeriph_Driver/src/stm32f4xx_exti.c ****   ******************************************************************************
  47:../Libraries/STM32F4xx_StdPeriph_Driver/src/stm32f4xx_exti.c ****   * @attention
  48:../Libraries/STM32F4xx_StdPeriph_Driver/src/stm32f4xx_exti.c ****   *
  49:../Libraries/STM32F4xx_StdPeriph_Driver/src/stm32f4xx_exti.c ****   * <h2><center>&copy; COPYRIGHT 2012 STMicroelectronics</center></h2>
  50:../Libraries/STM32F4xx_StdPeriph_Driver/src/stm32f4xx_exti.c ****   *
  51:../Libraries/STM32F4xx_StdPeriph_Driver/src/stm32f4xx_exti.c ****   * Licensed under MCD-ST Liberty SW License Agreement V2, (the "License");
  52:../Libraries/STM32F4xx_StdPeriph_Driver/src/stm32f4xx_exti.c ****   * You may not use this file except in compliance with the License.
  53:../Libraries/STM32F4xx_StdPeriph_Driver/src/stm32f4xx_exti.c ****   * You may obtain a copy of the License at:
  54:../Libraries/STM32F4xx_StdPeriph_Driver/src/stm32f4xx_exti.c ****   *
  55:../Libraries/STM32F4xx_StdPeriph_Driver/src/stm32f4xx_exti.c ****   *        http://www.st.com/software_license_agreement_liberty_v2
  56:../Libraries/STM32F4xx_StdPeriph_Driver/src/stm32f4xx_exti.c ****   *
  57:../Libraries/STM32F4xx_StdPeriph_Driver/src/stm32f4xx_exti.c ****   * Unless required by applicable law or agreed to in writing, software 
  58:../Libraries/STM32F4xx_StdPeriph_Driver/src/stm32f4xx_exti.c ****   * distributed under the License is distributed on an "AS IS" BASIS, 
  59:../Libraries/STM32F4xx_StdPeriph_Driver/src/stm32f4xx_exti.c ****   * WITHOUT WARRANTIES OR CONDITIONS OF ANY KIND, either express or implied.
  60:../Libraries/STM32F4xx_StdPeriph_Driver/src/stm32f4xx_exti.c ****   * See the License for the specific language governing permissions and
  61:../Libraries/STM32F4xx_StdPeriph_Driver/src/stm32f4xx_exti.c ****   * limitations under the License.
  62:../Libraries/STM32F4xx_StdPeriph_Driver/src/stm32f4xx_exti.c ****   *
  63:../Libraries/STM32F4xx_StdPeriph_Driver/src/stm32f4xx_exti.c ****   ******************************************************************************
  64:../Libraries/STM32F4xx_StdPeriph_Driver/src/stm32f4xx_exti.c ****   */
  65:../Libraries/STM32F4xx_StdPeriph_Driver/src/stm32f4xx_exti.c **** 
  66:../Libraries/STM32F4xx_StdPeriph_Driver/src/stm32f4xx_exti.c **** /* Includes ------------------------------------------------------------------*/
  67:../Libraries/STM32F4xx_StdPeriph_Driver/src/stm32f4xx_exti.c **** #include "stm32f4xx_exti.h"
  68:../Libraries/STM32F4xx_StdPeriph_Driver/src/stm32f4xx_exti.c **** 
  69:../Libraries/STM32F4xx_StdPeriph_Driver/src/stm32f4xx_exti.c **** /** @addtogroup STM32F4xx_StdPeriph_Driver
  70:../Libraries/STM32F4xx_StdPeriph_Driver/src/stm32f4xx_exti.c ****   * @{
  71:../Libraries/STM32F4xx_StdPeriph_Driver/src/stm32f4xx_exti.c ****   */
  72:../Libraries/STM32F4xx_StdPeriph_Driver/src/stm32f4xx_exti.c **** 
  73:../Libraries/STM32F4xx_StdPeriph_Driver/src/stm32f4xx_exti.c **** /** @defgroup EXTI 
  74:../Libraries/STM32F4xx_StdPeriph_Driver/src/stm32f4xx_exti.c ****   * @brief EXTI driver modules
  75:../Libraries/STM32F4xx_StdPeriph_Driver/src/stm32f4xx_exti.c ****   * @{
  76:../Libraries/STM32F4xx_StdPeriph_Driver/src/stm32f4xx_exti.c ****   */
  77:../Libraries/STM32F4xx_StdPeriph_Driver/src/stm32f4xx_exti.c **** 
  78:../Libraries/STM32F4xx_StdPeriph_Driver/src/stm32f4xx_exti.c **** /* Private typedef -----------------------------------------------------------*/
  79:../Libraries/STM32F4xx_StdPeriph_Driver/src/stm32f4xx_exti.c **** /* Private define ------------------------------------------------------------*/
  80:../Libraries/STM32F4xx_StdPeriph_Driver/src/stm32f4xx_exti.c **** 
  81:../Libraries/STM32F4xx_StdPeriph_Driver/src/stm32f4xx_exti.c **** #define EXTI_LINENONE    ((uint32_t)0x00000)  /* No interrupt selected */
  82:../Libraries/STM32F4xx_StdPeriph_Driver/src/stm32f4xx_exti.c **** 
  83:../Libraries/STM32F4xx_StdPeriph_Driver/src/stm32f4xx_exti.c **** /* Private macro -------------------------------------------------------------*/
  84:../Libraries/STM32F4xx_StdPeriph_Driver/src/stm32f4xx_exti.c **** /* Private variables ---------------------------------------------------------*/
  85:../Libraries/STM32F4xx_StdPeriph_Driver/src/stm32f4xx_exti.c **** /* Private function prototypes -----------------------------------------------*/
  86:../Libraries/STM32F4xx_StdPeriph_Driver/src/stm32f4xx_exti.c **** /* Private functions ---------------------------------------------------------*/
  87:../Libraries/STM32F4xx_StdPeriph_Driver/src/stm32f4xx_exti.c **** 
  88:../Libraries/STM32F4xx_StdPeriph_Driver/src/stm32f4xx_exti.c **** /** @defgroup EXTI_Private_Functions
  89:../Libraries/STM32F4xx_StdPeriph_Driver/src/stm32f4xx_exti.c ****   * @{
  90:../Libraries/STM32F4xx_StdPeriph_Driver/src/stm32f4xx_exti.c ****   */
  91:../Libraries/STM32F4xx_StdPeriph_Driver/src/stm32f4xx_exti.c **** 
  92:../Libraries/STM32F4xx_StdPeriph_Driver/src/stm32f4xx_exti.c **** /** @defgroup EXTI_Group1 Initialization and Configuration functions
  93:../Libraries/STM32F4xx_StdPeriph_Driver/src/stm32f4xx_exti.c ****  *  @brief   Initialization and Configuration functions 
  94:../Libraries/STM32F4xx_StdPeriph_Driver/src/stm32f4xx_exti.c ****  *
  95:../Libraries/STM32F4xx_StdPeriph_Driver/src/stm32f4xx_exti.c **** @verbatim   
  96:../Libraries/STM32F4xx_StdPeriph_Driver/src/stm32f4xx_exti.c ****  ===============================================================================
  97:../Libraries/STM32F4xx_StdPeriph_Driver/src/stm32f4xx_exti.c ****                   Initialization and Configuration functions
  98:../Libraries/STM32F4xx_StdPeriph_Driver/src/stm32f4xx_exti.c ****  ===============================================================================  
  99:../Libraries/STM32F4xx_StdPeriph_Driver/src/stm32f4xx_exti.c **** 
 100:../Libraries/STM32F4xx_StdPeriph_Driver/src/stm32f4xx_exti.c **** @endverbatim
 101:../Libraries/STM32F4xx_StdPeriph_Driver/src/stm32f4xx_exti.c ****   * @{
 102:../Libraries/STM32F4xx_StdPeriph_Driver/src/stm32f4xx_exti.c ****   */
 103:../Libraries/STM32F4xx_StdPeriph_Driver/src/stm32f4xx_exti.c **** 
 104:../Libraries/STM32F4xx_StdPeriph_Driver/src/stm32f4xx_exti.c **** /**
 105:../Libraries/STM32F4xx_StdPeriph_Driver/src/stm32f4xx_exti.c ****   * @brief  Deinitializes the EXTI peripheral registers to their default reset values.
 106:../Libraries/STM32F4xx_StdPeriph_Driver/src/stm32f4xx_exti.c ****   * @param  None
 107:../Libraries/STM32F4xx_StdPeriph_Driver/src/stm32f4xx_exti.c ****   * @retval None
 108:../Libraries/STM32F4xx_StdPeriph_Driver/src/stm32f4xx_exti.c ****   */
 109:../Libraries/STM32F4xx_StdPeriph_Driver/src/stm32f4xx_exti.c **** void EXTI_DeInit(void)
 110:../Libraries/STM32F4xx_StdPeriph_Driver/src/stm32f4xx_exti.c **** {
 24573              		.loc 1 110 0
 24574              		.cfi_startproc
 24575              		@ args = 0, pretend = 0, frame = 0
 24576              		@ frame_needed = 1, uses_anonymous_args = 0
 24577              		@ link register save eliminated.
 24578 0000 80B4     		push	{r7}
 24579              	.LCFI0:
 24580              		.cfi_def_cfa_offset 4
 24581 0002 00AF     		add	r7, sp, #0
 24582              		.cfi_offset 7, -4
 24583              	.LCFI1:
 24584              		.cfi_def_cfa_register 7
 111:../Libraries/STM32F4xx_StdPeriph_Driver/src/stm32f4xx_exti.c ****   EXTI->IMR = 0x00000000;
 24585              		.loc 1 111 0
 24586 0004 0A4B     		ldr	r3, .L2
 24587 0006 4FF00002 		mov	r2, #0
 24588 000a 1A60     		str	r2, [r3, #0]
 112:../Libraries/STM32F4xx_StdPeriph_Driver/src/stm32f4xx_exti.c ****   EXTI->EMR = 0x00000000;
 24589              		.loc 1 112 0
 24590 000c 084B     		ldr	r3, .L2
 24591 000e 4FF00002 		mov	r2, #0
 24592 0012 5A60     		str	r2, [r3, #4]
 113:../Libraries/STM32F4xx_StdPeriph_Driver/src/stm32f4xx_exti.c ****   EXTI->RTSR = 0x00000000;
 24593              		.loc 1 113 0
 24594 0014 064B     		ldr	r3, .L2
 24595 0016 4FF00002 		mov	r2, #0
 24596 001a 9A60     		str	r2, [r3, #8]
 114:../Libraries/STM32F4xx_StdPeriph_Driver/src/stm32f4xx_exti.c ****   EXTI->FTSR = 0x00000000;
 24597              		.loc 1 114 0
 24598 001c 044B     		ldr	r3, .L2
 24599 001e 4FF00002 		mov	r2, #0
 24600 0022 DA60     		str	r2, [r3, #12]
 115:../Libraries/STM32F4xx_StdPeriph_Driver/src/stm32f4xx_exti.c ****   EXTI->PR = 0x007FFFFF;
 24601              		.loc 1 115 0
 24602 0024 024B     		ldr	r3, .L2
 24603 0026 034A     		ldr	r2, .L2+4
 24604 0028 5A61     		str	r2, [r3, #20]
 116:../Libraries/STM32F4xx_StdPeriph_Driver/src/stm32f4xx_exti.c **** }
 24605              		.loc 1 116 0
 24606 002a BD46     		mov	sp, r7
 24607 002c 80BC     		pop	{r7}
 24608 002e 7047     		bx	lr
 24609              	.L3:
 24610              		.align	2
 24611              	.L2:
 24612 0030 003C0140 		.word	1073822720
 24613 0034 FFFF7F00 		.word	8388607
 24614              		.cfi_endproc
 24615              	.LFE110:
 24617              		.align	2
 24618              		.global	EXTI_Init
 24619              		.thumb
 24620              		.thumb_func
 24622              	EXTI_Init:
 24623              	.LFB111:
 117:../Libraries/STM32F4xx_StdPeriph_Driver/src/stm32f4xx_exti.c **** 
 118:../Libraries/STM32F4xx_StdPeriph_Driver/src/stm32f4xx_exti.c **** /**
 119:../Libraries/STM32F4xx_StdPeriph_Driver/src/stm32f4xx_exti.c ****   * @brief  Initializes the EXTI peripheral according to the specified
 120:../Libraries/STM32F4xx_StdPeriph_Driver/src/stm32f4xx_exti.c ****   *         parameters in the EXTI_InitStruct.
 121:../Libraries/STM32F4xx_StdPeriph_Driver/src/stm32f4xx_exti.c ****   * @param  EXTI_InitStruct: pointer to a EXTI_InitTypeDef structure
 122:../Libraries/STM32F4xx_StdPeriph_Driver/src/stm32f4xx_exti.c ****   *         that contains the configuration information for the EXTI peripheral.
 123:../Libraries/STM32F4xx_StdPeriph_Driver/src/stm32f4xx_exti.c ****   * @retval None
 124:../Libraries/STM32F4xx_StdPeriph_Driver/src/stm32f4xx_exti.c ****   */
 125:../Libraries/STM32F4xx_StdPeriph_Driver/src/stm32f4xx_exti.c **** void EXTI_Init(EXTI_InitTypeDef* EXTI_InitStruct)
 126:../Libraries/STM32F4xx_StdPeriph_Driver/src/stm32f4xx_exti.c **** {
 24624              		.loc 1 126 0
 24625              		.cfi_startproc
 24626              		@ args = 0, pretend = 0, frame = 16
 24627              		@ frame_needed = 1, uses_anonymous_args = 0
 24628              		@ link register save eliminated.
 24629 0038 80B4     		push	{r7}
 24630              	.LCFI2:
 24631              		.cfi_def_cfa_offset 4
 24632 003a 85B0     		sub	sp, sp, #20
 24633              	.LCFI3:
 24634              		.cfi_def_cfa_offset 24
 24635 003c 00AF     		add	r7, sp, #0
 24636              		.cfi_offset 7, -4
 24637              	.LCFI4:
 24638              		.cfi_def_cfa_register 7
 24639 003e 7860     		str	r0, [r7, #4]
 127:../Libraries/STM32F4xx_StdPeriph_Driver/src/stm32f4xx_exti.c ****   uint32_t tmp = 0;
 24640              		.loc 1 127 0
 24641 0040 4FF00003 		mov	r3, #0
 24642 0044 FB60     		str	r3, [r7, #12]
 128:../Libraries/STM32F4xx_StdPeriph_Driver/src/stm32f4xx_exti.c **** 
 129:../Libraries/STM32F4xx_StdPeriph_Driver/src/stm32f4xx_exti.c ****   /* Check the parameters */
 130:../Libraries/STM32F4xx_StdPeriph_Driver/src/stm32f4xx_exti.c ****   assert_param(IS_EXTI_MODE(EXTI_InitStruct->EXTI_Mode));
 131:../Libraries/STM32F4xx_StdPeriph_Driver/src/stm32f4xx_exti.c ****   assert_param(IS_EXTI_TRIGGER(EXTI_InitStruct->EXTI_Trigger));
 132:../Libraries/STM32F4xx_StdPeriph_Driver/src/stm32f4xx_exti.c ****   assert_param(IS_EXTI_LINE(EXTI_InitStruct->EXTI_Line));  
 133:../Libraries/STM32F4xx_StdPeriph_Driver/src/stm32f4xx_exti.c ****   assert_param(IS_FUNCTIONAL_STATE(EXTI_InitStruct->EXTI_LineCmd));
 134:../Libraries/STM32F4xx_StdPeriph_Driver/src/stm32f4xx_exti.c **** 
 135:../Libraries/STM32F4xx_StdPeriph_Driver/src/stm32f4xx_exti.c ****   tmp = (uint32_t)EXTI_BASE;
 24643              		.loc 1 135 0
 24644 0046 3A4B     		ldr	r3, .L8
 24645 0048 FB60     		str	r3, [r7, #12]
 136:../Libraries/STM32F4xx_StdPeriph_Driver/src/stm32f4xx_exti.c ****      
 137:../Libraries/STM32F4xx_StdPeriph_Driver/src/stm32f4xx_exti.c ****   if (EXTI_InitStruct->EXTI_LineCmd != DISABLE)
 24646              		.loc 1 137 0
 24647 004a 7B68     		ldr	r3, [r7, #4]
 24648 004c 9B79     		ldrb	r3, [r3, #6]	@ zero_extendqisi2
 24649 004e 002B     		cmp	r3, #0
 24650 0050 59D0     		beq	.L5
 138:../Libraries/STM32F4xx_StdPeriph_Driver/src/stm32f4xx_exti.c ****   {
 139:../Libraries/STM32F4xx_StdPeriph_Driver/src/stm32f4xx_exti.c ****     /* Clear EXTI line configuration */
 140:../Libraries/STM32F4xx_StdPeriph_Driver/src/stm32f4xx_exti.c ****     EXTI->IMR &= ~EXTI_InitStruct->EXTI_Line;
 24651              		.loc 1 140 0
 24652 0052 374B     		ldr	r3, .L8
 24653 0054 364A     		ldr	r2, .L8
 24654 0056 1168     		ldr	r1, [r2, #0]
 24655 0058 7A68     		ldr	r2, [r7, #4]
 24656 005a 1268     		ldr	r2, [r2, #0]
 24657 005c 6FEA0202 		mvn	r2, r2
 24658 0060 01EA0202 		and	r2, r1, r2
 24659 0064 1A60     		str	r2, [r3, #0]
 141:../Libraries/STM32F4xx_StdPeriph_Driver/src/stm32f4xx_exti.c ****     EXTI->EMR &= ~EXTI_InitStruct->EXTI_Line;
 24660              		.loc 1 141 0
 24661 0066 324B     		ldr	r3, .L8
 24662 0068 314A     		ldr	r2, .L8
 24663 006a 5168     		ldr	r1, [r2, #4]
 24664 006c 7A68     		ldr	r2, [r7, #4]
 24665 006e 1268     		ldr	r2, [r2, #0]
 24666 0070 6FEA0202 		mvn	r2, r2
 24667 0074 01EA0202 		and	r2, r1, r2
 24668 0078 5A60     		str	r2, [r3, #4]
 142:../Libraries/STM32F4xx_StdPeriph_Driver/src/stm32f4xx_exti.c ****     
 143:../Libraries/STM32F4xx_StdPeriph_Driver/src/stm32f4xx_exti.c ****     tmp += EXTI_InitStruct->EXTI_Mode;
 24669              		.loc 1 143 0
 24670 007a 7B68     		ldr	r3, [r7, #4]
 24671 007c 1B79     		ldrb	r3, [r3, #4]	@ zero_extendqisi2
 24672 007e FA68     		ldr	r2, [r7, #12]
 24673 0080 D318     		adds	r3, r2, r3
 24674 0082 FB60     		str	r3, [r7, #12]
 144:../Libraries/STM32F4xx_StdPeriph_Driver/src/stm32f4xx_exti.c **** 
 145:../Libraries/STM32F4xx_StdPeriph_Driver/src/stm32f4xx_exti.c ****     *(__IO uint32_t *) tmp |= EXTI_InitStruct->EXTI_Line;
 24675              		.loc 1 145 0
 24676 0084 FB68     		ldr	r3, [r7, #12]
 24677 0086 FA68     		ldr	r2, [r7, #12]
 24678 0088 1168     		ldr	r1, [r2, #0]
 24679 008a 7A68     		ldr	r2, [r7, #4]
 24680 008c 1268     		ldr	r2, [r2, #0]
 24681 008e 41EA0202 		orr	r2, r1, r2
 24682 0092 1A60     		str	r2, [r3, #0]
 146:../Libraries/STM32F4xx_StdPeriph_Driver/src/stm32f4xx_exti.c **** 
 147:../Libraries/STM32F4xx_StdPeriph_Driver/src/stm32f4xx_exti.c ****     /* Clear Rising Falling edge configuration */
 148:../Libraries/STM32F4xx_StdPeriph_Driver/src/stm32f4xx_exti.c ****     EXTI->RTSR &= ~EXTI_InitStruct->EXTI_Line;
 24683              		.loc 1 148 0
 24684 0094 264B     		ldr	r3, .L8
 24685 0096 264A     		ldr	r2, .L8
 24686 0098 9168     		ldr	r1, [r2, #8]
 24687 009a 7A68     		ldr	r2, [r7, #4]
 24688 009c 1268     		ldr	r2, [r2, #0]
 24689 009e 6FEA0202 		mvn	r2, r2
 24690 00a2 01EA0202 		and	r2, r1, r2
 24691 00a6 9A60     		str	r2, [r3, #8]
 149:../Libraries/STM32F4xx_StdPeriph_Driver/src/stm32f4xx_exti.c ****     EXTI->FTSR &= ~EXTI_InitStruct->EXTI_Line;
 24692              		.loc 1 149 0
 24693 00a8 214B     		ldr	r3, .L8
 24694 00aa 214A     		ldr	r2, .L8
 24695 00ac D168     		ldr	r1, [r2, #12]
 24696 00ae 7A68     		ldr	r2, [r7, #4]
 24697 00b0 1268     		ldr	r2, [r2, #0]
 24698 00b2 6FEA0202 		mvn	r2, r2
 24699 00b6 01EA0202 		and	r2, r1, r2
 24700 00ba DA60     		str	r2, [r3, #12]
 150:../Libraries/STM32F4xx_StdPeriph_Driver/src/stm32f4xx_exti.c ****     
 151:../Libraries/STM32F4xx_StdPeriph_Driver/src/stm32f4xx_exti.c ****     /* Select the trigger for the selected external interrupts */
 152:../Libraries/STM32F4xx_StdPeriph_Driver/src/stm32f4xx_exti.c ****     if (EXTI_InitStruct->EXTI_Trigger == EXTI_Trigger_Rising_Falling)
 24701              		.loc 1 152 0
 24702 00bc 7B68     		ldr	r3, [r7, #4]
 24703 00be 5B79     		ldrb	r3, [r3, #5]	@ zero_extendqisi2
 24704 00c0 102B     		cmp	r3, #16
 24705 00c2 10D1     		bne	.L6
 153:../Libraries/STM32F4xx_StdPeriph_Driver/src/stm32f4xx_exti.c ****     {
 154:../Libraries/STM32F4xx_StdPeriph_Driver/src/stm32f4xx_exti.c ****       /* Rising Falling edge */
 155:../Libraries/STM32F4xx_StdPeriph_Driver/src/stm32f4xx_exti.c ****       EXTI->RTSR |= EXTI_InitStruct->EXTI_Line;
 24706              		.loc 1 155 0
 24707 00c4 1A4B     		ldr	r3, .L8
 24708 00c6 1A4A     		ldr	r2, .L8
 24709 00c8 9168     		ldr	r1, [r2, #8]
 24710 00ca 7A68     		ldr	r2, [r7, #4]
 24711 00cc 1268     		ldr	r2, [r2, #0]
 24712 00ce 41EA0202 		orr	r2, r1, r2
 24713 00d2 9A60     		str	r2, [r3, #8]
 156:../Libraries/STM32F4xx_StdPeriph_Driver/src/stm32f4xx_exti.c ****       EXTI->FTSR |= EXTI_InitStruct->EXTI_Line;
 24714              		.loc 1 156 0
 24715 00d4 164B     		ldr	r3, .L8
 24716 00d6 164A     		ldr	r2, .L8
 24717 00d8 D168     		ldr	r1, [r2, #12]
 24718 00da 7A68     		ldr	r2, [r7, #4]
 24719 00dc 1268     		ldr	r2, [r2, #0]
 24720 00de 41EA0202 		orr	r2, r1, r2
 24721 00e2 DA60     		str	r2, [r3, #12]
 24722 00e4 1EE0     		b	.L4
 24723              	.L6:
 157:../Libraries/STM32F4xx_StdPeriph_Driver/src/stm32f4xx_exti.c ****     }
 158:../Libraries/STM32F4xx_StdPeriph_Driver/src/stm32f4xx_exti.c ****     else
 159:../Libraries/STM32F4xx_StdPeriph_Driver/src/stm32f4xx_exti.c ****     {
 160:../Libraries/STM32F4xx_StdPeriph_Driver/src/stm32f4xx_exti.c ****       tmp = (uint32_t)EXTI_BASE;
 24724              		.loc 1 160 0
 24725 00e6 124B     		ldr	r3, .L8
 24726 00e8 FB60     		str	r3, [r7, #12]
 161:../Libraries/STM32F4xx_StdPeriph_Driver/src/stm32f4xx_exti.c ****       tmp += EXTI_InitStruct->EXTI_Trigger;
 24727              		.loc 1 161 0
 24728 00ea 7B68     		ldr	r3, [r7, #4]
 24729 00ec 5B79     		ldrb	r3, [r3, #5]	@ zero_extendqisi2
 24730 00ee FA68     		ldr	r2, [r7, #12]
 24731 00f0 D318     		adds	r3, r2, r3
 24732 00f2 FB60     		str	r3, [r7, #12]
 162:../Libraries/STM32F4xx_StdPeriph_Driver/src/stm32f4xx_exti.c **** 
 163:../Libraries/STM32F4xx_StdPeriph_Driver/src/stm32f4xx_exti.c ****       *(__IO uint32_t *) tmp |= EXTI_InitStruct->EXTI_Line;
 24733              		.loc 1 163 0
 24734 00f4 FB68     		ldr	r3, [r7, #12]
 24735 00f6 FA68     		ldr	r2, [r7, #12]
 24736 00f8 1168     		ldr	r1, [r2, #0]
 24737 00fa 7A68     		ldr	r2, [r7, #4]
 24738 00fc 1268     		ldr	r2, [r2, #0]
 24739 00fe 41EA0202 		orr	r2, r1, r2
 24740 0102 1A60     		str	r2, [r3, #0]
 24741 0104 0EE0     		b	.L4
 24742              	.L5:
 164:../Libraries/STM32F4xx_StdPeriph_Driver/src/stm32f4xx_exti.c ****     }
 165:../Libraries/STM32F4xx_StdPeriph_Driver/src/stm32f4xx_exti.c ****   }
 166:../Libraries/STM32F4xx_StdPeriph_Driver/src/stm32f4xx_exti.c ****   else
 167:../Libraries/STM32F4xx_StdPeriph_Driver/src/stm32f4xx_exti.c ****   {
 168:../Libraries/STM32F4xx_StdPeriph_Driver/src/stm32f4xx_exti.c ****     tmp += EXTI_InitStruct->EXTI_Mode;
 24743              		.loc 1 168 0
 24744 0106 7B68     		ldr	r3, [r7, #4]
 24745 0108 1B79     		ldrb	r3, [r3, #4]	@ zero_extendqisi2
 24746 010a FA68     		ldr	r2, [r7, #12]
 24747 010c D318     		adds	r3, r2, r3
 24748 010e FB60     		str	r3, [r7, #12]
 169:../Libraries/STM32F4xx_StdPeriph_Driver/src/stm32f4xx_exti.c **** 
 170:../Libraries/STM32F4xx_StdPeriph_Driver/src/stm32f4xx_exti.c ****     /* Disable the selected external lines */
 171:../Libraries/STM32F4xx_StdPeriph_Driver/src/stm32f4xx_exti.c ****     *(__IO uint32_t *) tmp &= ~EXTI_InitStruct->EXTI_Line;
 24749              		.loc 1 171 0
 24750 0110 FB68     		ldr	r3, [r7, #12]
 24751 0112 FA68     		ldr	r2, [r7, #12]
 24752 0114 1168     		ldr	r1, [r2, #0]
 24753 0116 7A68     		ldr	r2, [r7, #4]
 24754 0118 1268     		ldr	r2, [r2, #0]
 24755 011a 6FEA0202 		mvn	r2, r2
 24756 011e 01EA0202 		and	r2, r1, r2
 24757 0122 1A60     		str	r2, [r3, #0]
 24758              	.L4:
 172:../Libraries/STM32F4xx_StdPeriph_Driver/src/stm32f4xx_exti.c ****   }
 173:../Libraries/STM32F4xx_StdPeriph_Driver/src/stm32f4xx_exti.c **** }
 24759              		.loc 1 173 0
 24760 0124 07F11407 		add	r7, r7, #20
 24761 0128 BD46     		mov	sp, r7
 24762 012a 80BC     		pop	{r7}
 24763 012c 7047     		bx	lr
 24764              	.L9:
 24765 012e 00BF     		.align	2
 24766              	.L8:
 24767 0130 003C0140 		.word	1073822720
 24768              		.cfi_endproc
 24769              	.LFE111:
 24771              		.align	2
 24772              		.global	EXTI_StructInit
 24773              		.thumb
 24774              		.thumb_func
 24776              	EXTI_StructInit:
 24777              	.LFB112:
 174:../Libraries/STM32F4xx_StdPeriph_Driver/src/stm32f4xx_exti.c **** 
 175:../Libraries/STM32F4xx_StdPeriph_Driver/src/stm32f4xx_exti.c **** /**
 176:../Libraries/STM32F4xx_StdPeriph_Driver/src/stm32f4xx_exti.c ****   * @brief  Fills each EXTI_InitStruct member with its reset value.
 177:../Libraries/STM32F4xx_StdPeriph_Driver/src/stm32f4xx_exti.c ****   * @param  EXTI_InitStruct: pointer to a EXTI_InitTypeDef structure which will
 178:../Libraries/STM32F4xx_StdPeriph_Driver/src/stm32f4xx_exti.c ****   *         be initialized.
 179:../Libraries/STM32F4xx_StdPeriph_Driver/src/stm32f4xx_exti.c ****   * @retval None
 180:../Libraries/STM32F4xx_StdPeriph_Driver/src/stm32f4xx_exti.c ****   */
 181:../Libraries/STM32F4xx_StdPeriph_Driver/src/stm32f4xx_exti.c **** void EXTI_StructInit(EXTI_InitTypeDef* EXTI_InitStruct)
 182:../Libraries/STM32F4xx_StdPeriph_Driver/src/stm32f4xx_exti.c **** {
 24778              		.loc 1 182 0
 24779              		.cfi_startproc
 24780              		@ args = 0, pretend = 0, frame = 8
 24781              		@ frame_needed = 1, uses_anonymous_args = 0
 24782              		@ link register save eliminated.
 24783 0134 80B4     		push	{r7}
 24784              	.LCFI5:
 24785              		.cfi_def_cfa_offset 4
 24786 0136 83B0     		sub	sp, sp, #12
 24787              	.LCFI6:
 24788              		.cfi_def_cfa_offset 16
 24789 0138 00AF     		add	r7, sp, #0
 24790              		.cfi_offset 7, -4
 24791              	.LCFI7:
 24792              		.cfi_def_cfa_register 7
 24793 013a 7860     		str	r0, [r7, #4]
 183:../Libraries/STM32F4xx_StdPeriph_Driver/src/stm32f4xx_exti.c ****   EXTI_InitStruct->EXTI_Line = EXTI_LINENONE;
 24794              		.loc 1 183 0
 24795 013c 7B68     		ldr	r3, [r7, #4]
 24796 013e 4FF00002 		mov	r2, #0
 24797 0142 1A60     		str	r2, [r3, #0]
 184:../Libraries/STM32F4xx_StdPeriph_Driver/src/stm32f4xx_exti.c ****   EXTI_InitStruct->EXTI_Mode = EXTI_Mode_Interrupt;
 24798              		.loc 1 184 0
 24799 0144 7B68     		ldr	r3, [r7, #4]
 24800 0146 4FF00002 		mov	r2, #0
 24801 014a 1A71     		strb	r2, [r3, #4]
 185:../Libraries/STM32F4xx_StdPeriph_Driver/src/stm32f4xx_exti.c ****   EXTI_InitStruct->EXTI_Trigger = EXTI_Trigger_Falling;
 24802              		.loc 1 185 0
 24803 014c 7B68     		ldr	r3, [r7, #4]
 24804 014e 4FF00C02 		mov	r2, #12
 24805 0152 5A71     		strb	r2, [r3, #5]
 186:../Libraries/STM32F4xx_StdPeriph_Driver/src/stm32f4xx_exti.c ****   EXTI_InitStruct->EXTI_LineCmd = DISABLE;
 24806              		.loc 1 186 0
 24807 0154 7B68     		ldr	r3, [r7, #4]
 24808 0156 4FF00002 		mov	r2, #0
 24809 015a 9A71     		strb	r2, [r3, #6]
 187:../Libraries/STM32F4xx_StdPeriph_Driver/src/stm32f4xx_exti.c **** }
 24810              		.loc 1 187 0
 24811 015c 07F10C07 		add	r7, r7, #12
 24812 0160 BD46     		mov	sp, r7
 24813 0162 80BC     		pop	{r7}
 24814 0164 7047     		bx	lr
 24815              		.cfi_endproc
 24816              	.LFE112:
 24818 0166 00BF     		.align	2
 24819              		.global	EXTI_GenerateSWInterrupt
 24820              		.thumb
 24821              		.thumb_func
 24823              	EXTI_GenerateSWInterrupt:
 24824              	.LFB113:
 188:../Libraries/STM32F4xx_StdPeriph_Driver/src/stm32f4xx_exti.c **** 
 189:../Libraries/STM32F4xx_StdPeriph_Driver/src/stm32f4xx_exti.c **** /**
 190:../Libraries/STM32F4xx_StdPeriph_Driver/src/stm32f4xx_exti.c ****   * @brief  Generates a Software interrupt on selected EXTI line.
 191:../Libraries/STM32F4xx_StdPeriph_Driver/src/stm32f4xx_exti.c ****   * @param  EXTI_Line: specifies the EXTI line on which the software interrupt
 192:../Libraries/STM32F4xx_StdPeriph_Driver/src/stm32f4xx_exti.c ****   *         will be generated.
 193:../Libraries/STM32F4xx_StdPeriph_Driver/src/stm32f4xx_exti.c ****   *         This parameter can be any combination of EXTI_Linex where x can be (0..22)
 194:../Libraries/STM32F4xx_StdPeriph_Driver/src/stm32f4xx_exti.c ****   * @retval None
 195:../Libraries/STM32F4xx_StdPeriph_Driver/src/stm32f4xx_exti.c ****   */
 196:../Libraries/STM32F4xx_StdPeriph_Driver/src/stm32f4xx_exti.c **** void EXTI_GenerateSWInterrupt(uint32_t EXTI_Line)
 197:../Libraries/STM32F4xx_StdPeriph_Driver/src/stm32f4xx_exti.c **** {
 24825              		.loc 1 197 0
 24826              		.cfi_startproc
 24827              		@ args = 0, pretend = 0, frame = 8
 24828              		@ frame_needed = 1, uses_anonymous_args = 0
 24829              		@ link register save eliminated.
 24830 0168 80B4     		push	{r7}
 24831              	.LCFI8:
 24832              		.cfi_def_cfa_offset 4
 24833 016a 83B0     		sub	sp, sp, #12
 24834              	.LCFI9:
 24835              		.cfi_def_cfa_offset 16
 24836 016c 00AF     		add	r7, sp, #0
 24837              		.cfi_offset 7, -4
 24838              	.LCFI10:
 24839              		.cfi_def_cfa_register 7
 24840 016e 7860     		str	r0, [r7, #4]
 198:../Libraries/STM32F4xx_StdPeriph_Driver/src/stm32f4xx_exti.c ****   /* Check the parameters */
 199:../Libraries/STM32F4xx_StdPeriph_Driver/src/stm32f4xx_exti.c ****   assert_param(IS_EXTI_LINE(EXTI_Line));
 200:../Libraries/STM32F4xx_StdPeriph_Driver/src/stm32f4xx_exti.c ****   
 201:../Libraries/STM32F4xx_StdPeriph_Driver/src/stm32f4xx_exti.c ****   EXTI->SWIER |= EXTI_Line;
 24841              		.loc 1 201 0
 24842 0170 054B     		ldr	r3, .L12
 24843 0172 054A     		ldr	r2, .L12
 24844 0174 1169     		ldr	r1, [r2, #16]
 24845 0176 7A68     		ldr	r2, [r7, #4]
 24846 0178 41EA0202 		orr	r2, r1, r2
 24847 017c 1A61     		str	r2, [r3, #16]
 202:../Libraries/STM32F4xx_StdPeriph_Driver/src/stm32f4xx_exti.c **** }
 24848              		.loc 1 202 0
 24849 017e 07F10C07 		add	r7, r7, #12
 24850 0182 BD46     		mov	sp, r7
 24851 0184 80BC     		pop	{r7}
 24852 0186 7047     		bx	lr
 24853              	.L13:
 24854              		.align	2
 24855              	.L12:
 24856 0188 003C0140 		.word	1073822720
 24857              		.cfi_endproc
 24858              	.LFE113:
 24860              		.align	2
 24861              		.global	EXTI_GetFlagStatus
 24862              		.thumb
 24863              		.thumb_func
 24865              	EXTI_GetFlagStatus:
 24866              	.LFB114:
 203:../Libraries/STM32F4xx_StdPeriph_Driver/src/stm32f4xx_exti.c **** 
 204:../Libraries/STM32F4xx_StdPeriph_Driver/src/stm32f4xx_exti.c **** /**
 205:../Libraries/STM32F4xx_StdPeriph_Driver/src/stm32f4xx_exti.c ****   * @}
 206:../Libraries/STM32F4xx_StdPeriph_Driver/src/stm32f4xx_exti.c ****   */
 207:../Libraries/STM32F4xx_StdPeriph_Driver/src/stm32f4xx_exti.c **** 
 208:../Libraries/STM32F4xx_StdPeriph_Driver/src/stm32f4xx_exti.c **** /** @defgroup EXTI_Group2 Interrupts and flags management functions
 209:../Libraries/STM32F4xx_StdPeriph_Driver/src/stm32f4xx_exti.c ****  *  @brief   Interrupts and flags management functions 
 210:../Libraries/STM32F4xx_StdPeriph_Driver/src/stm32f4xx_exti.c ****  *
 211:../Libraries/STM32F4xx_StdPeriph_Driver/src/stm32f4xx_exti.c **** @verbatim   
 212:../Libraries/STM32F4xx_StdPeriph_Driver/src/stm32f4xx_exti.c ****  ===============================================================================
 213:../Libraries/STM32F4xx_StdPeriph_Driver/src/stm32f4xx_exti.c ****                   Interrupts and flags management functions
 214:../Libraries/STM32F4xx_StdPeriph_Driver/src/stm32f4xx_exti.c ****  ===============================================================================  
 215:../Libraries/STM32F4xx_StdPeriph_Driver/src/stm32f4xx_exti.c **** 
 216:../Libraries/STM32F4xx_StdPeriph_Driver/src/stm32f4xx_exti.c **** @endverbatim
 217:../Libraries/STM32F4xx_StdPeriph_Driver/src/stm32f4xx_exti.c ****   * @{
 218:../Libraries/STM32F4xx_StdPeriph_Driver/src/stm32f4xx_exti.c ****   */
 219:../Libraries/STM32F4xx_StdPeriph_Driver/src/stm32f4xx_exti.c **** 
 220:../Libraries/STM32F4xx_StdPeriph_Driver/src/stm32f4xx_exti.c **** /**
 221:../Libraries/STM32F4xx_StdPeriph_Driver/src/stm32f4xx_exti.c ****   * @brief  Checks whether the specified EXTI line flag is set or not.
 222:../Libraries/STM32F4xx_StdPeriph_Driver/src/stm32f4xx_exti.c ****   * @param  EXTI_Line: specifies the EXTI line flag to check.
 223:../Libraries/STM32F4xx_StdPeriph_Driver/src/stm32f4xx_exti.c ****   *          This parameter can be EXTI_Linex where x can be(0..22)
 224:../Libraries/STM32F4xx_StdPeriph_Driver/src/stm32f4xx_exti.c ****   * @retval The new state of EXTI_Line (SET or RESET).
 225:../Libraries/STM32F4xx_StdPeriph_Driver/src/stm32f4xx_exti.c ****   */
 226:../Libraries/STM32F4xx_StdPeriph_Driver/src/stm32f4xx_exti.c **** FlagStatus EXTI_GetFlagStatus(uint32_t EXTI_Line)
 227:../Libraries/STM32F4xx_StdPeriph_Driver/src/stm32f4xx_exti.c **** {
 24867              		.loc 1 227 0
 24868              		.cfi_startproc
 24869              		@ args = 0, pretend = 0, frame = 16
 24870              		@ frame_needed = 1, uses_anonymous_args = 0
 24871              		@ link register save eliminated.
 24872 018c 80B4     		push	{r7}
 24873              	.LCFI11:
 24874              		.cfi_def_cfa_offset 4
 24875 018e 85B0     		sub	sp, sp, #20
 24876              	.LCFI12:
 24877              		.cfi_def_cfa_offset 24
 24878 0190 00AF     		add	r7, sp, #0
 24879              		.cfi_offset 7, -4
 24880              	.LCFI13:
 24881              		.cfi_def_cfa_register 7
 24882 0192 7860     		str	r0, [r7, #4]
 228:../Libraries/STM32F4xx_StdPeriph_Driver/src/stm32f4xx_exti.c ****   FlagStatus bitstatus = RESET;
 24883              		.loc 1 228 0
 24884 0194 4FF00003 		mov	r3, #0
 24885 0198 FB73     		strb	r3, [r7, #15]
 229:../Libraries/STM32F4xx_StdPeriph_Driver/src/stm32f4xx_exti.c ****   /* Check the parameters */
 230:../Libraries/STM32F4xx_StdPeriph_Driver/src/stm32f4xx_exti.c ****   assert_param(IS_GET_EXTI_LINE(EXTI_Line));
 231:../Libraries/STM32F4xx_StdPeriph_Driver/src/stm32f4xx_exti.c ****   
 232:../Libraries/STM32F4xx_StdPeriph_Driver/src/stm32f4xx_exti.c ****   if ((EXTI->PR & EXTI_Line) != (uint32_t)RESET)
 24886              		.loc 1 232 0
 24887 019a 0A4B     		ldr	r3, .L17
 24888 019c 5A69     		ldr	r2, [r3, #20]
 24889 019e 7B68     		ldr	r3, [r7, #4]
 24890 01a0 02EA0303 		and	r3, r2, r3
 24891 01a4 002B     		cmp	r3, #0
 24892 01a6 03D0     		beq	.L15
 233:../Libraries/STM32F4xx_StdPeriph_Driver/src/stm32f4xx_exti.c ****   {
 234:../Libraries/STM32F4xx_StdPeriph_Driver/src/stm32f4xx_exti.c ****     bitstatus = SET;
 24893              		.loc 1 234 0
 24894 01a8 4FF00103 		mov	r3, #1
 24895 01ac FB73     		strb	r3, [r7, #15]
 24896 01ae 02E0     		b	.L16
 24897              	.L15:
 235:../Libraries/STM32F4xx_StdPeriph_Driver/src/stm32f4xx_exti.c ****   }
 236:../Libraries/STM32F4xx_StdPeriph_Driver/src/stm32f4xx_exti.c ****   else
 237:../Libraries/STM32F4xx_StdPeriph_Driver/src/stm32f4xx_exti.c ****   {
 238:../Libraries/STM32F4xx_StdPeriph_Driver/src/stm32f4xx_exti.c ****     bitstatus = RESET;
 24898              		.loc 1 238 0
 24899 01b0 4FF00003 		mov	r3, #0
 24900 01b4 FB73     		strb	r3, [r7, #15]
 24901              	.L16:
 239:../Libraries/STM32F4xx_StdPeriph_Driver/src/stm32f4xx_exti.c ****   }
 240:../Libraries/STM32F4xx_StdPeriph_Driver/src/stm32f4xx_exti.c ****   return bitstatus;
 24902              		.loc 1 240 0
 24903 01b6 FB7B     		ldrb	r3, [r7, #15]	@ zero_extendqisi2
 241:../Libraries/STM32F4xx_StdPeriph_Driver/src/stm32f4xx_exti.c **** }
 24904              		.loc 1 241 0
 24905 01b8 1846     		mov	r0, r3
 24906 01ba 07F11407 		add	r7, r7, #20
 24907 01be BD46     		mov	sp, r7
 24908 01c0 80BC     		pop	{r7}
 24909 01c2 7047     		bx	lr
 24910              	.L18:
 24911              		.align	2
 24912              	.L17:
 24913 01c4 003C0140 		.word	1073822720
 24914              		.cfi_endproc
 24915              	.LFE114:
 24917              		.align	2
 24918              		.global	EXTI_ClearFlag
 24919              		.thumb
 24920              		.thumb_func
 24922              	EXTI_ClearFlag:
 24923              	.LFB115:
 242:../Libraries/STM32F4xx_StdPeriph_Driver/src/stm32f4xx_exti.c **** 
 243:../Libraries/STM32F4xx_StdPeriph_Driver/src/stm32f4xx_exti.c **** /**
 244:../Libraries/STM32F4xx_StdPeriph_Driver/src/stm32f4xx_exti.c ****   * @brief  Clears the EXTI's line pending flags.
 245:../Libraries/STM32F4xx_StdPeriph_Driver/src/stm32f4xx_exti.c ****   * @param  EXTI_Line: specifies the EXTI lines flags to clear.
 246:../Libraries/STM32F4xx_StdPeriph_Driver/src/stm32f4xx_exti.c ****   *          This parameter can be any combination of EXTI_Linex where x can be (0..22)
 247:../Libraries/STM32F4xx_StdPeriph_Driver/src/stm32f4xx_exti.c ****   * @retval None
 248:../Libraries/STM32F4xx_StdPeriph_Driver/src/stm32f4xx_exti.c ****   */
 249:../Libraries/STM32F4xx_StdPeriph_Driver/src/stm32f4xx_exti.c **** void EXTI_ClearFlag(uint32_t EXTI_Line)
 250:../Libraries/STM32F4xx_StdPeriph_Driver/src/stm32f4xx_exti.c **** {
 24924              		.loc 1 250 0
 24925              		.cfi_startproc
 24926              		@ args = 0, pretend = 0, frame = 8
 24927              		@ frame_needed = 1, uses_anonymous_args = 0
 24928              		@ link register save eliminated.
 24929 01c8 80B4     		push	{r7}
 24930              	.LCFI14:
 24931              		.cfi_def_cfa_offset 4
 24932 01ca 83B0     		sub	sp, sp, #12
 24933              	.LCFI15:
 24934              		.cfi_def_cfa_offset 16
 24935 01cc 00AF     		add	r7, sp, #0
 24936              		.cfi_offset 7, -4
 24937              	.LCFI16:
 24938              		.cfi_def_cfa_register 7
 24939 01ce 7860     		str	r0, [r7, #4]
 251:../Libraries/STM32F4xx_StdPeriph_Driver/src/stm32f4xx_exti.c ****   /* Check the parameters */
 252:../Libraries/STM32F4xx_StdPeriph_Driver/src/stm32f4xx_exti.c ****   assert_param(IS_EXTI_LINE(EXTI_Line));
 253:../Libraries/STM32F4xx_StdPeriph_Driver/src/stm32f4xx_exti.c ****   
 254:../Libraries/STM32F4xx_StdPeriph_Driver/src/stm32f4xx_exti.c ****   EXTI->PR = EXTI_Line;
 24940              		.loc 1 254 0
 24941 01d0 034B     		ldr	r3, .L20
 24942 01d2 7A68     		ldr	r2, [r7, #4]
 24943 01d4 5A61     		str	r2, [r3, #20]
 255:../Libraries/STM32F4xx_StdPeriph_Driver/src/stm32f4xx_exti.c **** }
 24944              		.loc 1 255 0
 24945 01d6 07F10C07 		add	r7, r7, #12
 24946 01da BD46     		mov	sp, r7
 24947 01dc 80BC     		pop	{r7}
 24948 01de 7047     		bx	lr
 24949              	.L21:
 24950              		.align	2
 24951              	.L20:
 24952 01e0 003C0140 		.word	1073822720
 24953              		.cfi_endproc
 24954              	.LFE115:
 24956              		.align	2
 24957              		.global	EXTI_GetITStatus
 24958              		.thumb
 24959              		.thumb_func
 24961              	EXTI_GetITStatus:
 24962              	.LFB116:
 256:../Libraries/STM32F4xx_StdPeriph_Driver/src/stm32f4xx_exti.c **** 
 257:../Libraries/STM32F4xx_StdPeriph_Driver/src/stm32f4xx_exti.c **** /**
 258:../Libraries/STM32F4xx_StdPeriph_Driver/src/stm32f4xx_exti.c ****   * @brief  Checks whether the specified EXTI line is asserted or not.
 259:../Libraries/STM32F4xx_StdPeriph_Driver/src/stm32f4xx_exti.c ****   * @param  EXTI_Line: specifies the EXTI line to check.
 260:../Libraries/STM32F4xx_StdPeriph_Driver/src/stm32f4xx_exti.c ****   *          This parameter can be EXTI_Linex where x can be(0..22)
 261:../Libraries/STM32F4xx_StdPeriph_Driver/src/stm32f4xx_exti.c ****   * @retval The new state of EXTI_Line (SET or RESET).
 262:../Libraries/STM32F4xx_StdPeriph_Driver/src/stm32f4xx_exti.c ****   */
 263:../Libraries/STM32F4xx_StdPeriph_Driver/src/stm32f4xx_exti.c **** ITStatus EXTI_GetITStatus(uint32_t EXTI_Line)
 264:../Libraries/STM32F4xx_StdPeriph_Driver/src/stm32f4xx_exti.c **** {
 24963              		.loc 1 264 0
 24964              		.cfi_startproc
 24965              		@ args = 0, pretend = 0, frame = 16
 24966              		@ frame_needed = 1, uses_anonymous_args = 0
 24967              		@ link register save eliminated.
 24968 01e4 80B4     		push	{r7}
 24969              	.LCFI17:
 24970              		.cfi_def_cfa_offset 4
 24971 01e6 85B0     		sub	sp, sp, #20
 24972              	.LCFI18:
 24973              		.cfi_def_cfa_offset 24
 24974 01e8 00AF     		add	r7, sp, #0
 24975              		.cfi_offset 7, -4
 24976              	.LCFI19:
 24977              		.cfi_def_cfa_register 7
 24978 01ea 7860     		str	r0, [r7, #4]
 265:../Libraries/STM32F4xx_StdPeriph_Driver/src/stm32f4xx_exti.c ****   ITStatus bitstatus = RESET;
 24979              		.loc 1 265 0
 24980 01ec 4FF00003 		mov	r3, #0
 24981 01f0 FB73     		strb	r3, [r7, #15]
 266:../Libraries/STM32F4xx_StdPeriph_Driver/src/stm32f4xx_exti.c ****   uint32_t enablestatus = 0;
 24982              		.loc 1 266 0
 24983 01f2 4FF00003 		mov	r3, #0
 24984 01f6 BB60     		str	r3, [r7, #8]
 267:../Libraries/STM32F4xx_StdPeriph_Driver/src/stm32f4xx_exti.c ****   /* Check the parameters */
 268:../Libraries/STM32F4xx_StdPeriph_Driver/src/stm32f4xx_exti.c ****   assert_param(IS_GET_EXTI_LINE(EXTI_Line));
 269:../Libraries/STM32F4xx_StdPeriph_Driver/src/stm32f4xx_exti.c ****   
 270:../Libraries/STM32F4xx_StdPeriph_Driver/src/stm32f4xx_exti.c ****   enablestatus =  EXTI->IMR & EXTI_Line;
 24985              		.loc 1 270 0
 24986 01f8 0E4B     		ldr	r3, .L25
 24987 01fa 1A68     		ldr	r2, [r3, #0]
 24988 01fc 7B68     		ldr	r3, [r7, #4]
 24989 01fe 02EA0303 		and	r3, r2, r3
 24990 0202 BB60     		str	r3, [r7, #8]
 271:../Libraries/STM32F4xx_StdPeriph_Driver/src/stm32f4xx_exti.c ****   if (((EXTI->PR & EXTI_Line) != (uint32_t)RESET) && (enablestatus != (uint32_t)RESET))
 24991              		.loc 1 271 0
 24992 0204 0B4B     		ldr	r3, .L25
 24993 0206 5A69     		ldr	r2, [r3, #20]
 24994 0208 7B68     		ldr	r3, [r7, #4]
 24995 020a 02EA0303 		and	r3, r2, r3
 24996 020e 002B     		cmp	r3, #0
 24997 0210 06D0     		beq	.L23
 24998              		.loc 1 271 0 is_stmt 0 discriminator 1
 24999 0212 BB68     		ldr	r3, [r7, #8]
 25000 0214 002B     		cmp	r3, #0
 25001 0216 03D0     		beq	.L23
 272:../Libraries/STM32F4xx_StdPeriph_Driver/src/stm32f4xx_exti.c ****   {
 273:../Libraries/STM32F4xx_StdPeriph_Driver/src/stm32f4xx_exti.c ****     bitstatus = SET;
 25002              		.loc 1 273 0 is_stmt 1
 25003 0218 4FF00103 		mov	r3, #1
 25004 021c FB73     		strb	r3, [r7, #15]
 25005 021e 02E0     		b	.L24
 25006              	.L23:
 274:../Libraries/STM32F4xx_StdPeriph_Driver/src/stm32f4xx_exti.c ****   }
 275:../Libraries/STM32F4xx_StdPeriph_Driver/src/stm32f4xx_exti.c ****   else
 276:../Libraries/STM32F4xx_StdPeriph_Driver/src/stm32f4xx_exti.c ****   {
 277:../Libraries/STM32F4xx_StdPeriph_Driver/src/stm32f4xx_exti.c ****     bitstatus = RESET;
 25007              		.loc 1 277 0
 25008 0220 4FF00003 		mov	r3, #0
 25009 0224 FB73     		strb	r3, [r7, #15]
 25010              	.L24:
 278:../Libraries/STM32F4xx_StdPeriph_Driver/src/stm32f4xx_exti.c ****   }
 279:../Libraries/STM32F4xx_StdPeriph_Driver/src/stm32f4xx_exti.c ****   return bitstatus;
 25011              		.loc 1 279 0
 25012 0226 FB7B     		ldrb	r3, [r7, #15]	@ zero_extendqisi2
 280:../Libraries/STM32F4xx_StdPeriph_Driver/src/stm32f4xx_exti.c **** }
 25013              		.loc 1 280 0
 25014 0228 1846     		mov	r0, r3
 25015 022a 07F11407 		add	r7, r7, #20
 25016 022e BD46     		mov	sp, r7
 25017 0230 80BC     		pop	{r7}
 25018 0232 7047     		bx	lr
 25019              	.L26:
 25020              		.align	2
 25021              	.L25:
 25022 0234 003C0140 		.word	1073822720
 25023              		.cfi_endproc
 25024              	.LFE116:
 25026              		.align	2
 25027              		.global	EXTI_ClearITPendingBit
 25028              		.thumb
 25029              		.thumb_func
 25031              	EXTI_ClearITPendingBit:
 25032              	.LFB117:
 281:../Libraries/STM32F4xx_StdPeriph_Driver/src/stm32f4xx_exti.c **** 
 282:../Libraries/STM32F4xx_StdPeriph_Driver/src/stm32f4xx_exti.c **** /**
 283:../Libraries/STM32F4xx_StdPeriph_Driver/src/stm32f4xx_exti.c ****   * @brief  Clears the EXTI's line pending bits.
 284:../Libraries/STM32F4xx_StdPeriph_Driver/src/stm32f4xx_exti.c ****   * @param  EXTI_Line: specifies the EXTI lines to clear.
 285:../Libraries/STM32F4xx_StdPeriph_Driver/src/stm32f4xx_exti.c ****   *          This parameter can be any combination of EXTI_Linex where x can be (0..22)
 286:../Libraries/STM32F4xx_StdPeriph_Driver/src/stm32f4xx_exti.c ****   * @retval None
 287:../Libraries/STM32F4xx_StdPeriph_Driver/src/stm32f4xx_exti.c ****   */
 288:../Libraries/STM32F4xx_StdPeriph_Driver/src/stm32f4xx_exti.c **** void EXTI_ClearITPendingBit(uint32_t EXTI_Line)
 289:../Libraries/STM32F4xx_StdPeriph_Driver/src/stm32f4xx_exti.c **** {
 25033              		.loc 1 289 0
 25034              		.cfi_startproc
 25035              		@ args = 0, pretend = 0, frame = 8
 25036              		@ frame_needed = 1, uses_anonymous_args = 0
 25037              		@ link register save eliminated.
 25038 0238 80B4     		push	{r7}
 25039              	.LCFI20:
 25040              		.cfi_def_cfa_offset 4
 25041 023a 83B0     		sub	sp, sp, #12
 25042              	.LCFI21:
 25043              		.cfi_def_cfa_offset 16
 25044 023c 00AF     		add	r7, sp, #0
 25045              		.cfi_offset 7, -4
 25046              	.LCFI22:
 25047              		.cfi_def_cfa_register 7
 25048 023e 7860     		str	r0, [r7, #4]
 290:../Libraries/STM32F4xx_StdPeriph_Driver/src/stm32f4xx_exti.c ****   /* Check the parameters */
 291:../Libraries/STM32F4xx_StdPeriph_Driver/src/stm32f4xx_exti.c ****   assert_param(IS_EXTI_LINE(EXTI_Line));
 292:../Libraries/STM32F4xx_StdPeriph_Driver/src/stm32f4xx_exti.c ****   
 293:../Libraries/STM32F4xx_StdPeriph_Driver/src/stm32f4xx_exti.c ****   EXTI->PR = EXTI_Line;
 25049              		.loc 1 293 0
 25050 0240 034B     		ldr	r3, .L28
 25051 0242 7A68     		ldr	r2, [r7, #4]
 25052 0244 5A61     		str	r2, [r3, #20]
 294:../Libraries/STM32F4xx_StdPeriph_Driver/src/stm32f4xx_exti.c **** }
 25053              		.loc 1 294 0
 25054 0246 07F10C07 		add	r7, r7, #12
 25055 024a BD46     		mov	sp, r7
 25056 024c 80BC     		pop	{r7}
 25057 024e 7047     		bx	lr
 25058              	.L29:
 25059              		.align	2
 25060              	.L28:
 25061 0250 003C0140 		.word	1073822720
 25062              		.cfi_endproc
 25063              	.LFE117:
 25065              	.Letext0: