   1              		.syntax unified
   2              		.cpu cortex-m4
   3              		.fpu softvfp
   4              		.eabi_attribute 20, 1
   5              		.eabi_attribute 21, 1
   6              		.eabi_attribute 23, 3
   7              		.eabi_attribute 24, 1
   8              		.eabi_attribute 25, 1
   9              		.eabi_attribute 26, 1
  10              		.eabi_attribute 30, 6
  11              		.eabi_attribute 18, 4
  12              		.thumb
  13              		.file	"stm32f4xx_hash_md5.c"
  23              	.Ltext0:
  24              		.file 1 "../Libraries/STM32F4xx_StdPeriph_Driver/src/stm32f4xx_hash_md5.c"
 24566              		.align	2
 24567              		.global	HASH_MD5
 24568              		.thumb
 24569              		.thumb_func
 24571              	HASH_MD5:
 24572              	.LFB110:
   1:../Libraries/STM32F4xx_StdPeriph_Driver/src/stm32f4xx_hash_md5.c **** /**
   2:../Libraries/STM32F4xx_StdPeriph_Driver/src/stm32f4xx_hash_md5.c ****   ******************************************************************************
   3:../Libraries/STM32F4xx_StdPeriph_Driver/src/stm32f4xx_hash_md5.c ****   * @file    stm32f4xx_hash_md5.c
   4:../Libraries/STM32F4xx_StdPeriph_Driver/src/stm32f4xx_hash_md5.c ****   * @author  MCD Application Team
   5:../Libraries/STM32F4xx_StdPeriph_Driver/src/stm32f4xx_hash_md5.c ****   * @version V1.0.2
   6:../Libraries/STM32F4xx_StdPeriph_Driver/src/stm32f4xx_hash_md5.c ****   * @date    05-March-2012
   7:../Libraries/STM32F4xx_StdPeriph_Driver/src/stm32f4xx_hash_md5.c ****   * @brief   This file provides high level functions to compute the HASH MD5 and
   8:../Libraries/STM32F4xx_StdPeriph_Driver/src/stm32f4xx_hash_md5.c ****   *          HMAC MD5 Digest of an input message.
   9:../Libraries/STM32F4xx_StdPeriph_Driver/src/stm32f4xx_hash_md5.c ****   *          It uses the stm32f4xx_hash.c/.h drivers to access the STM32F4xx HASH
  10:../Libraries/STM32F4xx_StdPeriph_Driver/src/stm32f4xx_hash_md5.c ****   *          peripheral.
  11:../Libraries/STM32F4xx_StdPeriph_Driver/src/stm32f4xx_hash_md5.c ****   *
  12:../Libraries/STM32F4xx_StdPeriph_Driver/src/stm32f4xx_hash_md5.c ****   *  @verbatim
  13:../Libraries/STM32F4xx_StdPeriph_Driver/src/stm32f4xx_hash_md5.c ****   *    
  14:../Libraries/STM32F4xx_StdPeriph_Driver/src/stm32f4xx_hash_md5.c ****   *          ===================================================================
  15:../Libraries/STM32F4xx_StdPeriph_Driver/src/stm32f4xx_hash_md5.c ****   *                                   How to use this driver
  16:../Libraries/STM32F4xx_StdPeriph_Driver/src/stm32f4xx_hash_md5.c ****   *          ===================================================================
  17:../Libraries/STM32F4xx_StdPeriph_Driver/src/stm32f4xx_hash_md5.c ****   *          1. Enable The HASH controller clock using 
  18:../Libraries/STM32F4xx_StdPeriph_Driver/src/stm32f4xx_hash_md5.c ****   *            RCC_AHB2PeriphClockCmd(RCC_AHB2Periph_HASH, ENABLE); function.
  19:../Libraries/STM32F4xx_StdPeriph_Driver/src/stm32f4xx_hash_md5.c ****   *
  20:../Libraries/STM32F4xx_StdPeriph_Driver/src/stm32f4xx_hash_md5.c ****   *          2. Calculate the HASH MD5 Digest using HASH_MD5() function.
  21:../Libraries/STM32F4xx_StdPeriph_Driver/src/stm32f4xx_hash_md5.c ****   *
  22:../Libraries/STM32F4xx_StdPeriph_Driver/src/stm32f4xx_hash_md5.c ****   *          3. Calculate the HMAC MD5 Digest using HMAC_MD5() function.
  23:../Libraries/STM32F4xx_StdPeriph_Driver/src/stm32f4xx_hash_md5.c ****   *
  24:../Libraries/STM32F4xx_StdPeriph_Driver/src/stm32f4xx_hash_md5.c ****   *  @endverbatim
  25:../Libraries/STM32F4xx_StdPeriph_Driver/src/stm32f4xx_hash_md5.c ****   *
  26:../Libraries/STM32F4xx_StdPeriph_Driver/src/stm32f4xx_hash_md5.c ****   ******************************************************************************
  27:../Libraries/STM32F4xx_StdPeriph_Driver/src/stm32f4xx_hash_md5.c ****   * @attention
  28:../Libraries/STM32F4xx_StdPeriph_Driver/src/stm32f4xx_hash_md5.c ****   *
  29:../Libraries/STM32F4xx_StdPeriph_Driver/src/stm32f4xx_hash_md5.c ****   * <h2><center>&copy; COPYRIGHT 2012 STMicroelectronics</center></h2>
  30:../Libraries/STM32F4xx_StdPeriph_Driver/src/stm32f4xx_hash_md5.c ****   *
  31:../Libraries/STM32F4xx_StdPeriph_Driver/src/stm32f4xx_hash_md5.c ****   * Licensed under MCD-ST Liberty SW License Agreement V2, (the "License");
  32:../Libraries/STM32F4xx_StdPeriph_Driver/src/stm32f4xx_hash_md5.c ****   * You may not use this file except in compliance with the License.
  33:../Libraries/STM32F4xx_StdPeriph_Driver/src/stm32f4xx_hash_md5.c ****   * You may obtain a copy of the License at:
  34:../Libraries/STM32F4xx_StdPeriph_Driver/src/stm32f4xx_hash_md5.c ****   *
  35:../Libraries/STM32F4xx_StdPeriph_Driver/src/stm32f4xx_hash_md5.c ****   *        http://www.st.com/software_license_agreement_liberty_v2
  36:../Libraries/STM32F4xx_StdPeriph_Driver/src/stm32f4xx_hash_md5.c ****   *
  37:../Libraries/STM32F4xx_StdPeriph_Driver/src/stm32f4xx_hash_md5.c ****   * Unless required by applicable law or agreed to in writing, software 
  38:../Libraries/STM32F4xx_StdPeriph_Driver/src/stm32f4xx_hash_md5.c ****   * distributed under the License is distributed on an "AS IS" BASIS, 
  39:../Libraries/STM32F4xx_StdPeriph_Driver/src/stm32f4xx_hash_md5.c ****   * WITHOUT WARRANTIES OR CONDITIONS OF ANY KIND, either express or implied.
  40:../Libraries/STM32F4xx_StdPeriph_Driver/src/stm32f4xx_hash_md5.c ****   * See the License for the specific language governing permissions and
  41:../Libraries/STM32F4xx_StdPeriph_Driver/src/stm32f4xx_hash_md5.c ****   * limitations under the License.
  42:../Libraries/STM32F4xx_StdPeriph_Driver/src/stm32f4xx_hash_md5.c ****   *
  43:../Libraries/STM32F4xx_StdPeriph_Driver/src/stm32f4xx_hash_md5.c ****   ******************************************************************************
  44:../Libraries/STM32F4xx_StdPeriph_Driver/src/stm32f4xx_hash_md5.c ****   */
  45:../Libraries/STM32F4xx_StdPeriph_Driver/src/stm32f4xx_hash_md5.c **** 
  46:../Libraries/STM32F4xx_StdPeriph_Driver/src/stm32f4xx_hash_md5.c **** /* Includes ------------------------------------------------------------------*/
  47:../Libraries/STM32F4xx_StdPeriph_Driver/src/stm32f4xx_hash_md5.c **** #include "stm32f4xx_hash.h"
  48:../Libraries/STM32F4xx_StdPeriph_Driver/src/stm32f4xx_hash_md5.c **** 
  49:../Libraries/STM32F4xx_StdPeriph_Driver/src/stm32f4xx_hash_md5.c **** /** @addtogroup STM32F4xx_StdPeriph_Driver
  50:../Libraries/STM32F4xx_StdPeriph_Driver/src/stm32f4xx_hash_md5.c ****   * @{
  51:../Libraries/STM32F4xx_StdPeriph_Driver/src/stm32f4xx_hash_md5.c ****   */
  52:../Libraries/STM32F4xx_StdPeriph_Driver/src/stm32f4xx_hash_md5.c **** 
  53:../Libraries/STM32F4xx_StdPeriph_Driver/src/stm32f4xx_hash_md5.c **** /** @defgroup HASH 
  54:../Libraries/STM32F4xx_StdPeriph_Driver/src/stm32f4xx_hash_md5.c ****   * @brief HASH driver modules
  55:../Libraries/STM32F4xx_StdPeriph_Driver/src/stm32f4xx_hash_md5.c ****   * @{
  56:../Libraries/STM32F4xx_StdPeriph_Driver/src/stm32f4xx_hash_md5.c ****   */
  57:../Libraries/STM32F4xx_StdPeriph_Driver/src/stm32f4xx_hash_md5.c **** 
  58:../Libraries/STM32F4xx_StdPeriph_Driver/src/stm32f4xx_hash_md5.c **** /* Private typedef -----------------------------------------------------------*/
  59:../Libraries/STM32F4xx_StdPeriph_Driver/src/stm32f4xx_hash_md5.c **** /* Private define ------------------------------------------------------------*/
  60:../Libraries/STM32F4xx_StdPeriph_Driver/src/stm32f4xx_hash_md5.c **** #define MD5BUSY_TIMEOUT    ((uint32_t) 0x00010000)
  61:../Libraries/STM32F4xx_StdPeriph_Driver/src/stm32f4xx_hash_md5.c **** 
  62:../Libraries/STM32F4xx_StdPeriph_Driver/src/stm32f4xx_hash_md5.c **** /* Private macro -------------------------------------------------------------*/
  63:../Libraries/STM32F4xx_StdPeriph_Driver/src/stm32f4xx_hash_md5.c **** /* Private variables ---------------------------------------------------------*/
  64:../Libraries/STM32F4xx_StdPeriph_Driver/src/stm32f4xx_hash_md5.c **** /* Private function prototypes -----------------------------------------------*/
  65:../Libraries/STM32F4xx_StdPeriph_Driver/src/stm32f4xx_hash_md5.c **** /* Private functions ---------------------------------------------------------*/
  66:../Libraries/STM32F4xx_StdPeriph_Driver/src/stm32f4xx_hash_md5.c **** 
  67:../Libraries/STM32F4xx_StdPeriph_Driver/src/stm32f4xx_hash_md5.c **** /** @defgroup HASH_Private_Functions
  68:../Libraries/STM32F4xx_StdPeriph_Driver/src/stm32f4xx_hash_md5.c ****   * @{
  69:../Libraries/STM32F4xx_StdPeriph_Driver/src/stm32f4xx_hash_md5.c ****   */ 
  70:../Libraries/STM32F4xx_StdPeriph_Driver/src/stm32f4xx_hash_md5.c **** 
  71:../Libraries/STM32F4xx_StdPeriph_Driver/src/stm32f4xx_hash_md5.c **** /** @defgroup HASH_Group7 High Level MD5 functions
  72:../Libraries/STM32F4xx_StdPeriph_Driver/src/stm32f4xx_hash_md5.c ****  *  @brief   High Level MD5 Hash and HMAC functions 
  73:../Libraries/STM32F4xx_StdPeriph_Driver/src/stm32f4xx_hash_md5.c ****  *
  74:../Libraries/STM32F4xx_StdPeriph_Driver/src/stm32f4xx_hash_md5.c **** @verbatim   
  75:../Libraries/STM32F4xx_StdPeriph_Driver/src/stm32f4xx_hash_md5.c ****  ===============================================================================
  76:../Libraries/STM32F4xx_StdPeriph_Driver/src/stm32f4xx_hash_md5.c ****                           High Level MD5 Hash and HMAC functions
  77:../Libraries/STM32F4xx_StdPeriph_Driver/src/stm32f4xx_hash_md5.c ****  ===============================================================================
  78:../Libraries/STM32F4xx_StdPeriph_Driver/src/stm32f4xx_hash_md5.c **** 
  79:../Libraries/STM32F4xx_StdPeriph_Driver/src/stm32f4xx_hash_md5.c **** 
  80:../Libraries/STM32F4xx_StdPeriph_Driver/src/stm32f4xx_hash_md5.c **** @endverbatim
  81:../Libraries/STM32F4xx_StdPeriph_Driver/src/stm32f4xx_hash_md5.c ****   * @{
  82:../Libraries/STM32F4xx_StdPeriph_Driver/src/stm32f4xx_hash_md5.c ****   */
  83:../Libraries/STM32F4xx_StdPeriph_Driver/src/stm32f4xx_hash_md5.c **** 
  84:../Libraries/STM32F4xx_StdPeriph_Driver/src/stm32f4xx_hash_md5.c **** /**
  85:../Libraries/STM32F4xx_StdPeriph_Driver/src/stm32f4xx_hash_md5.c ****   * @brief  Compute the HASH MD5 digest.
  86:../Libraries/STM32F4xx_StdPeriph_Driver/src/stm32f4xx_hash_md5.c ****   * @param  Input: pointer to the Input buffer to be treated.
  87:../Libraries/STM32F4xx_StdPeriph_Driver/src/stm32f4xx_hash_md5.c ****   * @param  Ilen: length of the Input buffer.
  88:../Libraries/STM32F4xx_StdPeriph_Driver/src/stm32f4xx_hash_md5.c ****   * @param  Output: the returned digest
  89:../Libraries/STM32F4xx_StdPeriph_Driver/src/stm32f4xx_hash_md5.c ****   * @retval An ErrorStatus enumeration value:
  90:../Libraries/STM32F4xx_StdPeriph_Driver/src/stm32f4xx_hash_md5.c ****   *          - SUCCESS: digest computation done
  91:../Libraries/STM32F4xx_StdPeriph_Driver/src/stm32f4xx_hash_md5.c ****   *          - ERROR: digest computation failed
  92:../Libraries/STM32F4xx_StdPeriph_Driver/src/stm32f4xx_hash_md5.c ****   */
  93:../Libraries/STM32F4xx_StdPeriph_Driver/src/stm32f4xx_hash_md5.c **** ErrorStatus HASH_MD5(uint8_t *Input, uint32_t Ilen, uint8_t Output[16])
  94:../Libraries/STM32F4xx_StdPeriph_Driver/src/stm32f4xx_hash_md5.c **** {
 24573              		.loc 1 94 0
 24574              		.cfi_startproc
 24575              		@ args = 0, pretend = 0, frame = 112
 24576              		@ frame_needed = 1, uses_anonymous_args = 0
 24577 0000 90B5     		push	{r4, r7, lr}
 24578              	.LCFI0:
 24579              		.cfi_def_cfa_offset 12
 24580 0002 9DB0     		sub	sp, sp, #116
 24581              	.LCFI1:
 24582              		.cfi_def_cfa_offset 128
 24583 0004 00AF     		add	r7, sp, #0
 24584              		.cfi_offset 14, -4
 24585              		.cfi_offset 7, -8
 24586              		.cfi_offset 4, -12
 24587              	.LCFI2:
 24588              		.cfi_def_cfa_register 7
 24589 0006 F860     		str	r0, [r7, #12]
 24590 0008 B960     		str	r1, [r7, #8]
 24591 000a 7A60     		str	r2, [r7, #4]
  95:../Libraries/STM32F4xx_StdPeriph_Driver/src/stm32f4xx_hash_md5.c ****   HASH_InitTypeDef MD5_HASH_InitStructure;
  96:../Libraries/STM32F4xx_StdPeriph_Driver/src/stm32f4xx_hash_md5.c ****   HASH_MsgDigest MD5_MessageDigest;
  97:../Libraries/STM32F4xx_StdPeriph_Driver/src/stm32f4xx_hash_md5.c ****   __IO uint16_t nbvalidbitsdata = 0;
 24592              		.loc 1 97 0
 24593 000c 4FF00003 		mov	r3, #0
 24594 0010 FB82     		strh	r3, [r7, #22]	@ movhi
  98:../Libraries/STM32F4xx_StdPeriph_Driver/src/stm32f4xx_hash_md5.c ****   uint32_t i = 0;
 24595              		.loc 1 98 0
 24596 0012 4FF00003 		mov	r3, #0
 24597 0016 FB66     		str	r3, [r7, #108]
  99:../Libraries/STM32F4xx_StdPeriph_Driver/src/stm32f4xx_hash_md5.c ****   __IO uint32_t counter = 0;
 24598              		.loc 1 99 0
 24599 0018 4FF00003 		mov	r3, #0
 24600 001c 3B61     		str	r3, [r7, #16]
 100:../Libraries/STM32F4xx_StdPeriph_Driver/src/stm32f4xx_hash_md5.c ****   uint32_t busystatus = 0;
 24601              		.loc 1 100 0
 24602 001e 4FF00003 		mov	r3, #0
 24603 0022 3B66     		str	r3, [r7, #96]
 101:../Libraries/STM32F4xx_StdPeriph_Driver/src/stm32f4xx_hash_md5.c ****   ErrorStatus status = SUCCESS;
 24604              		.loc 1 101 0
 24605 0024 4FF00103 		mov	r3, #1
 24606 0028 87F86B30 		strb	r3, [r7, #107]
 102:../Libraries/STM32F4xx_StdPeriph_Driver/src/stm32f4xx_hash_md5.c ****   uint32_t inputaddr  = (uint32_t)Input;
 24607              		.loc 1 102 0
 24608 002c FB68     		ldr	r3, [r7, #12]
 24609 002e 7B66     		str	r3, [r7, #100]
 103:../Libraries/STM32F4xx_StdPeriph_Driver/src/stm32f4xx_hash_md5.c ****   uint32_t outputaddr = (uint32_t)Output;
 24610              		.loc 1 103 0
 24611 0030 7B68     		ldr	r3, [r7, #4]
 24612 0032 FB65     		str	r3, [r7, #92]
 104:../Libraries/STM32F4xx_StdPeriph_Driver/src/stm32f4xx_hash_md5.c **** 
 105:../Libraries/STM32F4xx_StdPeriph_Driver/src/stm32f4xx_hash_md5.c **** 
 106:../Libraries/STM32F4xx_StdPeriph_Driver/src/stm32f4xx_hash_md5.c ****   /* Number of valid bits in last word of the Input data */
 107:../Libraries/STM32F4xx_StdPeriph_Driver/src/stm32f4xx_hash_md5.c ****   nbvalidbitsdata = 8 * (Ilen % 4);
 24613              		.loc 1 107 0
 24614 0034 BB68     		ldr	r3, [r7, #8]
 24615 0036 9BB2     		uxth	r3, r3
 24616 0038 03F00303 		and	r3, r3, #3
 24617 003c 9BB2     		uxth	r3, r3
 24618 003e 4FEAC303 		lsl	r3, r3, #3
 24619 0042 9BB2     		uxth	r3, r3
 24620 0044 FB82     		strh	r3, [r7, #22]	@ movhi
 108:../Libraries/STM32F4xx_StdPeriph_Driver/src/stm32f4xx_hash_md5.c **** 
 109:../Libraries/STM32F4xx_StdPeriph_Driver/src/stm32f4xx_hash_md5.c ****   /* HASH peripheral initialization */
 110:../Libraries/STM32F4xx_StdPeriph_Driver/src/stm32f4xx_hash_md5.c ****   HASH_DeInit();
 24621              		.loc 1 110 0
 24622 0046 FFF7FEFF 		bl	HASH_DeInit
 111:../Libraries/STM32F4xx_StdPeriph_Driver/src/stm32f4xx_hash_md5.c **** 
 112:../Libraries/STM32F4xx_StdPeriph_Driver/src/stm32f4xx_hash_md5.c ****   /* HASH Configuration */
 113:../Libraries/STM32F4xx_StdPeriph_Driver/src/stm32f4xx_hash_md5.c ****   MD5_HASH_InitStructure.HASH_AlgoSelection = HASH_AlgoSelection_MD5;
 24623              		.loc 1 113 0
 24624 004a 4FF08003 		mov	r3, #128
 24625 004e FB62     		str	r3, [r7, #44]
 114:../Libraries/STM32F4xx_StdPeriph_Driver/src/stm32f4xx_hash_md5.c ****   MD5_HASH_InitStructure.HASH_AlgoMode = HASH_AlgoMode_HASH;
 24626              		.loc 1 114 0
 24627 0050 4FF00003 		mov	r3, #0
 24628 0054 3B63     		str	r3, [r7, #48]
 115:../Libraries/STM32F4xx_StdPeriph_Driver/src/stm32f4xx_hash_md5.c ****   MD5_HASH_InitStructure.HASH_DataType = HASH_DataType_8b;
 24629              		.loc 1 115 0
 24630 0056 4FF02003 		mov	r3, #32
 24631 005a 7B63     		str	r3, [r7, #52]
 116:../Libraries/STM32F4xx_StdPeriph_Driver/src/stm32f4xx_hash_md5.c ****   HASH_Init(&MD5_HASH_InitStructure);
 24632              		.loc 1 116 0
 24633 005c 07F12C03 		add	r3, r7, #44
 24634 0060 1846     		mov	r0, r3
 24635 0062 FFF7FEFF 		bl	HASH_Init
 117:../Libraries/STM32F4xx_StdPeriph_Driver/src/stm32f4xx_hash_md5.c **** 
 118:../Libraries/STM32F4xx_StdPeriph_Driver/src/stm32f4xx_hash_md5.c ****   /* Configure the number of valid bits in last word of the data */
 119:../Libraries/STM32F4xx_StdPeriph_Driver/src/stm32f4xx_hash_md5.c ****   HASH_SetLastWordValidBitsNbr(nbvalidbitsdata);
 24636              		.loc 1 119 0
 24637 0066 FB8A     		ldrh	r3, [r7, #22]	@ movhi
 24638 0068 9BB2     		uxth	r3, r3
 24639 006a 1846     		mov	r0, r3
 24640 006c FFF7FEFF 		bl	HASH_SetLastWordValidBitsNbr
 120:../Libraries/STM32F4xx_StdPeriph_Driver/src/stm32f4xx_hash_md5.c **** 
 121:../Libraries/STM32F4xx_StdPeriph_Driver/src/stm32f4xx_hash_md5.c ****   /* Write the Input block in the IN FIFO */
 122:../Libraries/STM32F4xx_StdPeriph_Driver/src/stm32f4xx_hash_md5.c ****   for(i=0; i<Ilen; i+=4)
 24641              		.loc 1 122 0
 24642 0070 4FF00003 		mov	r3, #0
 24643 0074 FB66     		str	r3, [r7, #108]
 24644 0076 0CE0     		b	.L2
 24645              	.L3:
 123:../Libraries/STM32F4xx_StdPeriph_Driver/src/stm32f4xx_hash_md5.c ****   {
 124:../Libraries/STM32F4xx_StdPeriph_Driver/src/stm32f4xx_hash_md5.c ****     HASH_DataIn(*(uint32_t*)inputaddr);
 24646              		.loc 1 124 0 discriminator 2
 24647 0078 7B6E     		ldr	r3, [r7, #100]
 24648 007a 1B68     		ldr	r3, [r3, #0]
 24649 007c 1846     		mov	r0, r3
 24650 007e FFF7FEFF 		bl	HASH_DataIn
 125:../Libraries/STM32F4xx_StdPeriph_Driver/src/stm32f4xx_hash_md5.c ****     inputaddr+=4;
 24651              		.loc 1 125 0 discriminator 2
 24652 0082 7B6E     		ldr	r3, [r7, #100]
 24653 0084 03F10403 		add	r3, r3, #4
 24654 0088 7B66     		str	r3, [r7, #100]
 122:../Libraries/STM32F4xx_StdPeriph_Driver/src/stm32f4xx_hash_md5.c ****   for(i=0; i<Ilen; i+=4)
 24655              		.loc 1 122 0 discriminator 2
 24656 008a FB6E     		ldr	r3, [r7, #108]
 24657 008c 03F10403 		add	r3, r3, #4
 24658 0090 FB66     		str	r3, [r7, #108]
 24659              	.L2:
 122:../Libraries/STM32F4xx_StdPeriph_Driver/src/stm32f4xx_hash_md5.c ****   for(i=0; i<Ilen; i+=4)
 24660              		.loc 1 122 0 is_stmt 0 discriminator 1
 24661 0092 FA6E     		ldr	r2, [r7, #108]
 24662 0094 BB68     		ldr	r3, [r7, #8]
 24663 0096 9A42     		cmp	r2, r3
 24664 0098 EED3     		bcc	.L3
 126:../Libraries/STM32F4xx_StdPeriph_Driver/src/stm32f4xx_hash_md5.c ****   }
 127:../Libraries/STM32F4xx_StdPeriph_Driver/src/stm32f4xx_hash_md5.c **** 
 128:../Libraries/STM32F4xx_StdPeriph_Driver/src/stm32f4xx_hash_md5.c ****   /* Start the HASH processor */
 129:../Libraries/STM32F4xx_StdPeriph_Driver/src/stm32f4xx_hash_md5.c ****   HASH_StartDigest();
 24665              		.loc 1 129 0 is_stmt 1
 24666 009a FFF7FEFF 		bl	HASH_StartDigest
 24667              	.L5:
 130:../Libraries/STM32F4xx_StdPeriph_Driver/src/stm32f4xx_hash_md5.c **** 
 131:../Libraries/STM32F4xx_StdPeriph_Driver/src/stm32f4xx_hash_md5.c ****   /* wait until the Busy flag is RESET */
 132:../Libraries/STM32F4xx_StdPeriph_Driver/src/stm32f4xx_hash_md5.c ****   do
 133:../Libraries/STM32F4xx_StdPeriph_Driver/src/stm32f4xx_hash_md5.c ****   {
 134:../Libraries/STM32F4xx_StdPeriph_Driver/src/stm32f4xx_hash_md5.c ****     busystatus = HASH_GetFlagStatus(HASH_FLAG_BUSY);
 24668              		.loc 1 134 0 discriminator 1
 24669 009e 4FF00800 		mov	r0, #8
 24670 00a2 FFF7FEFF 		bl	HASH_GetFlagStatus
 24671 00a6 0346     		mov	r3, r0
 24672 00a8 3B66     		str	r3, [r7, #96]
 135:../Libraries/STM32F4xx_StdPeriph_Driver/src/stm32f4xx_hash_md5.c ****     counter++;
 24673              		.loc 1 135 0 discriminator 1
 24674 00aa 3B69     		ldr	r3, [r7, #16]
 24675 00ac 03F10103 		add	r3, r3, #1
 24676 00b0 3B61     		str	r3, [r7, #16]
 136:../Libraries/STM32F4xx_StdPeriph_Driver/src/stm32f4xx_hash_md5.c ****   }while ((counter != MD5BUSY_TIMEOUT) && (busystatus != RESET));
 24677              		.loc 1 136 0 discriminator 1
 24678 00b2 3B69     		ldr	r3, [r7, #16]
 24679 00b4 B3F5803F 		cmp	r3, #65536
 24680 00b8 02D0     		beq	.L4
 24681 00ba 3B6E     		ldr	r3, [r7, #96]
 24682 00bc 002B     		cmp	r3, #0
 24683 00be EED1     		bne	.L5
 24684              	.L4:
 137:../Libraries/STM32F4xx_StdPeriph_Driver/src/stm32f4xx_hash_md5.c **** 
 138:../Libraries/STM32F4xx_StdPeriph_Driver/src/stm32f4xx_hash_md5.c ****   if (busystatus != RESET)
 24685              		.loc 1 138 0
 24686 00c0 3B6E     		ldr	r3, [r7, #96]
 24687 00c2 002B     		cmp	r3, #0
 24688 00c4 04D0     		beq	.L6
 139:../Libraries/STM32F4xx_StdPeriph_Driver/src/stm32f4xx_hash_md5.c ****   {
 140:../Libraries/STM32F4xx_StdPeriph_Driver/src/stm32f4xx_hash_md5.c ****      status = ERROR;
 24689              		.loc 1 140 0
 24690 00c6 4FF00003 		mov	r3, #0
 24691 00ca 87F86B30 		strb	r3, [r7, #107]
 24692 00ce 30E0     		b	.L7
 24693              	.L6:
 141:../Libraries/STM32F4xx_StdPeriph_Driver/src/stm32f4xx_hash_md5.c ****   }
 142:../Libraries/STM32F4xx_StdPeriph_Driver/src/stm32f4xx_hash_md5.c ****   else
 143:../Libraries/STM32F4xx_StdPeriph_Driver/src/stm32f4xx_hash_md5.c ****   {
 144:../Libraries/STM32F4xx_StdPeriph_Driver/src/stm32f4xx_hash_md5.c ****     /* Read the message digest */
 145:../Libraries/STM32F4xx_StdPeriph_Driver/src/stm32f4xx_hash_md5.c ****     HASH_GetDigest(&MD5_MessageDigest);
 24694              		.loc 1 145 0
 24695 00d0 07F11803 		add	r3, r7, #24
 24696 00d4 1846     		mov	r0, r3
 24697 00d6 FFF7FEFF 		bl	HASH_GetDigest
 146:../Libraries/STM32F4xx_StdPeriph_Driver/src/stm32f4xx_hash_md5.c ****     *(uint32_t*)(outputaddr)  = __REV(MD5_MessageDigest.Data[0]);
 24698              		.loc 1 146 0
 24699 00da FB6D     		ldr	r3, [r7, #92]
 24700 00dc BA69     		ldr	r2, [r7, #24]
 24701 00de BA65     		str	r2, [r7, #88]
 24702              	.LBB18:
 24703              	.LBB19:
   1:/home/junpei/workspace/arm/F4_Discovery_Template/Libraries/CMSIS/Include/core_cmInstr.h **** /**************************************************************************//**
   2:/home/junpei/workspace/arm/F4_Discovery_Template/Libraries/CMSIS/Include/core_cmInstr.h ****  * @file     core_cmInstr.h
   3:/home/junpei/workspace/arm/F4_Discovery_Template/Libraries/CMSIS/Include/core_cmInstr.h ****  * @brief    CMSIS Cortex-M Core Instruction Access Header File
   4:/home/junpei/workspace/arm/F4_Discovery_Template/Libraries/CMSIS/Include/core_cmInstr.h ****  * @version  V2.10
   5:/home/junpei/workspace/arm/F4_Discovery_Template/Libraries/CMSIS/Include/core_cmInstr.h ****  * @date     19. July 2011
   6:/home/junpei/workspace/arm/F4_Discovery_Template/Libraries/CMSIS/Include/core_cmInstr.h ****  *
   7:/home/junpei/workspace/arm/F4_Discovery_Template/Libraries/CMSIS/Include/core_cmInstr.h ****  * @note
   8:/home/junpei/workspace/arm/F4_Discovery_Template/Libraries/CMSIS/Include/core_cmInstr.h ****  * Copyright (C) 2009-2011 ARM Limited. All rights reserved.
   9:/home/junpei/workspace/arm/F4_Discovery_Template/Libraries/CMSIS/Include/core_cmInstr.h ****  *
  10:/home/junpei/workspace/arm/F4_Discovery_Template/Libraries/CMSIS/Include/core_cmInstr.h ****  * @par
  11:/home/junpei/workspace/arm/F4_Discovery_Template/Libraries/CMSIS/Include/core_cmInstr.h ****  * ARM Limited (ARM) is supplying this software for use with Cortex-M 
  12:/home/junpei/workspace/arm/F4_Discovery_Template/Libraries/CMSIS/Include/core_cmInstr.h ****  * processor based microcontrollers.  This file can be freely distributed 
  13:/home/junpei/workspace/arm/F4_Discovery_Template/Libraries/CMSIS/Include/core_cmInstr.h ****  * within development tools that are supporting such ARM based processors. 
  14:/home/junpei/workspace/arm/F4_Discovery_Template/Libraries/CMSIS/Include/core_cmInstr.h ****  *
  15:/home/junpei/workspace/arm/F4_Discovery_Template/Libraries/CMSIS/Include/core_cmInstr.h ****  * @par
  16:/home/junpei/workspace/arm/F4_Discovery_Template/Libraries/CMSIS/Include/core_cmInstr.h ****  * THIS SOFTWARE IS PROVIDED "AS IS".  NO WARRANTIES, WHETHER EXPRESS, IMPLIED
  17:/home/junpei/workspace/arm/F4_Discovery_Template/Libraries/CMSIS/Include/core_cmInstr.h ****  * OR STATUTORY, INCLUDING, BUT NOT LIMITED TO, IMPLIED WARRANTIES OF
  18:/home/junpei/workspace/arm/F4_Discovery_Template/Libraries/CMSIS/Include/core_cmInstr.h ****  * MERCHANTABILITY AND FITNESS FOR A PARTICULAR PURPOSE APPLY TO THIS SOFTWARE.
  19:/home/junpei/workspace/arm/F4_Discovery_Template/Libraries/CMSIS/Include/core_cmInstr.h ****  * ARM SHALL NOT, IN ANY CIRCUMSTANCES, BE LIABLE FOR SPECIAL, INCIDENTAL, OR
  20:/home/junpei/workspace/arm/F4_Discovery_Template/Libraries/CMSIS/Include/core_cmInstr.h ****  * CONSEQUENTIAL DAMAGES, FOR ANY REASON WHATSOEVER.
  21:/home/junpei/workspace/arm/F4_Discovery_Template/Libraries/CMSIS/Include/core_cmInstr.h ****  *
  22:/home/junpei/workspace/arm/F4_Discovery_Template/Libraries/CMSIS/Include/core_cmInstr.h ****  ******************************************************************************/
  23:/home/junpei/workspace/arm/F4_Discovery_Template/Libraries/CMSIS/Include/core_cmInstr.h **** 
  24:/home/junpei/workspace/arm/F4_Discovery_Template/Libraries/CMSIS/Include/core_cmInstr.h **** #ifndef __CORE_CMINSTR_H
  25:/home/junpei/workspace/arm/F4_Discovery_Template/Libraries/CMSIS/Include/core_cmInstr.h **** #define __CORE_CMINSTR_H
  26:/home/junpei/workspace/arm/F4_Discovery_Template/Libraries/CMSIS/Include/core_cmInstr.h **** 
  27:/home/junpei/workspace/arm/F4_Discovery_Template/Libraries/CMSIS/Include/core_cmInstr.h **** 
  28:/home/junpei/workspace/arm/F4_Discovery_Template/Libraries/CMSIS/Include/core_cmInstr.h **** /* ##########################  Core Instruction Access  ######################### */
  29:/home/junpei/workspace/arm/F4_Discovery_Template/Libraries/CMSIS/Include/core_cmInstr.h **** /** \defgroup CMSIS_Core_InstructionInterface CMSIS Core Instruction Interface
  30:/home/junpei/workspace/arm/F4_Discovery_Template/Libraries/CMSIS/Include/core_cmInstr.h ****   Access to dedicated instructions
  31:/home/junpei/workspace/arm/F4_Discovery_Template/Libraries/CMSIS/Include/core_cmInstr.h ****   @{
  32:/home/junpei/workspace/arm/F4_Discovery_Template/Libraries/CMSIS/Include/core_cmInstr.h **** */
  33:/home/junpei/workspace/arm/F4_Discovery_Template/Libraries/CMSIS/Include/core_cmInstr.h **** 
  34:/home/junpei/workspace/arm/F4_Discovery_Template/Libraries/CMSIS/Include/core_cmInstr.h **** #if   defined ( __CC_ARM ) /*------------------RealView Compiler -----------------*/
  35:/home/junpei/workspace/arm/F4_Discovery_Template/Libraries/CMSIS/Include/core_cmInstr.h **** /* ARM armcc specific functions */
  36:/home/junpei/workspace/arm/F4_Discovery_Template/Libraries/CMSIS/Include/core_cmInstr.h **** 
  37:/home/junpei/workspace/arm/F4_Discovery_Template/Libraries/CMSIS/Include/core_cmInstr.h **** #if (__ARMCC_VERSION < 400677)
  38:/home/junpei/workspace/arm/F4_Discovery_Template/Libraries/CMSIS/Include/core_cmInstr.h ****   #error "Please use ARM Compiler Toolchain V4.0.677 or later!"
  39:/home/junpei/workspace/arm/F4_Discovery_Template/Libraries/CMSIS/Include/core_cmInstr.h **** #endif
  40:/home/junpei/workspace/arm/F4_Discovery_Template/Libraries/CMSIS/Include/core_cmInstr.h **** 
  41:/home/junpei/workspace/arm/F4_Discovery_Template/Libraries/CMSIS/Include/core_cmInstr.h **** 
  42:/home/junpei/workspace/arm/F4_Discovery_Template/Libraries/CMSIS/Include/core_cmInstr.h **** /** \brief  No Operation
  43:/home/junpei/workspace/arm/F4_Discovery_Template/Libraries/CMSIS/Include/core_cmInstr.h **** 
  44:/home/junpei/workspace/arm/F4_Discovery_Template/Libraries/CMSIS/Include/core_cmInstr.h ****     No Operation does nothing. This instruction can be used for code alignment purposes.
  45:/home/junpei/workspace/arm/F4_Discovery_Template/Libraries/CMSIS/Include/core_cmInstr.h ****  */
  46:/home/junpei/workspace/arm/F4_Discovery_Template/Libraries/CMSIS/Include/core_cmInstr.h **** #define __NOP                             __nop
  47:/home/junpei/workspace/arm/F4_Discovery_Template/Libraries/CMSIS/Include/core_cmInstr.h **** 
  48:/home/junpei/workspace/arm/F4_Discovery_Template/Libraries/CMSIS/Include/core_cmInstr.h **** 
  49:/home/junpei/workspace/arm/F4_Discovery_Template/Libraries/CMSIS/Include/core_cmInstr.h **** /** \brief  Wait For Interrupt
  50:/home/junpei/workspace/arm/F4_Discovery_Template/Libraries/CMSIS/Include/core_cmInstr.h **** 
  51:/home/junpei/workspace/arm/F4_Discovery_Template/Libraries/CMSIS/Include/core_cmInstr.h ****     Wait For Interrupt is a hint instruction that suspends execution
  52:/home/junpei/workspace/arm/F4_Discovery_Template/Libraries/CMSIS/Include/core_cmInstr.h ****     until one of a number of events occurs.
  53:/home/junpei/workspace/arm/F4_Discovery_Template/Libraries/CMSIS/Include/core_cmInstr.h ****  */
  54:/home/junpei/workspace/arm/F4_Discovery_Template/Libraries/CMSIS/Include/core_cmInstr.h **** #define __WFI                             __wfi
  55:/home/junpei/workspace/arm/F4_Discovery_Template/Libraries/CMSIS/Include/core_cmInstr.h **** 
  56:/home/junpei/workspace/arm/F4_Discovery_Template/Libraries/CMSIS/Include/core_cmInstr.h **** 
  57:/home/junpei/workspace/arm/F4_Discovery_Template/Libraries/CMSIS/Include/core_cmInstr.h **** /** \brief  Wait For Event
  58:/home/junpei/workspace/arm/F4_Discovery_Template/Libraries/CMSIS/Include/core_cmInstr.h **** 
  59:/home/junpei/workspace/arm/F4_Discovery_Template/Libraries/CMSIS/Include/core_cmInstr.h ****     Wait For Event is a hint instruction that permits the processor to enter
  60:/home/junpei/workspace/arm/F4_Discovery_Template/Libraries/CMSIS/Include/core_cmInstr.h ****     a low-power state until one of a number of events occurs.
  61:/home/junpei/workspace/arm/F4_Discovery_Template/Libraries/CMSIS/Include/core_cmInstr.h ****  */
  62:/home/junpei/workspace/arm/F4_Discovery_Template/Libraries/CMSIS/Include/core_cmInstr.h **** #define __WFE                             __wfe
  63:/home/junpei/workspace/arm/F4_Discovery_Template/Libraries/CMSIS/Include/core_cmInstr.h **** 
  64:/home/junpei/workspace/arm/F4_Discovery_Template/Libraries/CMSIS/Include/core_cmInstr.h **** 
  65:/home/junpei/workspace/arm/F4_Discovery_Template/Libraries/CMSIS/Include/core_cmInstr.h **** /** \brief  Send Event
  66:/home/junpei/workspace/arm/F4_Discovery_Template/Libraries/CMSIS/Include/core_cmInstr.h **** 
  67:/home/junpei/workspace/arm/F4_Discovery_Template/Libraries/CMSIS/Include/core_cmInstr.h ****     Send Event is a hint instruction. It causes an event to be signaled to the CPU.
  68:/home/junpei/workspace/arm/F4_Discovery_Template/Libraries/CMSIS/Include/core_cmInstr.h ****  */
  69:/home/junpei/workspace/arm/F4_Discovery_Template/Libraries/CMSIS/Include/core_cmInstr.h **** #define __SEV                             __sev
  70:/home/junpei/workspace/arm/F4_Discovery_Template/Libraries/CMSIS/Include/core_cmInstr.h **** 
  71:/home/junpei/workspace/arm/F4_Discovery_Template/Libraries/CMSIS/Include/core_cmInstr.h **** 
  72:/home/junpei/workspace/arm/F4_Discovery_Template/Libraries/CMSIS/Include/core_cmInstr.h **** /** \brief  Instruction Synchronization Barrier
  73:/home/junpei/workspace/arm/F4_Discovery_Template/Libraries/CMSIS/Include/core_cmInstr.h **** 
  74:/home/junpei/workspace/arm/F4_Discovery_Template/Libraries/CMSIS/Include/core_cmInstr.h ****     Instruction Synchronization Barrier flushes the pipeline in the processor, 
  75:/home/junpei/workspace/arm/F4_Discovery_Template/Libraries/CMSIS/Include/core_cmInstr.h ****     so that all instructions following the ISB are fetched from cache or 
  76:/home/junpei/workspace/arm/F4_Discovery_Template/Libraries/CMSIS/Include/core_cmInstr.h ****     memory, after the instruction has been completed.
  77:/home/junpei/workspace/arm/F4_Discovery_Template/Libraries/CMSIS/Include/core_cmInstr.h ****  */
  78:/home/junpei/workspace/arm/F4_Discovery_Template/Libraries/CMSIS/Include/core_cmInstr.h **** #define __ISB()                           __isb(0xF)
  79:/home/junpei/workspace/arm/F4_Discovery_Template/Libraries/CMSIS/Include/core_cmInstr.h **** 
  80:/home/junpei/workspace/arm/F4_Discovery_Template/Libraries/CMSIS/Include/core_cmInstr.h **** 
  81:/home/junpei/workspace/arm/F4_Discovery_Template/Libraries/CMSIS/Include/core_cmInstr.h **** /** \brief  Data Synchronization Barrier
  82:/home/junpei/workspace/arm/F4_Discovery_Template/Libraries/CMSIS/Include/core_cmInstr.h **** 
  83:/home/junpei/workspace/arm/F4_Discovery_Template/Libraries/CMSIS/Include/core_cmInstr.h ****     This function acts as a special kind of Data Memory Barrier. 
  84:/home/junpei/workspace/arm/F4_Discovery_Template/Libraries/CMSIS/Include/core_cmInstr.h ****     It completes when all explicit memory accesses before this instruction complete.
  85:/home/junpei/workspace/arm/F4_Discovery_Template/Libraries/CMSIS/Include/core_cmInstr.h ****  */
  86:/home/junpei/workspace/arm/F4_Discovery_Template/Libraries/CMSIS/Include/core_cmInstr.h **** #define __DSB()                           __dsb(0xF)
  87:/home/junpei/workspace/arm/F4_Discovery_Template/Libraries/CMSIS/Include/core_cmInstr.h **** 
  88:/home/junpei/workspace/arm/F4_Discovery_Template/Libraries/CMSIS/Include/core_cmInstr.h **** 
  89:/home/junpei/workspace/arm/F4_Discovery_Template/Libraries/CMSIS/Include/core_cmInstr.h **** /** \brief  Data Memory Barrier
  90:/home/junpei/workspace/arm/F4_Discovery_Template/Libraries/CMSIS/Include/core_cmInstr.h **** 
  91:/home/junpei/workspace/arm/F4_Discovery_Template/Libraries/CMSIS/Include/core_cmInstr.h ****     This function ensures the apparent order of the explicit memory operations before 
  92:/home/junpei/workspace/arm/F4_Discovery_Template/Libraries/CMSIS/Include/core_cmInstr.h ****     and after the instruction, without ensuring their completion.
  93:/home/junpei/workspace/arm/F4_Discovery_Template/Libraries/CMSIS/Include/core_cmInstr.h ****  */
  94:/home/junpei/workspace/arm/F4_Discovery_Template/Libraries/CMSIS/Include/core_cmInstr.h **** #define __DMB()                           __dmb(0xF)
  95:/home/junpei/workspace/arm/F4_Discovery_Template/Libraries/CMSIS/Include/core_cmInstr.h **** 
  96:/home/junpei/workspace/arm/F4_Discovery_Template/Libraries/CMSIS/Include/core_cmInstr.h **** 
  97:/home/junpei/workspace/arm/F4_Discovery_Template/Libraries/CMSIS/Include/core_cmInstr.h **** /** \brief  Reverse byte order (32 bit)
  98:/home/junpei/workspace/arm/F4_Discovery_Template/Libraries/CMSIS/Include/core_cmInstr.h **** 
  99:/home/junpei/workspace/arm/F4_Discovery_Template/Libraries/CMSIS/Include/core_cmInstr.h ****     This function reverses the byte order in integer value.
 100:/home/junpei/workspace/arm/F4_Discovery_Template/Libraries/CMSIS/Include/core_cmInstr.h **** 
 101:/home/junpei/workspace/arm/F4_Discovery_Template/Libraries/CMSIS/Include/core_cmInstr.h ****     \param [in]    value  Value to reverse
 102:/home/junpei/workspace/arm/F4_Discovery_Template/Libraries/CMSIS/Include/core_cmInstr.h ****     \return               Reversed value
 103:/home/junpei/workspace/arm/F4_Discovery_Template/Libraries/CMSIS/Include/core_cmInstr.h ****  */
 104:/home/junpei/workspace/arm/F4_Discovery_Template/Libraries/CMSIS/Include/core_cmInstr.h **** #define __REV                             __rev
 105:/home/junpei/workspace/arm/F4_Discovery_Template/Libraries/CMSIS/Include/core_cmInstr.h **** 
 106:/home/junpei/workspace/arm/F4_Discovery_Template/Libraries/CMSIS/Include/core_cmInstr.h **** 
 107:/home/junpei/workspace/arm/F4_Discovery_Template/Libraries/CMSIS/Include/core_cmInstr.h **** /** \brief  Reverse byte order (16 bit)
 108:/home/junpei/workspace/arm/F4_Discovery_Template/Libraries/CMSIS/Include/core_cmInstr.h **** 
 109:/home/junpei/workspace/arm/F4_Discovery_Template/Libraries/CMSIS/Include/core_cmInstr.h ****     This function reverses the byte order in two unsigned short values.
 110:/home/junpei/workspace/arm/F4_Discovery_Template/Libraries/CMSIS/Include/core_cmInstr.h **** 
 111:/home/junpei/workspace/arm/F4_Discovery_Template/Libraries/CMSIS/Include/core_cmInstr.h ****     \param [in]    value  Value to reverse
 112:/home/junpei/workspace/arm/F4_Discovery_Template/Libraries/CMSIS/Include/core_cmInstr.h ****     \return               Reversed value
 113:/home/junpei/workspace/arm/F4_Discovery_Template/Libraries/CMSIS/Include/core_cmInstr.h ****  */
 114:/home/junpei/workspace/arm/F4_Discovery_Template/Libraries/CMSIS/Include/core_cmInstr.h **** static __INLINE __ASM uint32_t __REV16(uint32_t value)
 115:/home/junpei/workspace/arm/F4_Discovery_Template/Libraries/CMSIS/Include/core_cmInstr.h **** {
 116:/home/junpei/workspace/arm/F4_Discovery_Template/Libraries/CMSIS/Include/core_cmInstr.h ****   rev16 r0, r0
 117:/home/junpei/workspace/arm/F4_Discovery_Template/Libraries/CMSIS/Include/core_cmInstr.h ****   bx lr
 118:/home/junpei/workspace/arm/F4_Discovery_Template/Libraries/CMSIS/Include/core_cmInstr.h **** }
 119:/home/junpei/workspace/arm/F4_Discovery_Template/Libraries/CMSIS/Include/core_cmInstr.h **** 
 120:/home/junpei/workspace/arm/F4_Discovery_Template/Libraries/CMSIS/Include/core_cmInstr.h **** 
 121:/home/junpei/workspace/arm/F4_Discovery_Template/Libraries/CMSIS/Include/core_cmInstr.h **** /** \brief  Reverse byte order in signed short value
 122:/home/junpei/workspace/arm/F4_Discovery_Template/Libraries/CMSIS/Include/core_cmInstr.h **** 
 123:/home/junpei/workspace/arm/F4_Discovery_Template/Libraries/CMSIS/Include/core_cmInstr.h ****     This function reverses the byte order in a signed short value with sign extension to integer.
 124:/home/junpei/workspace/arm/F4_Discovery_Template/Libraries/CMSIS/Include/core_cmInstr.h **** 
 125:/home/junpei/workspace/arm/F4_Discovery_Template/Libraries/CMSIS/Include/core_cmInstr.h ****     \param [in]    value  Value to reverse
 126:/home/junpei/workspace/arm/F4_Discovery_Template/Libraries/CMSIS/Include/core_cmInstr.h ****     \return               Reversed value
 127:/home/junpei/workspace/arm/F4_Discovery_Template/Libraries/CMSIS/Include/core_cmInstr.h ****  */
 128:/home/junpei/workspace/arm/F4_Discovery_Template/Libraries/CMSIS/Include/core_cmInstr.h **** static __INLINE __ASM int32_t __REVSH(int32_t value)
 129:/home/junpei/workspace/arm/F4_Discovery_Template/Libraries/CMSIS/Include/core_cmInstr.h **** {
 130:/home/junpei/workspace/arm/F4_Discovery_Template/Libraries/CMSIS/Include/core_cmInstr.h ****   revsh r0, r0
 131:/home/junpei/workspace/arm/F4_Discovery_Template/Libraries/CMSIS/Include/core_cmInstr.h ****   bx lr
 132:/home/junpei/workspace/arm/F4_Discovery_Template/Libraries/CMSIS/Include/core_cmInstr.h **** }
 133:/home/junpei/workspace/arm/F4_Discovery_Template/Libraries/CMSIS/Include/core_cmInstr.h **** 
 134:/home/junpei/workspace/arm/F4_Discovery_Template/Libraries/CMSIS/Include/core_cmInstr.h **** 
 135:/home/junpei/workspace/arm/F4_Discovery_Template/Libraries/CMSIS/Include/core_cmInstr.h **** #if       (__CORTEX_M >= 0x03)
 136:/home/junpei/workspace/arm/F4_Discovery_Template/Libraries/CMSIS/Include/core_cmInstr.h **** 
 137:/home/junpei/workspace/arm/F4_Discovery_Template/Libraries/CMSIS/Include/core_cmInstr.h **** /** \brief  Reverse bit order of value
 138:/home/junpei/workspace/arm/F4_Discovery_Template/Libraries/CMSIS/Include/core_cmInstr.h **** 
 139:/home/junpei/workspace/arm/F4_Discovery_Template/Libraries/CMSIS/Include/core_cmInstr.h ****     This function reverses the bit order of the given value.
 140:/home/junpei/workspace/arm/F4_Discovery_Template/Libraries/CMSIS/Include/core_cmInstr.h **** 
 141:/home/junpei/workspace/arm/F4_Discovery_Template/Libraries/CMSIS/Include/core_cmInstr.h ****     \param [in]    value  Value to reverse
 142:/home/junpei/workspace/arm/F4_Discovery_Template/Libraries/CMSIS/Include/core_cmInstr.h ****     \return               Reversed value
 143:/home/junpei/workspace/arm/F4_Discovery_Template/Libraries/CMSIS/Include/core_cmInstr.h ****  */
 144:/home/junpei/workspace/arm/F4_Discovery_Template/Libraries/CMSIS/Include/core_cmInstr.h **** #define __RBIT                            __rbit
 145:/home/junpei/workspace/arm/F4_Discovery_Template/Libraries/CMSIS/Include/core_cmInstr.h **** 
 146:/home/junpei/workspace/arm/F4_Discovery_Template/Libraries/CMSIS/Include/core_cmInstr.h **** 
 147:/home/junpei/workspace/arm/F4_Discovery_Template/Libraries/CMSIS/Include/core_cmInstr.h **** /** \brief  LDR Exclusive (8 bit)
 148:/home/junpei/workspace/arm/F4_Discovery_Template/Libraries/CMSIS/Include/core_cmInstr.h **** 
 149:/home/junpei/workspace/arm/F4_Discovery_Template/Libraries/CMSIS/Include/core_cmInstr.h ****     This function performs a exclusive LDR command for 8 bit value.
 150:/home/junpei/workspace/arm/F4_Discovery_Template/Libraries/CMSIS/Include/core_cmInstr.h **** 
 151:/home/junpei/workspace/arm/F4_Discovery_Template/Libraries/CMSIS/Include/core_cmInstr.h ****     \param [in]    ptr  Pointer to data
 152:/home/junpei/workspace/arm/F4_Discovery_Template/Libraries/CMSIS/Include/core_cmInstr.h ****     \return             value of type uint8_t at (*ptr)
 153:/home/junpei/workspace/arm/F4_Discovery_Template/Libraries/CMSIS/Include/core_cmInstr.h ****  */
 154:/home/junpei/workspace/arm/F4_Discovery_Template/Libraries/CMSIS/Include/core_cmInstr.h **** #define __LDREXB(ptr)                     ((uint8_t ) __ldrex(ptr))
 155:/home/junpei/workspace/arm/F4_Discovery_Template/Libraries/CMSIS/Include/core_cmInstr.h **** 
 156:/home/junpei/workspace/arm/F4_Discovery_Template/Libraries/CMSIS/Include/core_cmInstr.h **** 
 157:/home/junpei/workspace/arm/F4_Discovery_Template/Libraries/CMSIS/Include/core_cmInstr.h **** /** \brief  LDR Exclusive (16 bit)
 158:/home/junpei/workspace/arm/F4_Discovery_Template/Libraries/CMSIS/Include/core_cmInstr.h **** 
 159:/home/junpei/workspace/arm/F4_Discovery_Template/Libraries/CMSIS/Include/core_cmInstr.h ****     This function performs a exclusive LDR command for 16 bit values.
 160:/home/junpei/workspace/arm/F4_Discovery_Template/Libraries/CMSIS/Include/core_cmInstr.h **** 
 161:/home/junpei/workspace/arm/F4_Discovery_Template/Libraries/CMSIS/Include/core_cmInstr.h ****     \param [in]    ptr  Pointer to data
 162:/home/junpei/workspace/arm/F4_Discovery_Template/Libraries/CMSIS/Include/core_cmInstr.h ****     \return        value of type uint16_t at (*ptr)
 163:/home/junpei/workspace/arm/F4_Discovery_Template/Libraries/CMSIS/Include/core_cmInstr.h ****  */
 164:/home/junpei/workspace/arm/F4_Discovery_Template/Libraries/CMSIS/Include/core_cmInstr.h **** #define __LDREXH(ptr)                     ((uint16_t) __ldrex(ptr))
 165:/home/junpei/workspace/arm/F4_Discovery_Template/Libraries/CMSIS/Include/core_cmInstr.h **** 
 166:/home/junpei/workspace/arm/F4_Discovery_Template/Libraries/CMSIS/Include/core_cmInstr.h **** 
 167:/home/junpei/workspace/arm/F4_Discovery_Template/Libraries/CMSIS/Include/core_cmInstr.h **** /** \brief  LDR Exclusive (32 bit)
 168:/home/junpei/workspace/arm/F4_Discovery_Template/Libraries/CMSIS/Include/core_cmInstr.h **** 
 169:/home/junpei/workspace/arm/F4_Discovery_Template/Libraries/CMSIS/Include/core_cmInstr.h ****     This function performs a exclusive LDR command for 32 bit values.
 170:/home/junpei/workspace/arm/F4_Discovery_Template/Libraries/CMSIS/Include/core_cmInstr.h **** 
 171:/home/junpei/workspace/arm/F4_Discovery_Template/Libraries/CMSIS/Include/core_cmInstr.h ****     \param [in]    ptr  Pointer to data
 172:/home/junpei/workspace/arm/F4_Discovery_Template/Libraries/CMSIS/Include/core_cmInstr.h ****     \return        value of type uint32_t at (*ptr)
 173:/home/junpei/workspace/arm/F4_Discovery_Template/Libraries/CMSIS/Include/core_cmInstr.h ****  */
 174:/home/junpei/workspace/arm/F4_Discovery_Template/Libraries/CMSIS/Include/core_cmInstr.h **** #define __LDREXW(ptr)                     ((uint32_t ) __ldrex(ptr))
 175:/home/junpei/workspace/arm/F4_Discovery_Template/Libraries/CMSIS/Include/core_cmInstr.h **** 
 176:/home/junpei/workspace/arm/F4_Discovery_Template/Libraries/CMSIS/Include/core_cmInstr.h **** 
 177:/home/junpei/workspace/arm/F4_Discovery_Template/Libraries/CMSIS/Include/core_cmInstr.h **** /** \brief  STR Exclusive (8 bit)
 178:/home/junpei/workspace/arm/F4_Discovery_Template/Libraries/CMSIS/Include/core_cmInstr.h **** 
 179:/home/junpei/workspace/arm/F4_Discovery_Template/Libraries/CMSIS/Include/core_cmInstr.h ****     This function performs a exclusive STR command for 8 bit values.
 180:/home/junpei/workspace/arm/F4_Discovery_Template/Libraries/CMSIS/Include/core_cmInstr.h **** 
 181:/home/junpei/workspace/arm/F4_Discovery_Template/Libraries/CMSIS/Include/core_cmInstr.h ****     \param [in]  value  Value to store
 182:/home/junpei/workspace/arm/F4_Discovery_Template/Libraries/CMSIS/Include/core_cmInstr.h ****     \param [in]    ptr  Pointer to location
 183:/home/junpei/workspace/arm/F4_Discovery_Template/Libraries/CMSIS/Include/core_cmInstr.h ****     \return          0  Function succeeded
 184:/home/junpei/workspace/arm/F4_Discovery_Template/Libraries/CMSIS/Include/core_cmInstr.h ****     \return          1  Function failed
 185:/home/junpei/workspace/arm/F4_Discovery_Template/Libraries/CMSIS/Include/core_cmInstr.h ****  */
 186:/home/junpei/workspace/arm/F4_Discovery_Template/Libraries/CMSIS/Include/core_cmInstr.h **** #define __STREXB(value, ptr)              __strex(value, ptr)
 187:/home/junpei/workspace/arm/F4_Discovery_Template/Libraries/CMSIS/Include/core_cmInstr.h **** 
 188:/home/junpei/workspace/arm/F4_Discovery_Template/Libraries/CMSIS/Include/core_cmInstr.h **** 
 189:/home/junpei/workspace/arm/F4_Discovery_Template/Libraries/CMSIS/Include/core_cmInstr.h **** /** \brief  STR Exclusive (16 bit)
 190:/home/junpei/workspace/arm/F4_Discovery_Template/Libraries/CMSIS/Include/core_cmInstr.h **** 
 191:/home/junpei/workspace/arm/F4_Discovery_Template/Libraries/CMSIS/Include/core_cmInstr.h ****     This function performs a exclusive STR command for 16 bit values.
 192:/home/junpei/workspace/arm/F4_Discovery_Template/Libraries/CMSIS/Include/core_cmInstr.h **** 
 193:/home/junpei/workspace/arm/F4_Discovery_Template/Libraries/CMSIS/Include/core_cmInstr.h ****     \param [in]  value  Value to store
 194:/home/junpei/workspace/arm/F4_Discovery_Template/Libraries/CMSIS/Include/core_cmInstr.h ****     \param [in]    ptr  Pointer to location
 195:/home/junpei/workspace/arm/F4_Discovery_Template/Libraries/CMSIS/Include/core_cmInstr.h ****     \return          0  Function succeeded
 196:/home/junpei/workspace/arm/F4_Discovery_Template/Libraries/CMSIS/Include/core_cmInstr.h ****     \return          1  Function failed
 197:/home/junpei/workspace/arm/F4_Discovery_Template/Libraries/CMSIS/Include/core_cmInstr.h ****  */
 198:/home/junpei/workspace/arm/F4_Discovery_Template/Libraries/CMSIS/Include/core_cmInstr.h **** #define __STREXH(value, ptr)              __strex(value, ptr)
 199:/home/junpei/workspace/arm/F4_Discovery_Template/Libraries/CMSIS/Include/core_cmInstr.h **** 
 200:/home/junpei/workspace/arm/F4_Discovery_Template/Libraries/CMSIS/Include/core_cmInstr.h **** 
 201:/home/junpei/workspace/arm/F4_Discovery_Template/Libraries/CMSIS/Include/core_cmInstr.h **** /** \brief  STR Exclusive (32 bit)
 202:/home/junpei/workspace/arm/F4_Discovery_Template/Libraries/CMSIS/Include/core_cmInstr.h **** 
 203:/home/junpei/workspace/arm/F4_Discovery_Template/Libraries/CMSIS/Include/core_cmInstr.h ****     This function performs a exclusive STR command for 32 bit values.
 204:/home/junpei/workspace/arm/F4_Discovery_Template/Libraries/CMSIS/Include/core_cmInstr.h **** 
 205:/home/junpei/workspace/arm/F4_Discovery_Template/Libraries/CMSIS/Include/core_cmInstr.h ****     \param [in]  value  Value to store
 206:/home/junpei/workspace/arm/F4_Discovery_Template/Libraries/CMSIS/Include/core_cmInstr.h ****     \param [in]    ptr  Pointer to location
 207:/home/junpei/workspace/arm/F4_Discovery_Template/Libraries/CMSIS/Include/core_cmInstr.h ****     \return          0  Function succeeded
 208:/home/junpei/workspace/arm/F4_Discovery_Template/Libraries/CMSIS/Include/core_cmInstr.h ****     \return          1  Function failed
 209:/home/junpei/workspace/arm/F4_Discovery_Template/Libraries/CMSIS/Include/core_cmInstr.h ****  */
 210:/home/junpei/workspace/arm/F4_Discovery_Template/Libraries/CMSIS/Include/core_cmInstr.h **** #define __STREXW(value, ptr)              __strex(value, ptr)
 211:/home/junpei/workspace/arm/F4_Discovery_Template/Libraries/CMSIS/Include/core_cmInstr.h **** 
 212:/home/junpei/workspace/arm/F4_Discovery_Template/Libraries/CMSIS/Include/core_cmInstr.h **** 
 213:/home/junpei/workspace/arm/F4_Discovery_Template/Libraries/CMSIS/Include/core_cmInstr.h **** /** \brief  Remove the exclusive lock
 214:/home/junpei/workspace/arm/F4_Discovery_Template/Libraries/CMSIS/Include/core_cmInstr.h **** 
 215:/home/junpei/workspace/arm/F4_Discovery_Template/Libraries/CMSIS/Include/core_cmInstr.h ****     This function removes the exclusive lock which is created by LDREX.
 216:/home/junpei/workspace/arm/F4_Discovery_Template/Libraries/CMSIS/Include/core_cmInstr.h **** 
 217:/home/junpei/workspace/arm/F4_Discovery_Template/Libraries/CMSIS/Include/core_cmInstr.h ****  */
 218:/home/junpei/workspace/arm/F4_Discovery_Template/Libraries/CMSIS/Include/core_cmInstr.h **** #define __CLREX                           __clrex
 219:/home/junpei/workspace/arm/F4_Discovery_Template/Libraries/CMSIS/Include/core_cmInstr.h **** 
 220:/home/junpei/workspace/arm/F4_Discovery_Template/Libraries/CMSIS/Include/core_cmInstr.h **** 
 221:/home/junpei/workspace/arm/F4_Discovery_Template/Libraries/CMSIS/Include/core_cmInstr.h **** /** \brief  Signed Saturate
 222:/home/junpei/workspace/arm/F4_Discovery_Template/Libraries/CMSIS/Include/core_cmInstr.h **** 
 223:/home/junpei/workspace/arm/F4_Discovery_Template/Libraries/CMSIS/Include/core_cmInstr.h ****     This function saturates a signed value.
 224:/home/junpei/workspace/arm/F4_Discovery_Template/Libraries/CMSIS/Include/core_cmInstr.h **** 
 225:/home/junpei/workspace/arm/F4_Discovery_Template/Libraries/CMSIS/Include/core_cmInstr.h ****     \param [in]  value  Value to be saturated
 226:/home/junpei/workspace/arm/F4_Discovery_Template/Libraries/CMSIS/Include/core_cmInstr.h ****     \param [in]    sat  Bit position to saturate to (1..32)
 227:/home/junpei/workspace/arm/F4_Discovery_Template/Libraries/CMSIS/Include/core_cmInstr.h ****     \return             Saturated value
 228:/home/junpei/workspace/arm/F4_Discovery_Template/Libraries/CMSIS/Include/core_cmInstr.h ****  */
 229:/home/junpei/workspace/arm/F4_Discovery_Template/Libraries/CMSIS/Include/core_cmInstr.h **** #define __SSAT                            __ssat
 230:/home/junpei/workspace/arm/F4_Discovery_Template/Libraries/CMSIS/Include/core_cmInstr.h **** 
 231:/home/junpei/workspace/arm/F4_Discovery_Template/Libraries/CMSIS/Include/core_cmInstr.h **** 
 232:/home/junpei/workspace/arm/F4_Discovery_Template/Libraries/CMSIS/Include/core_cmInstr.h **** /** \brief  Unsigned Saturate
 233:/home/junpei/workspace/arm/F4_Discovery_Template/Libraries/CMSIS/Include/core_cmInstr.h **** 
 234:/home/junpei/workspace/arm/F4_Discovery_Template/Libraries/CMSIS/Include/core_cmInstr.h ****     This function saturates an unsigned value.
 235:/home/junpei/workspace/arm/F4_Discovery_Template/Libraries/CMSIS/Include/core_cmInstr.h **** 
 236:/home/junpei/workspace/arm/F4_Discovery_Template/Libraries/CMSIS/Include/core_cmInstr.h ****     \param [in]  value  Value to be saturated
 237:/home/junpei/workspace/arm/F4_Discovery_Template/Libraries/CMSIS/Include/core_cmInstr.h ****     \param [in]    sat  Bit position to saturate to (0..31)
 238:/home/junpei/workspace/arm/F4_Discovery_Template/Libraries/CMSIS/Include/core_cmInstr.h ****     \return             Saturated value
 239:/home/junpei/workspace/arm/F4_Discovery_Template/Libraries/CMSIS/Include/core_cmInstr.h ****  */
 240:/home/junpei/workspace/arm/F4_Discovery_Template/Libraries/CMSIS/Include/core_cmInstr.h **** #define __USAT                            __usat
 241:/home/junpei/workspace/arm/F4_Discovery_Template/Libraries/CMSIS/Include/core_cmInstr.h **** 
 242:/home/junpei/workspace/arm/F4_Discovery_Template/Libraries/CMSIS/Include/core_cmInstr.h **** 
 243:/home/junpei/workspace/arm/F4_Discovery_Template/Libraries/CMSIS/Include/core_cmInstr.h **** /** \brief  Count leading zeros
 244:/home/junpei/workspace/arm/F4_Discovery_Template/Libraries/CMSIS/Include/core_cmInstr.h **** 
 245:/home/junpei/workspace/arm/F4_Discovery_Template/Libraries/CMSIS/Include/core_cmInstr.h ****     This function counts the number of leading zeros of a data value.
 246:/home/junpei/workspace/arm/F4_Discovery_Template/Libraries/CMSIS/Include/core_cmInstr.h **** 
 247:/home/junpei/workspace/arm/F4_Discovery_Template/Libraries/CMSIS/Include/core_cmInstr.h ****     \param [in]  value  Value to count the leading zeros
 248:/home/junpei/workspace/arm/F4_Discovery_Template/Libraries/CMSIS/Include/core_cmInstr.h ****     \return             number of leading zeros in value
 249:/home/junpei/workspace/arm/F4_Discovery_Template/Libraries/CMSIS/Include/core_cmInstr.h ****  */
 250:/home/junpei/workspace/arm/F4_Discovery_Template/Libraries/CMSIS/Include/core_cmInstr.h **** #define __CLZ                             __clz 
 251:/home/junpei/workspace/arm/F4_Discovery_Template/Libraries/CMSIS/Include/core_cmInstr.h **** 
 252:/home/junpei/workspace/arm/F4_Discovery_Template/Libraries/CMSIS/Include/core_cmInstr.h **** #endif /* (__CORTEX_M >= 0x03) */
 253:/home/junpei/workspace/arm/F4_Discovery_Template/Libraries/CMSIS/Include/core_cmInstr.h **** 
 254:/home/junpei/workspace/arm/F4_Discovery_Template/Libraries/CMSIS/Include/core_cmInstr.h **** 
 255:/home/junpei/workspace/arm/F4_Discovery_Template/Libraries/CMSIS/Include/core_cmInstr.h **** 
 256:/home/junpei/workspace/arm/F4_Discovery_Template/Libraries/CMSIS/Include/core_cmInstr.h **** #elif defined ( __ICCARM__ ) /*------------------ ICC Compiler -------------------*/
 257:/home/junpei/workspace/arm/F4_Discovery_Template/Libraries/CMSIS/Include/core_cmInstr.h **** /* IAR iccarm specific functions */
 258:/home/junpei/workspace/arm/F4_Discovery_Template/Libraries/CMSIS/Include/core_cmInstr.h **** 
 259:/home/junpei/workspace/arm/F4_Discovery_Template/Libraries/CMSIS/Include/core_cmInstr.h **** #include <cmsis_iar.h>
 260:/home/junpei/workspace/arm/F4_Discovery_Template/Libraries/CMSIS/Include/core_cmInstr.h **** 
 261:/home/junpei/workspace/arm/F4_Discovery_Template/Libraries/CMSIS/Include/core_cmInstr.h **** 
 262:/home/junpei/workspace/arm/F4_Discovery_Template/Libraries/CMSIS/Include/core_cmInstr.h **** #elif defined ( __GNUC__ ) /*------------------ GNU Compiler ---------------------*/
 263:/home/junpei/workspace/arm/F4_Discovery_Template/Libraries/CMSIS/Include/core_cmInstr.h **** /* GNU gcc specific functions */
 264:/home/junpei/workspace/arm/F4_Discovery_Template/Libraries/CMSIS/Include/core_cmInstr.h **** 
 265:/home/junpei/workspace/arm/F4_Discovery_Template/Libraries/CMSIS/Include/core_cmInstr.h **** /** \brief  No Operation
 266:/home/junpei/workspace/arm/F4_Discovery_Template/Libraries/CMSIS/Include/core_cmInstr.h **** 
 267:/home/junpei/workspace/arm/F4_Discovery_Template/Libraries/CMSIS/Include/core_cmInstr.h ****     No Operation does nothing. This instruction can be used for code alignment purposes.
 268:/home/junpei/workspace/arm/F4_Discovery_Template/Libraries/CMSIS/Include/core_cmInstr.h ****  */
 269:/home/junpei/workspace/arm/F4_Discovery_Template/Libraries/CMSIS/Include/core_cmInstr.h **** __attribute__( ( always_inline ) ) static __INLINE void __NOP(void)
 270:/home/junpei/workspace/arm/F4_Discovery_Template/Libraries/CMSIS/Include/core_cmInstr.h **** {
 271:/home/junpei/workspace/arm/F4_Discovery_Template/Libraries/CMSIS/Include/core_cmInstr.h ****   __ASM volatile ("nop");
 272:/home/junpei/workspace/arm/F4_Discovery_Template/Libraries/CMSIS/Include/core_cmInstr.h **** }
 273:/home/junpei/workspace/arm/F4_Discovery_Template/Libraries/CMSIS/Include/core_cmInstr.h **** 
 274:/home/junpei/workspace/arm/F4_Discovery_Template/Libraries/CMSIS/Include/core_cmInstr.h **** 
 275:/home/junpei/workspace/arm/F4_Discovery_Template/Libraries/CMSIS/Include/core_cmInstr.h **** /** \brief  Wait For Interrupt
 276:/home/junpei/workspace/arm/F4_Discovery_Template/Libraries/CMSIS/Include/core_cmInstr.h **** 
 277:/home/junpei/workspace/arm/F4_Discovery_Template/Libraries/CMSIS/Include/core_cmInstr.h ****     Wait For Interrupt is a hint instruction that suspends execution
 278:/home/junpei/workspace/arm/F4_Discovery_Template/Libraries/CMSIS/Include/core_cmInstr.h ****     until one of a number of events occurs.
 279:/home/junpei/workspace/arm/F4_Discovery_Template/Libraries/CMSIS/Include/core_cmInstr.h ****  */
 280:/home/junpei/workspace/arm/F4_Discovery_Template/Libraries/CMSIS/Include/core_cmInstr.h **** __attribute__( ( always_inline ) ) static __INLINE void __WFI(void)
 281:/home/junpei/workspace/arm/F4_Discovery_Template/Libraries/CMSIS/Include/core_cmInstr.h **** {
 282:/home/junpei/workspace/arm/F4_Discovery_Template/Libraries/CMSIS/Include/core_cmInstr.h ****   __ASM volatile ("wfi");
 283:/home/junpei/workspace/arm/F4_Discovery_Template/Libraries/CMSIS/Include/core_cmInstr.h **** }
 284:/home/junpei/workspace/arm/F4_Discovery_Template/Libraries/CMSIS/Include/core_cmInstr.h **** 
 285:/home/junpei/workspace/arm/F4_Discovery_Template/Libraries/CMSIS/Include/core_cmInstr.h **** 
 286:/home/junpei/workspace/arm/F4_Discovery_Template/Libraries/CMSIS/Include/core_cmInstr.h **** /** \brief  Wait For Event
 287:/home/junpei/workspace/arm/F4_Discovery_Template/Libraries/CMSIS/Include/core_cmInstr.h **** 
 288:/home/junpei/workspace/arm/F4_Discovery_Template/Libraries/CMSIS/Include/core_cmInstr.h ****     Wait For Event is a hint instruction that permits the processor to enter
 289:/home/junpei/workspace/arm/F4_Discovery_Template/Libraries/CMSIS/Include/core_cmInstr.h ****     a low-power state until one of a number of events occurs.
 290:/home/junpei/workspace/arm/F4_Discovery_Template/Libraries/CMSIS/Include/core_cmInstr.h ****  */
 291:/home/junpei/workspace/arm/F4_Discovery_Template/Libraries/CMSIS/Include/core_cmInstr.h **** __attribute__( ( always_inline ) ) static __INLINE void __WFE(void)
 292:/home/junpei/workspace/arm/F4_Discovery_Template/Libraries/CMSIS/Include/core_cmInstr.h **** {
 293:/home/junpei/workspace/arm/F4_Discovery_Template/Libraries/CMSIS/Include/core_cmInstr.h ****   __ASM volatile ("wfe");
 294:/home/junpei/workspace/arm/F4_Discovery_Template/Libraries/CMSIS/Include/core_cmInstr.h **** }
 295:/home/junpei/workspace/arm/F4_Discovery_Template/Libraries/CMSIS/Include/core_cmInstr.h **** 
 296:/home/junpei/workspace/arm/F4_Discovery_Template/Libraries/CMSIS/Include/core_cmInstr.h **** 
 297:/home/junpei/workspace/arm/F4_Discovery_Template/Libraries/CMSIS/Include/core_cmInstr.h **** /** \brief  Send Event
 298:/home/junpei/workspace/arm/F4_Discovery_Template/Libraries/CMSIS/Include/core_cmInstr.h **** 
 299:/home/junpei/workspace/arm/F4_Discovery_Template/Libraries/CMSIS/Include/core_cmInstr.h ****     Send Event is a hint instruction. It causes an event to be signaled to the CPU.
 300:/home/junpei/workspace/arm/F4_Discovery_Template/Libraries/CMSIS/Include/core_cmInstr.h ****  */
 301:/home/junpei/workspace/arm/F4_Discovery_Template/Libraries/CMSIS/Include/core_cmInstr.h **** __attribute__( ( always_inline ) ) static __INLINE void __SEV(void)
 302:/home/junpei/workspace/arm/F4_Discovery_Template/Libraries/CMSIS/Include/core_cmInstr.h **** {
 303:/home/junpei/workspace/arm/F4_Discovery_Template/Libraries/CMSIS/Include/core_cmInstr.h ****   __ASM volatile ("sev");
 304:/home/junpei/workspace/arm/F4_Discovery_Template/Libraries/CMSIS/Include/core_cmInstr.h **** }
 305:/home/junpei/workspace/arm/F4_Discovery_Template/Libraries/CMSIS/Include/core_cmInstr.h **** 
 306:/home/junpei/workspace/arm/F4_Discovery_Template/Libraries/CMSIS/Include/core_cmInstr.h **** 
 307:/home/junpei/workspace/arm/F4_Discovery_Template/Libraries/CMSIS/Include/core_cmInstr.h **** /** \brief  Instruction Synchronization Barrier
 308:/home/junpei/workspace/arm/F4_Discovery_Template/Libraries/CMSIS/Include/core_cmInstr.h **** 
 309:/home/junpei/workspace/arm/F4_Discovery_Template/Libraries/CMSIS/Include/core_cmInstr.h ****     Instruction Synchronization Barrier flushes the pipeline in the processor, 
 310:/home/junpei/workspace/arm/F4_Discovery_Template/Libraries/CMSIS/Include/core_cmInstr.h ****     so that all instructions following the ISB are fetched from cache or 
 311:/home/junpei/workspace/arm/F4_Discovery_Template/Libraries/CMSIS/Include/core_cmInstr.h ****     memory, after the instruction has been completed.
 312:/home/junpei/workspace/arm/F4_Discovery_Template/Libraries/CMSIS/Include/core_cmInstr.h ****  */
 313:/home/junpei/workspace/arm/F4_Discovery_Template/Libraries/CMSIS/Include/core_cmInstr.h **** __attribute__( ( always_inline ) ) static __INLINE void __ISB(void)
 314:/home/junpei/workspace/arm/F4_Discovery_Template/Libraries/CMSIS/Include/core_cmInstr.h **** {
 315:/home/junpei/workspace/arm/F4_Discovery_Template/Libraries/CMSIS/Include/core_cmInstr.h ****   __ASM volatile ("isb");
 316:/home/junpei/workspace/arm/F4_Discovery_Template/Libraries/CMSIS/Include/core_cmInstr.h **** }
 317:/home/junpei/workspace/arm/F4_Discovery_Template/Libraries/CMSIS/Include/core_cmInstr.h **** 
 318:/home/junpei/workspace/arm/F4_Discovery_Template/Libraries/CMSIS/Include/core_cmInstr.h **** 
 319:/home/junpei/workspace/arm/F4_Discovery_Template/Libraries/CMSIS/Include/core_cmInstr.h **** /** \brief  Data Synchronization Barrier
 320:/home/junpei/workspace/arm/F4_Discovery_Template/Libraries/CMSIS/Include/core_cmInstr.h **** 
 321:/home/junpei/workspace/arm/F4_Discovery_Template/Libraries/CMSIS/Include/core_cmInstr.h ****     This function acts as a special kind of Data Memory Barrier. 
 322:/home/junpei/workspace/arm/F4_Discovery_Template/Libraries/CMSIS/Include/core_cmInstr.h ****     It completes when all explicit memory accesses before this instruction complete.
 323:/home/junpei/workspace/arm/F4_Discovery_Template/Libraries/CMSIS/Include/core_cmInstr.h ****  */
 324:/home/junpei/workspace/arm/F4_Discovery_Template/Libraries/CMSIS/Include/core_cmInstr.h **** __attribute__( ( always_inline ) ) static __INLINE void __DSB(void)
 325:/home/junpei/workspace/arm/F4_Discovery_Template/Libraries/CMSIS/Include/core_cmInstr.h **** {
 326:/home/junpei/workspace/arm/F4_Discovery_Template/Libraries/CMSIS/Include/core_cmInstr.h ****   __ASM volatile ("dsb");
 327:/home/junpei/workspace/arm/F4_Discovery_Template/Libraries/CMSIS/Include/core_cmInstr.h **** }
 328:/home/junpei/workspace/arm/F4_Discovery_Template/Libraries/CMSIS/Include/core_cmInstr.h **** 
 329:/home/junpei/workspace/arm/F4_Discovery_Template/Libraries/CMSIS/Include/core_cmInstr.h **** 
 330:/home/junpei/workspace/arm/F4_Discovery_Template/Libraries/CMSIS/Include/core_cmInstr.h **** /** \brief  Data Memory Barrier
 331:/home/junpei/workspace/arm/F4_Discovery_Template/Libraries/CMSIS/Include/core_cmInstr.h **** 
 332:/home/junpei/workspace/arm/F4_Discovery_Template/Libraries/CMSIS/Include/core_cmInstr.h ****     This function ensures the apparent order of the explicit memory operations before 
 333:/home/junpei/workspace/arm/F4_Discovery_Template/Libraries/CMSIS/Include/core_cmInstr.h ****     and after the instruction, without ensuring their completion.
 334:/home/junpei/workspace/arm/F4_Discovery_Template/Libraries/CMSIS/Include/core_cmInstr.h ****  */
 335:/home/junpei/workspace/arm/F4_Discovery_Template/Libraries/CMSIS/Include/core_cmInstr.h **** __attribute__( ( always_inline ) ) static __INLINE void __DMB(void)
 336:/home/junpei/workspace/arm/F4_Discovery_Template/Libraries/CMSIS/Include/core_cmInstr.h **** {
 337:/home/junpei/workspace/arm/F4_Discovery_Template/Libraries/CMSIS/Include/core_cmInstr.h ****   __ASM volatile ("dmb");
 338:/home/junpei/workspace/arm/F4_Discovery_Template/Libraries/CMSIS/Include/core_cmInstr.h **** }
 339:/home/junpei/workspace/arm/F4_Discovery_Template/Libraries/CMSIS/Include/core_cmInstr.h **** 
 340:/home/junpei/workspace/arm/F4_Discovery_Template/Libraries/CMSIS/Include/core_cmInstr.h **** 
 341:/home/junpei/workspace/arm/F4_Discovery_Template/Libraries/CMSIS/Include/core_cmInstr.h **** /** \brief  Reverse byte order (32 bit)
 342:/home/junpei/workspace/arm/F4_Discovery_Template/Libraries/CMSIS/Include/core_cmInstr.h **** 
 343:/home/junpei/workspace/arm/F4_Discovery_Template/Libraries/CMSIS/Include/core_cmInstr.h ****     This function reverses the byte order in integer value.
 344:/home/junpei/workspace/arm/F4_Discovery_Template/Libraries/CMSIS/Include/core_cmInstr.h **** 
 345:/home/junpei/workspace/arm/F4_Discovery_Template/Libraries/CMSIS/Include/core_cmInstr.h ****     \param [in]    value  Value to reverse
 346:/home/junpei/workspace/arm/F4_Discovery_Template/Libraries/CMSIS/Include/core_cmInstr.h ****     \return               Reversed value
 347:/home/junpei/workspace/arm/F4_Discovery_Template/Libraries/CMSIS/Include/core_cmInstr.h ****  */
 348:/home/junpei/workspace/arm/F4_Discovery_Template/Libraries/CMSIS/Include/core_cmInstr.h **** __attribute__( ( always_inline ) ) static __INLINE uint32_t __REV(uint32_t value)
 349:/home/junpei/workspace/arm/F4_Discovery_Template/Libraries/CMSIS/Include/core_cmInstr.h **** {
 350:/home/junpei/workspace/arm/F4_Discovery_Template/Libraries/CMSIS/Include/core_cmInstr.h ****   uint32_t result;
 351:/home/junpei/workspace/arm/F4_Discovery_Template/Libraries/CMSIS/Include/core_cmInstr.h ****   
 352:/home/junpei/workspace/arm/F4_Discovery_Template/Libraries/CMSIS/Include/core_cmInstr.h ****   __ASM volatile ("rev %0, %1" : "=r" (result) : "r" (value) );
 24704              		.loc 7 352 0
 24705 00e0 BA6D     		ldr	r2, [r7, #88]
 24706              	@ 352 "/home/junpei/workspace/arm/F4_Discovery_Template/Libraries/CMSIS/Include/core_cmInstr.h" 1
 24707 00e2 14BA     		rev r4, r2
 24708              	@ 0 "" 2
 24709              		.thumb
 24710 00e4 7C65     		str	r4, [r7, #84]
 353:/home/junpei/workspace/arm/F4_Discovery_Template/Libraries/CMSIS/Include/core_cmInstr.h ****   return(result);
 24711              		.loc 7 353 0
 24712 00e6 7A6D     		ldr	r2, [r7, #84]
 24713              	.LBE19:
 24714              	.LBE18:
 24715              		.loc 1 146 0
 24716 00e8 1A60     		str	r2, [r3, #0]
 147:../Libraries/STM32F4xx_StdPeriph_Driver/src/stm32f4xx_hash_md5.c ****     outputaddr+=4;
 24717              		.loc 1 147 0
 24718 00ea FB6D     		ldr	r3, [r7, #92]
 24719 00ec 03F10403 		add	r3, r3, #4
 24720 00f0 FB65     		str	r3, [r7, #92]
 148:../Libraries/STM32F4xx_StdPeriph_Driver/src/stm32f4xx_hash_md5.c ****     *(uint32_t*)(outputaddr)  = __REV(MD5_MessageDigest.Data[1]);
 24721              		.loc 1 148 0
 24722 00f2 FB6D     		ldr	r3, [r7, #92]
 24723 00f4 FA69     		ldr	r2, [r7, #28]
 24724 00f6 3A65     		str	r2, [r7, #80]
 24725              	.LBB20:
 24726              	.LBB21:
 352:/home/junpei/workspace/arm/F4_Discovery_Template/Libraries/CMSIS/Include/core_cmInstr.h ****   __ASM volatile ("rev %0, %1" : "=r" (result) : "r" (value) );
 24727              		.loc 7 352 0
 24728 00f8 3A6D     		ldr	r2, [r7, #80]
 24729              	@ 352 "/home/junpei/workspace/arm/F4_Discovery_Template/Libraries/CMSIS/Include/core_cmInstr.h" 1
 24730 00fa 14BA     		rev r4, r2
 24731              	@ 0 "" 2
 24732              		.thumb
 24733 00fc FC64     		str	r4, [r7, #76]
 24734              		.loc 7 353 0
 24735 00fe FA6C     		ldr	r2, [r7, #76]
 24736              	.LBE21:
 24737              	.LBE20:
 24738              		.loc 1 148 0
 24739 0100 1A60     		str	r2, [r3, #0]
 149:../Libraries/STM32F4xx_StdPeriph_Driver/src/stm32f4xx_hash_md5.c ****     outputaddr+=4;
 24740              		.loc 1 149 0
 24741 0102 FB6D     		ldr	r3, [r7, #92]
 24742 0104 03F10403 		add	r3, r3, #4
 24743 0108 FB65     		str	r3, [r7, #92]
 150:../Libraries/STM32F4xx_StdPeriph_Driver/src/stm32f4xx_hash_md5.c ****     *(uint32_t*)(outputaddr)  = __REV(MD5_MessageDigest.Data[2]);
 24744              		.loc 1 150 0
 24745 010a FB6D     		ldr	r3, [r7, #92]
 24746 010c 3A6A     		ldr	r2, [r7, #32]
 24747 010e BA64     		str	r2, [r7, #72]
 24748              	.LBB22:
 24749              	.LBB23:
 352:/home/junpei/workspace/arm/F4_Discovery_Template/Libraries/CMSIS/Include/core_cmInstr.h ****   __ASM volatile ("rev %0, %1" : "=r" (result) : "r" (value) );
 24750              		.loc 7 352 0
 24751 0110 BA6C     		ldr	r2, [r7, #72]
 24752              	@ 352 "/home/junpei/workspace/arm/F4_Discovery_Template/Libraries/CMSIS/Include/core_cmInstr.h" 1
 24753 0112 14BA     		rev r4, r2
 24754              	@ 0 "" 2
 24755              		.thumb
 24756 0114 7C64     		str	r4, [r7, #68]
 24757              		.loc 7 353 0
 24758 0116 7A6C     		ldr	r2, [r7, #68]
 24759              	.LBE23:
 24760              	.LBE22:
 24761              		.loc 1 150 0
 24762 0118 1A60     		str	r2, [r3, #0]
 151:../Libraries/STM32F4xx_StdPeriph_Driver/src/stm32f4xx_hash_md5.c ****     outputaddr+=4;
 24763              		.loc 1 151 0
 24764 011a FB6D     		ldr	r3, [r7, #92]
 24765 011c 03F10403 		add	r3, r3, #4
 24766 0120 FB65     		str	r3, [r7, #92]
 152:../Libraries/STM32F4xx_StdPeriph_Driver/src/stm32f4xx_hash_md5.c ****     *(uint32_t*)(outputaddr)  = __REV(MD5_MessageDigest.Data[3]);
 24767              		.loc 1 152 0
 24768 0122 FB6D     		ldr	r3, [r7, #92]
 24769 0124 7A6A     		ldr	r2, [r7, #36]
 24770 0126 3A64     		str	r2, [r7, #64]
 24771              	.LBB24:
 24772              	.LBB25:
 352:/home/junpei/workspace/arm/F4_Discovery_Template/Libraries/CMSIS/Include/core_cmInstr.h ****   __ASM volatile ("rev %0, %1" : "=r" (result) : "r" (value) );
 24773              		.loc 7 352 0
 24774 0128 3A6C     		ldr	r2, [r7, #64]
 24775              	@ 352 "/home/junpei/workspace/arm/F4_Discovery_Template/Libraries/CMSIS/Include/core_cmInstr.h" 1
 24776 012a 14BA     		rev r4, r2
 24777              	@ 0 "" 2
 24778              		.thumb
 24779 012c FC63     		str	r4, [r7, #60]
 24780              		.loc 7 353 0
 24781 012e FA6B     		ldr	r2, [r7, #60]
 24782              	.LBE25:
 24783              	.LBE24:
 24784              		.loc 1 152 0
 24785 0130 1A60     		str	r2, [r3, #0]
 24786              	.L7:
 153:../Libraries/STM32F4xx_StdPeriph_Driver/src/stm32f4xx_hash_md5.c ****   }
 154:../Libraries/STM32F4xx_StdPeriph_Driver/src/stm32f4xx_hash_md5.c ****   return status; 
 24787              		.loc 1 154 0
 24788 0132 97F86B30 		ldrb	r3, [r7, #107]	@ zero_extendqisi2
 155:../Libraries/STM32F4xx_StdPeriph_Driver/src/stm32f4xx_hash_md5.c **** }
 24789              		.loc 1 155 0
 24790 0136 1846     		mov	r0, r3
 24791 0138 07F17407 		add	r7, r7, #116
 24792 013c BD46     		mov	sp, r7
 24793 013e 90BD     		pop	{r4, r7, pc}
 24794              		.cfi_endproc
 24795              	.LFE110:
 24797              		.align	2
 24798              		.global	HMAC_MD5
 24799              		.thumb
 24800              		.thumb_func
 24802              	HMAC_MD5:
 24803              	.LFB111:
 156:../Libraries/STM32F4xx_StdPeriph_Driver/src/stm32f4xx_hash_md5.c **** 
 157:../Libraries/STM32F4xx_StdPeriph_Driver/src/stm32f4xx_hash_md5.c **** /**
 158:../Libraries/STM32F4xx_StdPeriph_Driver/src/stm32f4xx_hash_md5.c ****   * @brief  Compute the HMAC MD5 digest.
 159:../Libraries/STM32F4xx_StdPeriph_Driver/src/stm32f4xx_hash_md5.c ****   * @param  Key: pointer to the Key used for HMAC.
 160:../Libraries/STM32F4xx_StdPeriph_Driver/src/stm32f4xx_hash_md5.c ****   * @param  Keylen: length of the Key used for HMAC.
 161:../Libraries/STM32F4xx_StdPeriph_Driver/src/stm32f4xx_hash_md5.c ****   * @param  Input: pointer to the Input buffer to be treated.
 162:../Libraries/STM32F4xx_StdPeriph_Driver/src/stm32f4xx_hash_md5.c ****   * @param  Ilen: length of the Input buffer.
 163:../Libraries/STM32F4xx_StdPeriph_Driver/src/stm32f4xx_hash_md5.c ****   * @param  Output: the returned digest  
 164:../Libraries/STM32F4xx_StdPeriph_Driver/src/stm32f4xx_hash_md5.c ****   * @retval An ErrorStatus enumeration value:
 165:../Libraries/STM32F4xx_StdPeriph_Driver/src/stm32f4xx_hash_md5.c ****   *          - SUCCESS: digest computation done
 166:../Libraries/STM32F4xx_StdPeriph_Driver/src/stm32f4xx_hash_md5.c ****   *          - ERROR: digest computation failed
 167:../Libraries/STM32F4xx_StdPeriph_Driver/src/stm32f4xx_hash_md5.c ****   */
 168:../Libraries/STM32F4xx_StdPeriph_Driver/src/stm32f4xx_hash_md5.c **** ErrorStatus HMAC_MD5(uint8_t *Key, uint32_t Keylen, uint8_t *Input, 
 169:../Libraries/STM32F4xx_StdPeriph_Driver/src/stm32f4xx_hash_md5.c ****                      uint32_t Ilen, uint8_t Output[16])
 170:../Libraries/STM32F4xx_StdPeriph_Driver/src/stm32f4xx_hash_md5.c **** {
 24804              		.loc 1 170 0
 24805              		.cfi_startproc
 24806              		@ args = 4, pretend = 0, frame = 120
 24807              		@ frame_needed = 1, uses_anonymous_args = 0
 24808 0140 90B5     		push	{r4, r7, lr}
 24809              	.LCFI3:
 24810              		.cfi_def_cfa_offset 12
 24811 0142 9FB0     		sub	sp, sp, #124
 24812              	.LCFI4:
 24813              		.cfi_def_cfa_offset 136
 24814 0144 00AF     		add	r7, sp, #0
 24815              		.cfi_offset 14, -4
 24816              		.cfi_offset 7, -8
 24817              		.cfi_offset 4, -12
 24818              	.LCFI5:
 24819              		.cfi_def_cfa_register 7
 24820 0146 F860     		str	r0, [r7, #12]
 24821 0148 B960     		str	r1, [r7, #8]
 24822 014a 7A60     		str	r2, [r7, #4]
 24823 014c 3B60     		str	r3, [r7, #0]
 171:../Libraries/STM32F4xx_StdPeriph_Driver/src/stm32f4xx_hash_md5.c ****   HASH_InitTypeDef MD5_HASH_InitStructure;
 172:../Libraries/STM32F4xx_StdPeriph_Driver/src/stm32f4xx_hash_md5.c ****   HASH_MsgDigest MD5_MessageDigest;
 173:../Libraries/STM32F4xx_StdPeriph_Driver/src/stm32f4xx_hash_md5.c ****   __IO uint16_t nbvalidbitsdata = 0;
 24824              		.loc 1 173 0
 24825 014e 4FF00003 		mov	r3, #0
 24826 0152 7B83     		strh	r3, [r7, #26]	@ movhi
 174:../Libraries/STM32F4xx_StdPeriph_Driver/src/stm32f4xx_hash_md5.c ****   __IO uint16_t nbvalidbitskey = 0;
 24827              		.loc 1 174 0
 24828 0154 4FF00003 		mov	r3, #0
 24829 0158 3B83     		strh	r3, [r7, #24]	@ movhi
 175:../Libraries/STM32F4xx_StdPeriph_Driver/src/stm32f4xx_hash_md5.c ****   uint32_t i = 0;
 24830              		.loc 1 175 0
 24831 015a 4FF00003 		mov	r3, #0
 24832 015e 7B67     		str	r3, [r7, #116]
 176:../Libraries/STM32F4xx_StdPeriph_Driver/src/stm32f4xx_hash_md5.c ****   __IO uint32_t counter = 0;
 24833              		.loc 1 176 0
 24834 0160 4FF00003 		mov	r3, #0
 24835 0164 7B61     		str	r3, [r7, #20]
 177:../Libraries/STM32F4xx_StdPeriph_Driver/src/stm32f4xx_hash_md5.c ****   uint32_t busystatus = 0;
 24836              		.loc 1 177 0
 24837 0166 4FF00003 		mov	r3, #0
 24838 016a 7B66     		str	r3, [r7, #100]
 178:../Libraries/STM32F4xx_StdPeriph_Driver/src/stm32f4xx_hash_md5.c ****   ErrorStatus status = SUCCESS;
 24839              		.loc 1 178 0
 24840 016c 4FF00103 		mov	r3, #1
 24841 0170 87F87330 		strb	r3, [r7, #115]
 179:../Libraries/STM32F4xx_StdPeriph_Driver/src/stm32f4xx_hash_md5.c ****   uint32_t keyaddr    = (uint32_t)Key;
 24842              		.loc 1 179 0
 24843 0174 FB68     		ldr	r3, [r7, #12]
 24844 0176 FB66     		str	r3, [r7, #108]
 180:../Libraries/STM32F4xx_StdPeriph_Driver/src/stm32f4xx_hash_md5.c ****   uint32_t inputaddr  = (uint32_t)Input;
 24845              		.loc 1 180 0
 24846 0178 7B68     		ldr	r3, [r7, #4]
 24847 017a BB66     		str	r3, [r7, #104]
 181:../Libraries/STM32F4xx_StdPeriph_Driver/src/stm32f4xx_hash_md5.c ****   uint32_t outputaddr = (uint32_t)Output;
 24848              		.loc 1 181 0
 24849 017c D7F88830 		ldr	r3, [r7, #136]
 24850 0180 3B66     		str	r3, [r7, #96]
 182:../Libraries/STM32F4xx_StdPeriph_Driver/src/stm32f4xx_hash_md5.c **** 
 183:../Libraries/STM32F4xx_StdPeriph_Driver/src/stm32f4xx_hash_md5.c ****   /* Number of valid bits in last word of the Input data */
 184:../Libraries/STM32F4xx_StdPeriph_Driver/src/stm32f4xx_hash_md5.c ****   nbvalidbitsdata = 8 * (Ilen % 4);
 24851              		.loc 1 184 0
 24852 0182 3B68     		ldr	r3, [r7, #0]
 24853 0184 9BB2     		uxth	r3, r3
 24854 0186 03F00303 		and	r3, r3, #3
 24855 018a 9BB2     		uxth	r3, r3
 24856 018c 4FEAC303 		lsl	r3, r3, #3
 24857 0190 9BB2     		uxth	r3, r3
 24858 0192 7B83     		strh	r3, [r7, #26]	@ movhi
 185:../Libraries/STM32F4xx_StdPeriph_Driver/src/stm32f4xx_hash_md5.c **** 
 186:../Libraries/STM32F4xx_StdPeriph_Driver/src/stm32f4xx_hash_md5.c ****   /* Number of valid bits in last word of the Key */
 187:../Libraries/STM32F4xx_StdPeriph_Driver/src/stm32f4xx_hash_md5.c ****   nbvalidbitskey = 8 * (Keylen % 4);
 24859              		.loc 1 187 0
 24860 0194 BB68     		ldr	r3, [r7, #8]
 24861 0196 9BB2     		uxth	r3, r3
 24862 0198 03F00303 		and	r3, r3, #3
 24863 019c 9BB2     		uxth	r3, r3
 24864 019e 4FEAC303 		lsl	r3, r3, #3
 24865 01a2 9BB2     		uxth	r3, r3
 24866 01a4 3B83     		strh	r3, [r7, #24]	@ movhi
 188:../Libraries/STM32F4xx_StdPeriph_Driver/src/stm32f4xx_hash_md5.c ****    
 189:../Libraries/STM32F4xx_StdPeriph_Driver/src/stm32f4xx_hash_md5.c ****   /* HASH peripheral initialization */
 190:../Libraries/STM32F4xx_StdPeriph_Driver/src/stm32f4xx_hash_md5.c ****   HASH_DeInit();
 24867              		.loc 1 190 0
 24868 01a6 FFF7FEFF 		bl	HASH_DeInit
 191:../Libraries/STM32F4xx_StdPeriph_Driver/src/stm32f4xx_hash_md5.c **** 
 192:../Libraries/STM32F4xx_StdPeriph_Driver/src/stm32f4xx_hash_md5.c ****   /* HASH Configuration */
 193:../Libraries/STM32F4xx_StdPeriph_Driver/src/stm32f4xx_hash_md5.c ****   MD5_HASH_InitStructure.HASH_AlgoSelection = HASH_AlgoSelection_MD5;
 24869              		.loc 1 193 0
 24870 01aa 4FF08003 		mov	r3, #128
 24871 01ae 3B63     		str	r3, [r7, #48]
 194:../Libraries/STM32F4xx_StdPeriph_Driver/src/stm32f4xx_hash_md5.c ****   MD5_HASH_InitStructure.HASH_AlgoMode = HASH_AlgoMode_HMAC;
 24872              		.loc 1 194 0
 24873 01b0 4FF04003 		mov	r3, #64
 24874 01b4 7B63     		str	r3, [r7, #52]
 195:../Libraries/STM32F4xx_StdPeriph_Driver/src/stm32f4xx_hash_md5.c ****   MD5_HASH_InitStructure.HASH_DataType = HASH_DataType_8b;
 24875              		.loc 1 195 0
 24876 01b6 4FF02003 		mov	r3, #32
 24877 01ba BB63     		str	r3, [r7, #56]
 196:../Libraries/STM32F4xx_StdPeriph_Driver/src/stm32f4xx_hash_md5.c ****   if(Keylen > 64)
 24878              		.loc 1 196 0
 24879 01bc BB68     		ldr	r3, [r7, #8]
 24880 01be 402B     		cmp	r3, #64
 24881 01c0 03D9     		bls	.L9
 197:../Libraries/STM32F4xx_StdPeriph_Driver/src/stm32f4xx_hash_md5.c ****   {
 198:../Libraries/STM32F4xx_StdPeriph_Driver/src/stm32f4xx_hash_md5.c ****     /* HMAC long Key */
 199:../Libraries/STM32F4xx_StdPeriph_Driver/src/stm32f4xx_hash_md5.c ****     MD5_HASH_InitStructure.HASH_HMACKeyType = HASH_HMACKeyType_LongKey;
 24882              		.loc 1 199 0
 24883 01c2 4FF48033 		mov	r3, #65536
 24884 01c6 FB63     		str	r3, [r7, #60]
 24885 01c8 02E0     		b	.L10
 24886              	.L9:
 200:../Libraries/STM32F4xx_StdPeriph_Driver/src/stm32f4xx_hash_md5.c ****   }
 201:../Libraries/STM32F4xx_StdPeriph_Driver/src/stm32f4xx_hash_md5.c ****   else
 202:../Libraries/STM32F4xx_StdPeriph_Driver/src/stm32f4xx_hash_md5.c ****   {
 203:../Libraries/STM32F4xx_StdPeriph_Driver/src/stm32f4xx_hash_md5.c ****     /* HMAC short Key */
 204:../Libraries/STM32F4xx_StdPeriph_Driver/src/stm32f4xx_hash_md5.c ****     MD5_HASH_InitStructure.HASH_HMACKeyType = HASH_HMACKeyType_ShortKey;
 24887              		.loc 1 204 0
 24888 01ca 4FF00003 		mov	r3, #0
 24889 01ce FB63     		str	r3, [r7, #60]
 24890              	.L10:
 205:../Libraries/STM32F4xx_StdPeriph_Driver/src/stm32f4xx_hash_md5.c ****   }
 206:../Libraries/STM32F4xx_StdPeriph_Driver/src/stm32f4xx_hash_md5.c ****   HASH_Init(&MD5_HASH_InitStructure);
 24891              		.loc 1 206 0
 24892 01d0 07F13003 		add	r3, r7, #48
 24893 01d4 1846     		mov	r0, r3
 24894 01d6 FFF7FEFF 		bl	HASH_Init
 207:../Libraries/STM32F4xx_StdPeriph_Driver/src/stm32f4xx_hash_md5.c **** 
 208:../Libraries/STM32F4xx_StdPeriph_Driver/src/stm32f4xx_hash_md5.c ****   /* Configure the number of valid bits in last word of the Key */
 209:../Libraries/STM32F4xx_StdPeriph_Driver/src/stm32f4xx_hash_md5.c ****   HASH_SetLastWordValidBitsNbr(nbvalidbitskey);
 24895              		.loc 1 209 0
 24896 01da 3B8B     		ldrh	r3, [r7, #24]	@ movhi
 24897 01dc 9BB2     		uxth	r3, r3
 24898 01de 1846     		mov	r0, r3
 24899 01e0 FFF7FEFF 		bl	HASH_SetLastWordValidBitsNbr
 210:../Libraries/STM32F4xx_StdPeriph_Driver/src/stm32f4xx_hash_md5.c **** 
 211:../Libraries/STM32F4xx_StdPeriph_Driver/src/stm32f4xx_hash_md5.c ****   /* Write the Key */
 212:../Libraries/STM32F4xx_StdPeriph_Driver/src/stm32f4xx_hash_md5.c ****   for(i=0; i<Keylen; i+=4)
 24900              		.loc 1 212 0
 24901 01e4 4FF00003 		mov	r3, #0
 24902 01e8 7B67     		str	r3, [r7, #116]
 24903 01ea 0CE0     		b	.L11
 24904              	.L12:
 213:../Libraries/STM32F4xx_StdPeriph_Driver/src/stm32f4xx_hash_md5.c ****   {
 214:../Libraries/STM32F4xx_StdPeriph_Driver/src/stm32f4xx_hash_md5.c ****     HASH_DataIn(*(uint32_t*)keyaddr);
 24905              		.loc 1 214 0 discriminator 2
 24906 01ec FB6E     		ldr	r3, [r7, #108]
 24907 01ee 1B68     		ldr	r3, [r3, #0]
 24908 01f0 1846     		mov	r0, r3
 24909 01f2 FFF7FEFF 		bl	HASH_DataIn
 215:../Libraries/STM32F4xx_StdPeriph_Driver/src/stm32f4xx_hash_md5.c ****     keyaddr+=4;
 24910              		.loc 1 215 0 discriminator 2
 24911 01f6 FB6E     		ldr	r3, [r7, #108]
 24912 01f8 03F10403 		add	r3, r3, #4
 24913 01fc FB66     		str	r3, [r7, #108]
 212:../Libraries/STM32F4xx_StdPeriph_Driver/src/stm32f4xx_hash_md5.c ****   for(i=0; i<Keylen; i+=4)
 24914              		.loc 1 212 0 discriminator 2
 24915 01fe 7B6F     		ldr	r3, [r7, #116]
 24916 0200 03F10403 		add	r3, r3, #4
 24917 0204 7B67     		str	r3, [r7, #116]
 24918              	.L11:
 212:../Libraries/STM32F4xx_StdPeriph_Driver/src/stm32f4xx_hash_md5.c ****   for(i=0; i<Keylen; i+=4)
 24919              		.loc 1 212 0 is_stmt 0 discriminator 1
 24920 0206 7A6F     		ldr	r2, [r7, #116]
 24921 0208 BB68     		ldr	r3, [r7, #8]
 24922 020a 9A42     		cmp	r2, r3
 24923 020c EED3     		bcc	.L12
 216:../Libraries/STM32F4xx_StdPeriph_Driver/src/stm32f4xx_hash_md5.c ****   }
 217:../Libraries/STM32F4xx_StdPeriph_Driver/src/stm32f4xx_hash_md5.c ****   
 218:../Libraries/STM32F4xx_StdPeriph_Driver/src/stm32f4xx_hash_md5.c ****   /* Start the HASH processor */
 219:../Libraries/STM32F4xx_StdPeriph_Driver/src/stm32f4xx_hash_md5.c ****   HASH_StartDigest();
 24924              		.loc 1 219 0 is_stmt 1
 24925 020e FFF7FEFF 		bl	HASH_StartDigest
 24926              	.L14:
 220:../Libraries/STM32F4xx_StdPeriph_Driver/src/stm32f4xx_hash_md5.c **** 
 221:../Libraries/STM32F4xx_StdPeriph_Driver/src/stm32f4xx_hash_md5.c ****   /* wait until the Busy flag is RESET */
 222:../Libraries/STM32F4xx_StdPeriph_Driver/src/stm32f4xx_hash_md5.c ****   do
 223:../Libraries/STM32F4xx_StdPeriph_Driver/src/stm32f4xx_hash_md5.c ****   {
 224:../Libraries/STM32F4xx_StdPeriph_Driver/src/stm32f4xx_hash_md5.c ****     busystatus = HASH_GetFlagStatus(HASH_FLAG_BUSY);
 24927              		.loc 1 224 0 discriminator 1
 24928 0212 4FF00800 		mov	r0, #8
 24929 0216 FFF7FEFF 		bl	HASH_GetFlagStatus
 24930 021a 0346     		mov	r3, r0
 24931 021c 7B66     		str	r3, [r7, #100]
 225:../Libraries/STM32F4xx_StdPeriph_Driver/src/stm32f4xx_hash_md5.c ****     counter++;
 24932              		.loc 1 225 0 discriminator 1
 24933 021e 7B69     		ldr	r3, [r7, #20]
 24934 0220 03F10103 		add	r3, r3, #1
 24935 0224 7B61     		str	r3, [r7, #20]
 226:../Libraries/STM32F4xx_StdPeriph_Driver/src/stm32f4xx_hash_md5.c ****   }while ((counter != MD5BUSY_TIMEOUT) && (busystatus != RESET));
 24936              		.loc 1 226 0 discriminator 1
 24937 0226 7B69     		ldr	r3, [r7, #20]
 24938 0228 B3F5803F 		cmp	r3, #65536
 24939 022c 02D0     		beq	.L13
 24940 022e 7B6E     		ldr	r3, [r7, #100]
 24941 0230 002B     		cmp	r3, #0
 24942 0232 EED1     		bne	.L14
 24943              	.L13:
 227:../Libraries/STM32F4xx_StdPeriph_Driver/src/stm32f4xx_hash_md5.c **** 
 228:../Libraries/STM32F4xx_StdPeriph_Driver/src/stm32f4xx_hash_md5.c ****   if (busystatus != RESET)
 24944              		.loc 1 228 0
 24945 0234 7B6E     		ldr	r3, [r7, #100]
 24946 0236 002B     		cmp	r3, #0
 24947 0238 04D0     		beq	.L15
 229:../Libraries/STM32F4xx_StdPeriph_Driver/src/stm32f4xx_hash_md5.c ****   {
 230:../Libraries/STM32F4xx_StdPeriph_Driver/src/stm32f4xx_hash_md5.c ****      status = ERROR;
 24948              		.loc 1 230 0
 24949 023a 4FF00003 		mov	r3, #0
 24950 023e 87F87330 		strb	r3, [r7, #115]
 24951 0242 A2E0     		b	.L16
 24952              	.L15:
 231:../Libraries/STM32F4xx_StdPeriph_Driver/src/stm32f4xx_hash_md5.c ****   }
 232:../Libraries/STM32F4xx_StdPeriph_Driver/src/stm32f4xx_hash_md5.c ****   else
 233:../Libraries/STM32F4xx_StdPeriph_Driver/src/stm32f4xx_hash_md5.c ****   {
 234:../Libraries/STM32F4xx_StdPeriph_Driver/src/stm32f4xx_hash_md5.c ****     /* Configure the number of valid bits in last word of the Input data */
 235:../Libraries/STM32F4xx_StdPeriph_Driver/src/stm32f4xx_hash_md5.c ****     HASH_SetLastWordValidBitsNbr(nbvalidbitsdata);
 24953              		.loc 1 235 0
 24954 0244 7B8B     		ldrh	r3, [r7, #26]	@ movhi
 24955 0246 9BB2     		uxth	r3, r3
 24956 0248 1846     		mov	r0, r3
 24957 024a FFF7FEFF 		bl	HASH_SetLastWordValidBitsNbr
 236:../Libraries/STM32F4xx_StdPeriph_Driver/src/stm32f4xx_hash_md5.c **** 
 237:../Libraries/STM32F4xx_StdPeriph_Driver/src/stm32f4xx_hash_md5.c ****     /* Write the Input block in the IN FIFO */
 238:../Libraries/STM32F4xx_StdPeriph_Driver/src/stm32f4xx_hash_md5.c ****     for(i=0; i<Ilen; i+=4)
 24958              		.loc 1 238 0
 24959 024e 4FF00003 		mov	r3, #0
 24960 0252 7B67     		str	r3, [r7, #116]
 24961 0254 0CE0     		b	.L17
 24962              	.L18:
 239:../Libraries/STM32F4xx_StdPeriph_Driver/src/stm32f4xx_hash_md5.c ****     {
 240:../Libraries/STM32F4xx_StdPeriph_Driver/src/stm32f4xx_hash_md5.c ****       HASH_DataIn(*(uint32_t*)inputaddr);
 24963              		.loc 1 240 0 discriminator 2
 24964 0256 BB6E     		ldr	r3, [r7, #104]
 24965 0258 1B68     		ldr	r3, [r3, #0]
 24966 025a 1846     		mov	r0, r3
 24967 025c FFF7FEFF 		bl	HASH_DataIn
 241:../Libraries/STM32F4xx_StdPeriph_Driver/src/stm32f4xx_hash_md5.c ****       inputaddr+=4;
 24968              		.loc 1 241 0 discriminator 2
 24969 0260 BB6E     		ldr	r3, [r7, #104]
 24970 0262 03F10403 		add	r3, r3, #4
 24971 0266 BB66     		str	r3, [r7, #104]
 238:../Libraries/STM32F4xx_StdPeriph_Driver/src/stm32f4xx_hash_md5.c ****     for(i=0; i<Ilen; i+=4)
 24972              		.loc 1 238 0 discriminator 2
 24973 0268 7B6F     		ldr	r3, [r7, #116]
 24974 026a 03F10403 		add	r3, r3, #4
 24975 026e 7B67     		str	r3, [r7, #116]
 24976              	.L17:
 238:../Libraries/STM32F4xx_StdPeriph_Driver/src/stm32f4xx_hash_md5.c ****     for(i=0; i<Ilen; i+=4)
 24977              		.loc 1 238 0 is_stmt 0 discriminator 1
 24978 0270 7A6F     		ldr	r2, [r7, #116]
 24979 0272 3B68     		ldr	r3, [r7, #0]
 24980 0274 9A42     		cmp	r2, r3
 24981 0276 EED3     		bcc	.L18
 242:../Libraries/STM32F4xx_StdPeriph_Driver/src/stm32f4xx_hash_md5.c ****     }
 243:../Libraries/STM32F4xx_StdPeriph_Driver/src/stm32f4xx_hash_md5.c **** 
 244:../Libraries/STM32F4xx_StdPeriph_Driver/src/stm32f4xx_hash_md5.c ****     /* Start the HASH processor */
 245:../Libraries/STM32F4xx_StdPeriph_Driver/src/stm32f4xx_hash_md5.c ****     HASH_StartDigest();
 24982              		.loc 1 245 0 is_stmt 1
 24983 0278 FFF7FEFF 		bl	HASH_StartDigest
 246:../Libraries/STM32F4xx_StdPeriph_Driver/src/stm32f4xx_hash_md5.c **** 
 247:../Libraries/STM32F4xx_StdPeriph_Driver/src/stm32f4xx_hash_md5.c ****     /* wait until the Busy flag is RESET */
 248:../Libraries/STM32F4xx_StdPeriph_Driver/src/stm32f4xx_hash_md5.c ****     counter =0;
 24984              		.loc 1 248 0
 24985 027c 4FF00003 		mov	r3, #0
 24986 0280 7B61     		str	r3, [r7, #20]
 24987              	.L20:
 249:../Libraries/STM32F4xx_StdPeriph_Driver/src/stm32f4xx_hash_md5.c ****     do
 250:../Libraries/STM32F4xx_StdPeriph_Driver/src/stm32f4xx_hash_md5.c ****     {
 251:../Libraries/STM32F4xx_StdPeriph_Driver/src/stm32f4xx_hash_md5.c ****        busystatus = HASH_GetFlagStatus(HASH_FLAG_BUSY);
 24988              		.loc 1 251 0 discriminator 1
 24989 0282 4FF00800 		mov	r0, #8
 24990 0286 FFF7FEFF 		bl	HASH_GetFlagStatus
 24991 028a 0346     		mov	r3, r0
 24992 028c 7B66     		str	r3, [r7, #100]
 252:../Libraries/STM32F4xx_StdPeriph_Driver/src/stm32f4xx_hash_md5.c ****        counter++;
 24993              		.loc 1 252 0 discriminator 1
 24994 028e 7B69     		ldr	r3, [r7, #20]
 24995 0290 03F10103 		add	r3, r3, #1
 24996 0294 7B61     		str	r3, [r7, #20]
 253:../Libraries/STM32F4xx_StdPeriph_Driver/src/stm32f4xx_hash_md5.c ****     }while ((counter != MD5BUSY_TIMEOUT) && (busystatus != RESET));
 24997              		.loc 1 253 0 discriminator 1
 24998 0296 7B69     		ldr	r3, [r7, #20]
 24999 0298 B3F5803F 		cmp	r3, #65536
 25000 029c 02D0     		beq	.L19
 25001 029e 7B6E     		ldr	r3, [r7, #100]
 25002 02a0 002B     		cmp	r3, #0
 25003 02a2 EED1     		bne	.L20
 25004              	.L19:
 254:../Libraries/STM32F4xx_StdPeriph_Driver/src/stm32f4xx_hash_md5.c **** 
 255:../Libraries/STM32F4xx_StdPeriph_Driver/src/stm32f4xx_hash_md5.c ****     if (busystatus != RESET)
 25005              		.loc 1 255 0
 25006 02a4 7B6E     		ldr	r3, [r7, #100]
 25007 02a6 002B     		cmp	r3, #0
 25008 02a8 04D0     		beq	.L21
 256:../Libraries/STM32F4xx_StdPeriph_Driver/src/stm32f4xx_hash_md5.c ****     {
 257:../Libraries/STM32F4xx_StdPeriph_Driver/src/stm32f4xx_hash_md5.c ****       status = ERROR;
 25009              		.loc 1 257 0
 25010 02aa 4FF00003 		mov	r3, #0
 25011 02ae 87F87330 		strb	r3, [r7, #115]
 25012 02b2 6AE0     		b	.L16
 25013              	.L21:
 258:../Libraries/STM32F4xx_StdPeriph_Driver/src/stm32f4xx_hash_md5.c ****     }
 259:../Libraries/STM32F4xx_StdPeriph_Driver/src/stm32f4xx_hash_md5.c ****     else
 260:../Libraries/STM32F4xx_StdPeriph_Driver/src/stm32f4xx_hash_md5.c ****     {  
 261:../Libraries/STM32F4xx_StdPeriph_Driver/src/stm32f4xx_hash_md5.c ****       /* Configure the number of valid bits in last word of the Key */
 262:../Libraries/STM32F4xx_StdPeriph_Driver/src/stm32f4xx_hash_md5.c ****       HASH_SetLastWordValidBitsNbr(nbvalidbitskey);
 25014              		.loc 1 262 0
 25015 02b4 3B8B     		ldrh	r3, [r7, #24]	@ movhi
 25016 02b6 9BB2     		uxth	r3, r3
 25017 02b8 1846     		mov	r0, r3
 25018 02ba FFF7FEFF 		bl	HASH_SetLastWordValidBitsNbr
 263:../Libraries/STM32F4xx_StdPeriph_Driver/src/stm32f4xx_hash_md5.c **** 
 264:../Libraries/STM32F4xx_StdPeriph_Driver/src/stm32f4xx_hash_md5.c ****       /* Write the Key */
 265:../Libraries/STM32F4xx_StdPeriph_Driver/src/stm32f4xx_hash_md5.c ****       keyaddr = (uint32_t)Key;
 25019              		.loc 1 265 0
 25020 02be FB68     		ldr	r3, [r7, #12]
 25021 02c0 FB66     		str	r3, [r7, #108]
 266:../Libraries/STM32F4xx_StdPeriph_Driver/src/stm32f4xx_hash_md5.c ****       for(i=0; i<Keylen; i+=4)
 25022              		.loc 1 266 0
 25023 02c2 4FF00003 		mov	r3, #0
 25024 02c6 7B67     		str	r3, [r7, #116]
 25025 02c8 0CE0     		b	.L22
 25026              	.L23:
 267:../Libraries/STM32F4xx_StdPeriph_Driver/src/stm32f4xx_hash_md5.c ****       {
 268:../Libraries/STM32F4xx_StdPeriph_Driver/src/stm32f4xx_hash_md5.c ****         HASH_DataIn(*(uint32_t*)keyaddr);
 25027              		.loc 1 268 0 discriminator 2
 25028 02ca FB6E     		ldr	r3, [r7, #108]
 25029 02cc 1B68     		ldr	r3, [r3, #0]
 25030 02ce 1846     		mov	r0, r3
 25031 02d0 FFF7FEFF 		bl	HASH_DataIn
 269:../Libraries/STM32F4xx_StdPeriph_Driver/src/stm32f4xx_hash_md5.c ****         keyaddr+=4;
 25032              		.loc 1 269 0 discriminator 2
 25033 02d4 FB6E     		ldr	r3, [r7, #108]
 25034 02d6 03F10403 		add	r3, r3, #4
 25035 02da FB66     		str	r3, [r7, #108]
 266:../Libraries/STM32F4xx_StdPeriph_Driver/src/stm32f4xx_hash_md5.c ****       for(i=0; i<Keylen; i+=4)
 25036              		.loc 1 266 0 discriminator 2
 25037 02dc 7B6F     		ldr	r3, [r7, #116]
 25038 02de 03F10403 		add	r3, r3, #4
 25039 02e2 7B67     		str	r3, [r7, #116]
 25040              	.L22:
 266:../Libraries/STM32F4xx_StdPeriph_Driver/src/stm32f4xx_hash_md5.c ****       for(i=0; i<Keylen; i+=4)
 25041              		.loc 1 266 0 is_stmt 0 discriminator 1
 25042 02e4 7A6F     		ldr	r2, [r7, #116]
 25043 02e6 BB68     		ldr	r3, [r7, #8]
 25044 02e8 9A42     		cmp	r2, r3
 25045 02ea EED3     		bcc	.L23
 270:../Libraries/STM32F4xx_StdPeriph_Driver/src/stm32f4xx_hash_md5.c ****       }
 271:../Libraries/STM32F4xx_StdPeriph_Driver/src/stm32f4xx_hash_md5.c ****   
 272:../Libraries/STM32F4xx_StdPeriph_Driver/src/stm32f4xx_hash_md5.c ****        /* Start the HASH processor */
 273:../Libraries/STM32F4xx_StdPeriph_Driver/src/stm32f4xx_hash_md5.c ****        HASH_StartDigest();
 25046              		.loc 1 273 0 is_stmt 1
 25047 02ec FFF7FEFF 		bl	HASH_StartDigest
 274:../Libraries/STM32F4xx_StdPeriph_Driver/src/stm32f4xx_hash_md5.c **** 
 275:../Libraries/STM32F4xx_StdPeriph_Driver/src/stm32f4xx_hash_md5.c ****        /* wait until the Busy flag is RESET */
 276:../Libraries/STM32F4xx_StdPeriph_Driver/src/stm32f4xx_hash_md5.c ****        counter =0;
 25048              		.loc 1 276 0
 25049 02f0 4FF00003 		mov	r3, #0
 25050 02f4 7B61     		str	r3, [r7, #20]
 25051              	.L25:
 277:../Libraries/STM32F4xx_StdPeriph_Driver/src/stm32f4xx_hash_md5.c ****        do
 278:../Libraries/STM32F4xx_StdPeriph_Driver/src/stm32f4xx_hash_md5.c ****        {
 279:../Libraries/STM32F4xx_StdPeriph_Driver/src/stm32f4xx_hash_md5.c ****           busystatus = HASH_GetFlagStatus(HASH_FLAG_BUSY);
 25052              		.loc 1 279 0 discriminator 1
 25053 02f6 4FF00800 		mov	r0, #8
 25054 02fa FFF7FEFF 		bl	HASH_GetFlagStatus
 25055 02fe 0346     		mov	r3, r0
 25056 0300 7B66     		str	r3, [r7, #100]
 280:../Libraries/STM32F4xx_StdPeriph_Driver/src/stm32f4xx_hash_md5.c ****           counter++;
 25057              		.loc 1 280 0 discriminator 1
 25058 0302 7B69     		ldr	r3, [r7, #20]
 25059 0304 03F10103 		add	r3, r3, #1
 25060 0308 7B61     		str	r3, [r7, #20]
 281:../Libraries/STM32F4xx_StdPeriph_Driver/src/stm32f4xx_hash_md5.c ****       }while ((counter != MD5BUSY_TIMEOUT) && (busystatus != RESET));
 25061              		.loc 1 281 0 discriminator 1
 25062 030a 7B69     		ldr	r3, [r7, #20]
 25063 030c B3F5803F 		cmp	r3, #65536
 25064 0310 02D0     		beq	.L24
 25065 0312 7B6E     		ldr	r3, [r7, #100]
 25066 0314 002B     		cmp	r3, #0
 25067 0316 EED1     		bne	.L25
 25068              	.L24:
 282:../Libraries/STM32F4xx_StdPeriph_Driver/src/stm32f4xx_hash_md5.c **** 
 283:../Libraries/STM32F4xx_StdPeriph_Driver/src/stm32f4xx_hash_md5.c ****       if (busystatus != RESET)
 25069              		.loc 1 283 0
 25070 0318 7B6E     		ldr	r3, [r7, #100]
 25071 031a 002B     		cmp	r3, #0
 25072 031c 04D0     		beq	.L26
 284:../Libraries/STM32F4xx_StdPeriph_Driver/src/stm32f4xx_hash_md5.c ****       {
 285:../Libraries/STM32F4xx_StdPeriph_Driver/src/stm32f4xx_hash_md5.c ****          status = ERROR;
 25073              		.loc 1 285 0
 25074 031e 4FF00003 		mov	r3, #0
 25075 0322 87F87330 		strb	r3, [r7, #115]
 25076 0326 30E0     		b	.L16
 25077              	.L26:
 286:../Libraries/STM32F4xx_StdPeriph_Driver/src/stm32f4xx_hash_md5.c ****       }
 287:../Libraries/STM32F4xx_StdPeriph_Driver/src/stm32f4xx_hash_md5.c ****       else
 288:../Libraries/STM32F4xx_StdPeriph_Driver/src/stm32f4xx_hash_md5.c ****       {
 289:../Libraries/STM32F4xx_StdPeriph_Driver/src/stm32f4xx_hash_md5.c ****          /* Read the message digest */
 290:../Libraries/STM32F4xx_StdPeriph_Driver/src/stm32f4xx_hash_md5.c ****          HASH_GetDigest(&MD5_MessageDigest);
 25078              		.loc 1 290 0
 25079 0328 07F11C03 		add	r3, r7, #28
 25080 032c 1846     		mov	r0, r3
 25081 032e FFF7FEFF 		bl	HASH_GetDigest
 291:../Libraries/STM32F4xx_StdPeriph_Driver/src/stm32f4xx_hash_md5.c ****          *(uint32_t*)(outputaddr)  = __REV(MD5_MessageDigest.Data[0]);
 25082              		.loc 1 291 0
 25083 0332 3B6E     		ldr	r3, [r7, #96]
 25084 0334 FA69     		ldr	r2, [r7, #28]
 25085 0336 FA65     		str	r2, [r7, #92]
 25086              	.LBB26:
 25087              	.LBB27:
 352:/home/junpei/workspace/arm/F4_Discovery_Template/Libraries/CMSIS/Include/core_cmInstr.h ****   __ASM volatile ("rev %0, %1" : "=r" (result) : "r" (value) );
 25088              		.loc 7 352 0
 25089 0338 FA6D     		ldr	r2, [r7, #92]
 25090              	@ 352 "/home/junpei/workspace/arm/F4_Discovery_Template/Libraries/CMSIS/Include/core_cmInstr.h" 1
 25091 033a 14BA     		rev r4, r2
 25092              	@ 0 "" 2
 25093              		.thumb
 25094 033c BC65     		str	r4, [r7, #88]
 25095              		.loc 7 353 0
 25096 033e BA6D     		ldr	r2, [r7, #88]
 25097              	.LBE27:
 25098              	.LBE26:
 25099              		.loc 1 291 0
 25100 0340 1A60     		str	r2, [r3, #0]
 292:../Libraries/STM32F4xx_StdPeriph_Driver/src/stm32f4xx_hash_md5.c ****          outputaddr+=4;
 25101              		.loc 1 292 0
 25102 0342 3B6E     		ldr	r3, [r7, #96]
 25103 0344 03F10403 		add	r3, r3, #4
 25104 0348 3B66     		str	r3, [r7, #96]
 293:../Libraries/STM32F4xx_StdPeriph_Driver/src/stm32f4xx_hash_md5.c ****          *(uint32_t*)(outputaddr)  = __REV(MD5_MessageDigest.Data[1]);
 25105              		.loc 1 293 0
 25106 034a 3B6E     		ldr	r3, [r7, #96]
 25107 034c 3A6A     		ldr	r2, [r7, #32]
 25108 034e 7A65     		str	r2, [r7, #84]
 25109              	.LBB28:
 25110              	.LBB29:
 352:/home/junpei/workspace/arm/F4_Discovery_Template/Libraries/CMSIS/Include/core_cmInstr.h ****   __ASM volatile ("rev %0, %1" : "=r" (result) : "r" (value) );
 25111              		.loc 7 352 0
 25112 0350 7A6D     		ldr	r2, [r7, #84]
 25113              	@ 352 "/home/junpei/workspace/arm/F4_Discovery_Template/Libraries/CMSIS/Include/core_cmInstr.h" 1
 25114 0352 14BA     		rev r4, r2
 25115              	@ 0 "" 2
 25116              		.thumb
 25117 0354 3C65     		str	r4, [r7, #80]
 25118              		.loc 7 353 0
 25119 0356 3A6D     		ldr	r2, [r7, #80]
 25120              	.LBE29:
 25121              	.LBE28:
 25122              		.loc 1 293 0
 25123 0358 1A60     		str	r2, [r3, #0]
 294:../Libraries/STM32F4xx_StdPeriph_Driver/src/stm32f4xx_hash_md5.c ****          outputaddr+=4;
 25124              		.loc 1 294 0
 25125 035a 3B6E     		ldr	r3, [r7, #96]
 25126 035c 03F10403 		add	r3, r3, #4
 25127 0360 3B66     		str	r3, [r7, #96]
 295:../Libraries/STM32F4xx_StdPeriph_Driver/src/stm32f4xx_hash_md5.c ****          *(uint32_t*)(outputaddr)  = __REV(MD5_MessageDigest.Data[2]);
 25128              		.loc 1 295 0
 25129 0362 3B6E     		ldr	r3, [r7, #96]
 25130 0364 7A6A     		ldr	r2, [r7, #36]
 25131 0366 FA64     		str	r2, [r7, #76]
 25132              	.LBB30:
 25133              	.LBB31:
 352:/home/junpei/workspace/arm/F4_Discovery_Template/Libraries/CMSIS/Include/core_cmInstr.h ****   __ASM volatile ("rev %0, %1" : "=r" (result) : "r" (value) );
 25134              		.loc 7 352 0
 25135 0368 FA6C     		ldr	r2, [r7, #76]
 25136              	@ 352 "/home/junpei/workspace/arm/F4_Discovery_Template/Libraries/CMSIS/Include/core_cmInstr.h" 1
 25137 036a 14BA     		rev r4, r2
 25138              	@ 0 "" 2
 25139              		.thumb
 25140 036c BC64     		str	r4, [r7, #72]
 25141              		.loc 7 353 0
 25142 036e BA6C     		ldr	r2, [r7, #72]
 25143              	.LBE31:
 25144              	.LBE30:
 25145              		.loc 1 295 0
 25146 0370 1A60     		str	r2, [r3, #0]
 296:../Libraries/STM32F4xx_StdPeriph_Driver/src/stm32f4xx_hash_md5.c ****          outputaddr+=4;
 25147              		.loc 1 296 0
 25148 0372 3B6E     		ldr	r3, [r7, #96]
 25149 0374 03F10403 		add	r3, r3, #4
 25150 0378 3B66     		str	r3, [r7, #96]
 297:../Libraries/STM32F4xx_StdPeriph_Driver/src/stm32f4xx_hash_md5.c ****          *(uint32_t*)(outputaddr)  = __REV(MD5_MessageDigest.Data[3]);
 25151              		.loc 1 297 0
 25152 037a 3B6E     		ldr	r3, [r7, #96]
 25153 037c BA6A     		ldr	r2, [r7, #40]
 25154 037e 7A64     		str	r2, [r7, #68]
 25155              	.LBB32:
 25156              	.LBB33:
 352:/home/junpei/workspace/arm/F4_Discovery_Template/Libraries/CMSIS/Include/core_cmInstr.h ****   __ASM volatile ("rev %0, %1" : "=r" (result) : "r" (value) );
 25157              		.loc 7 352 0
 25158 0380 7A6C     		ldr	r2, [r7, #68]
 25159              	@ 352 "/home/junpei/workspace/arm/F4_Discovery_Template/Libraries/CMSIS/Include/core_cmInstr.h" 1
 25160 0382 14BA     		rev r4, r2
 25161              	@ 0 "" 2
 25162              		.thumb
 25163 0384 3C64     		str	r4, [r7, #64]
 25164              		.loc 7 353 0
 25165 0386 3A6C     		ldr	r2, [r7, #64]
 25166              	.LBE33:
 25167              	.LBE32:
 25168              		.loc 1 297 0
 25169 0388 1A60     		str	r2, [r3, #0]
 25170              	.L16:
 298:../Libraries/STM32F4xx_StdPeriph_Driver/src/stm32f4xx_hash_md5.c ****       }
 299:../Libraries/STM32F4xx_StdPeriph_Driver/src/stm32f4xx_hash_md5.c ****     }
 300:../Libraries/STM32F4xx_StdPeriph_Driver/src/stm32f4xx_hash_md5.c ****   }
 301:../Libraries/STM32F4xx_StdPeriph_Driver/src/stm32f4xx_hash_md5.c ****   return status;  
 25171              		.loc 1 301 0
 25172 038a 97F87330 		ldrb	r3, [r7, #115]	@ zero_extendqisi2
 302:../Libraries/STM32F4xx_StdPeriph_Driver/src/stm32f4xx_hash_md5.c **** }
 25173              		.loc 1 302 0
 25174 038e 1846     		mov	r0, r3
 25175 0390 07F17C07 		add	r7, r7, #124
 25176 0394 BD46     		mov	sp, r7
 25177 0396 90BD     		pop	{r4, r7, pc}
 25178              		.cfi_endproc
 25179              	.LFE111:
 25181              	.Letext0: