   1              		.syntax unified
   2              		.cpu cortex-m4
   3              		.fpu softvfp
   4              		.eabi_attribute 20, 1
   5              		.eabi_attribute 21, 1
   6              		.eabi_attribute 23, 3
   7              		.eabi_attribute 24, 1
   8              		.eabi_attribute 25, 1
   9              		.eabi_attribute 26, 1
  10              		.eabi_attribute 30, 6
  11              		.eabi_attribute 18, 4
  12              		.thumb
  13              		.file	"stm32f4xx_can.c"
  23              	.Ltext0:
  24              		.file 1 "../Libraries/STM32F4xx_StdPeriph_Driver/src/stm32f4xx_can.c"
 24605              		.align	2
 24606              		.global	CAN_DeInit
 24607              		.thumb
 24608              		.thumb_func
 24610              	CAN_DeInit:
 24611              	.LFB110:
   1:../Libraries/STM32F4xx_StdPeriph_Driver/src/stm32f4xx_can.c **** /**
   2:../Libraries/STM32F4xx_StdPeriph_Driver/src/stm32f4xx_can.c ****   ******************************************************************************
   3:../Libraries/STM32F4xx_StdPeriph_Driver/src/stm32f4xx_can.c ****   * @file    stm32f4xx_can.c
   4:../Libraries/STM32F4xx_StdPeriph_Driver/src/stm32f4xx_can.c ****   * @author  MCD Application Team
   5:../Libraries/STM32F4xx_StdPeriph_Driver/src/stm32f4xx_can.c ****   * @version V1.0.2
   6:../Libraries/STM32F4xx_StdPeriph_Driver/src/stm32f4xx_can.c ****   * @date    05-March-2012
   7:../Libraries/STM32F4xx_StdPeriph_Driver/src/stm32f4xx_can.c ****   * @brief   This file provides firmware functions to manage the following 
   8:../Libraries/STM32F4xx_StdPeriph_Driver/src/stm32f4xx_can.c ****   *          functionalities of the Controller area network (CAN) peripheral:           
   9:../Libraries/STM32F4xx_StdPeriph_Driver/src/stm32f4xx_can.c ****   *           - Initialization and Configuration 
  10:../Libraries/STM32F4xx_StdPeriph_Driver/src/stm32f4xx_can.c ****   *           - CAN Frames Transmission 
  11:../Libraries/STM32F4xx_StdPeriph_Driver/src/stm32f4xx_can.c ****   *           - CAN Frames Reception    
  12:../Libraries/STM32F4xx_StdPeriph_Driver/src/stm32f4xx_can.c ****   *           - Operation modes switch  
  13:../Libraries/STM32F4xx_StdPeriph_Driver/src/stm32f4xx_can.c ****   *           - Error management          
  14:../Libraries/STM32F4xx_StdPeriph_Driver/src/stm32f4xx_can.c ****   *           - Interrupts and flags        
  15:../Libraries/STM32F4xx_StdPeriph_Driver/src/stm32f4xx_can.c ****   *         
  16:../Libraries/STM32F4xx_StdPeriph_Driver/src/stm32f4xx_can.c ****   *  @verbatim
  17:../Libraries/STM32F4xx_StdPeriph_Driver/src/stm32f4xx_can.c ****   *                               
  18:../Libraries/STM32F4xx_StdPeriph_Driver/src/stm32f4xx_can.c ****   *          ===================================================================      
  19:../Libraries/STM32F4xx_StdPeriph_Driver/src/stm32f4xx_can.c ****   *                                   How to use this driver
  20:../Libraries/STM32F4xx_StdPeriph_Driver/src/stm32f4xx_can.c ****   *          ===================================================================
  21:../Libraries/STM32F4xx_StdPeriph_Driver/src/stm32f4xx_can.c ****                 
  22:../Libraries/STM32F4xx_StdPeriph_Driver/src/stm32f4xx_can.c ****   *          1.  Enable the CAN controller interface clock using 
  23:../Libraries/STM32F4xx_StdPeriph_Driver/src/stm32f4xx_can.c ****   *                  RCC_APB1PeriphClockCmd(RCC_APB1Periph_CAN1, ENABLE); for CAN1 
  24:../Libraries/STM32F4xx_StdPeriph_Driver/src/stm32f4xx_can.c ****   *              and RCC_APB1PeriphClockCmd(RCC_APB1Periph_CAN2, ENABLE); for CAN2
  25:../Libraries/STM32F4xx_StdPeriph_Driver/src/stm32f4xx_can.c ****   *  @note   In case you are using CAN2 only, you have to enable the CAN1 clock.
  26:../Libraries/STM32F4xx_StdPeriph_Driver/src/stm32f4xx_can.c ****   *     
  27:../Libraries/STM32F4xx_StdPeriph_Driver/src/stm32f4xx_can.c ****   *          2. CAN pins configuration
  28:../Libraries/STM32F4xx_StdPeriph_Driver/src/stm32f4xx_can.c ****   *               - Enable the clock for the CAN GPIOs using the following function:
  29:../Libraries/STM32F4xx_StdPeriph_Driver/src/stm32f4xx_can.c ****   *                   RCC_AHB1PeriphClockCmd(RCC_AHB1Periph_GPIOx, ENABLE);   
  30:../Libraries/STM32F4xx_StdPeriph_Driver/src/stm32f4xx_can.c ****   *               - Connect the involved CAN pins to AF9 using the following function 
  31:../Libraries/STM32F4xx_StdPeriph_Driver/src/stm32f4xx_can.c ****   *                   GPIO_PinAFConfig(GPIOx, GPIO_PinSourcex, GPIO_AF_CANx); 
  32:../Libraries/STM32F4xx_StdPeriph_Driver/src/stm32f4xx_can.c ****   *                - Configure these CAN pins in alternate function mode by calling
  33:../Libraries/STM32F4xx_StdPeriph_Driver/src/stm32f4xx_can.c ****   *                  the function  GPIO_Init();
  34:../Libraries/STM32F4xx_StdPeriph_Driver/src/stm32f4xx_can.c ****   *    
  35:../Libraries/STM32F4xx_StdPeriph_Driver/src/stm32f4xx_can.c ****   *          3.  Initialise and configure the CAN using CAN_Init() and 
  36:../Libraries/STM32F4xx_StdPeriph_Driver/src/stm32f4xx_can.c ****   *               CAN_FilterInit() functions.   
  37:../Libraries/STM32F4xx_StdPeriph_Driver/src/stm32f4xx_can.c ****   *               
  38:../Libraries/STM32F4xx_StdPeriph_Driver/src/stm32f4xx_can.c ****   *          4.  Transmit the desired CAN frame using CAN_Transmit() function.
  39:../Libraries/STM32F4xx_StdPeriph_Driver/src/stm32f4xx_can.c ****   *         
  40:../Libraries/STM32F4xx_StdPeriph_Driver/src/stm32f4xx_can.c ****   *          5.  Check the transmission of a CAN frame using CAN_TransmitStatus()
  41:../Libraries/STM32F4xx_StdPeriph_Driver/src/stm32f4xx_can.c ****   *              function.
  42:../Libraries/STM32F4xx_StdPeriph_Driver/src/stm32f4xx_can.c ****   *               
  43:../Libraries/STM32F4xx_StdPeriph_Driver/src/stm32f4xx_can.c ****   *          6.  Cancel the transmission of a CAN frame using CAN_CancelTransmit()
  44:../Libraries/STM32F4xx_StdPeriph_Driver/src/stm32f4xx_can.c ****   *              function.  
  45:../Libraries/STM32F4xx_StdPeriph_Driver/src/stm32f4xx_can.c ****   *            
  46:../Libraries/STM32F4xx_StdPeriph_Driver/src/stm32f4xx_can.c ****   *          7.  Receive a CAN frame using CAN_Recieve() function.
  47:../Libraries/STM32F4xx_StdPeriph_Driver/src/stm32f4xx_can.c ****   *         
  48:../Libraries/STM32F4xx_StdPeriph_Driver/src/stm32f4xx_can.c ****   *          8.  Release the receive FIFOs using CAN_FIFORelease() function.
  49:../Libraries/STM32F4xx_StdPeriph_Driver/src/stm32f4xx_can.c ****   *               
  50:../Libraries/STM32F4xx_StdPeriph_Driver/src/stm32f4xx_can.c ****   *          9. Return the number of pending received frames using 
  51:../Libraries/STM32F4xx_StdPeriph_Driver/src/stm32f4xx_can.c ****   *              CAN_MessagePending() function.            
  52:../Libraries/STM32F4xx_StdPeriph_Driver/src/stm32f4xx_can.c ****   *                   
  53:../Libraries/STM32F4xx_StdPeriph_Driver/src/stm32f4xx_can.c ****   *          10. To control CAN events you can use one of the following two methods:
  54:../Libraries/STM32F4xx_StdPeriph_Driver/src/stm32f4xx_can.c ****   *               - Check on CAN flags using the CAN_GetFlagStatus() function.  
  55:../Libraries/STM32F4xx_StdPeriph_Driver/src/stm32f4xx_can.c ****   *               - Use CAN interrupts through the function CAN_ITConfig() at 
  56:../Libraries/STM32F4xx_StdPeriph_Driver/src/stm32f4xx_can.c ****   *                 initialization phase and CAN_GetITStatus() function into 
  57:../Libraries/STM32F4xx_StdPeriph_Driver/src/stm32f4xx_can.c ****   *                 interrupt routines to check if the event has occurred or not.
  58:../Libraries/STM32F4xx_StdPeriph_Driver/src/stm32f4xx_can.c ****   *             After checking on a flag you should clear it using CAN_ClearFlag()
  59:../Libraries/STM32F4xx_StdPeriph_Driver/src/stm32f4xx_can.c ****   *             function. And after checking on an interrupt event you should 
  60:../Libraries/STM32F4xx_StdPeriph_Driver/src/stm32f4xx_can.c ****   *             clear it using CAN_ClearITPendingBit() function.            
  61:../Libraries/STM32F4xx_StdPeriph_Driver/src/stm32f4xx_can.c ****   *               
  62:../Libraries/STM32F4xx_StdPeriph_Driver/src/stm32f4xx_can.c ****   *              
  63:../Libraries/STM32F4xx_StdPeriph_Driver/src/stm32f4xx_can.c ****   *  @endverbatim
  64:../Libraries/STM32F4xx_StdPeriph_Driver/src/stm32f4xx_can.c ****   *         
  65:../Libraries/STM32F4xx_StdPeriph_Driver/src/stm32f4xx_can.c ****   ******************************************************************************
  66:../Libraries/STM32F4xx_StdPeriph_Driver/src/stm32f4xx_can.c ****   * @attention
  67:../Libraries/STM32F4xx_StdPeriph_Driver/src/stm32f4xx_can.c ****   *
  68:../Libraries/STM32F4xx_StdPeriph_Driver/src/stm32f4xx_can.c ****   * <h2><center>&copy; COPYRIGHT 2012 STMicroelectronics</center></h2>
  69:../Libraries/STM32F4xx_StdPeriph_Driver/src/stm32f4xx_can.c ****   *
  70:../Libraries/STM32F4xx_StdPeriph_Driver/src/stm32f4xx_can.c ****   * Licensed under MCD-ST Liberty SW License Agreement V2, (the "License");
  71:../Libraries/STM32F4xx_StdPeriph_Driver/src/stm32f4xx_can.c ****   * You may not use this file except in compliance with the License.
  72:../Libraries/STM32F4xx_StdPeriph_Driver/src/stm32f4xx_can.c ****   * You may obtain a copy of the License at:
  73:../Libraries/STM32F4xx_StdPeriph_Driver/src/stm32f4xx_can.c ****   *
  74:../Libraries/STM32F4xx_StdPeriph_Driver/src/stm32f4xx_can.c ****   *        http://www.st.com/software_license_agreement_liberty_v2
  75:../Libraries/STM32F4xx_StdPeriph_Driver/src/stm32f4xx_can.c ****   *
  76:../Libraries/STM32F4xx_StdPeriph_Driver/src/stm32f4xx_can.c ****   * Unless required by applicable law or agreed to in writing, software 
  77:../Libraries/STM32F4xx_StdPeriph_Driver/src/stm32f4xx_can.c ****   * distributed under the License is distributed on an "AS IS" BASIS, 
  78:../Libraries/STM32F4xx_StdPeriph_Driver/src/stm32f4xx_can.c ****   * WITHOUT WARRANTIES OR CONDITIONS OF ANY KIND, either express or implied.
  79:../Libraries/STM32F4xx_StdPeriph_Driver/src/stm32f4xx_can.c ****   * See the License for the specific language governing permissions and
  80:../Libraries/STM32F4xx_StdPeriph_Driver/src/stm32f4xx_can.c ****   * limitations under the License.
  81:../Libraries/STM32F4xx_StdPeriph_Driver/src/stm32f4xx_can.c ****   *
  82:../Libraries/STM32F4xx_StdPeriph_Driver/src/stm32f4xx_can.c ****   ******************************************************************************
  83:../Libraries/STM32F4xx_StdPeriph_Driver/src/stm32f4xx_can.c ****   */
  84:../Libraries/STM32F4xx_StdPeriph_Driver/src/stm32f4xx_can.c **** 
  85:../Libraries/STM32F4xx_StdPeriph_Driver/src/stm32f4xx_can.c **** /* Includes ------------------------------------------------------------------*/
  86:../Libraries/STM32F4xx_StdPeriph_Driver/src/stm32f4xx_can.c **** #include "stm32f4xx_can.h"
  87:../Libraries/STM32F4xx_StdPeriph_Driver/src/stm32f4xx_can.c **** #include "stm32f4xx_rcc.h"
  88:../Libraries/STM32F4xx_StdPeriph_Driver/src/stm32f4xx_can.c **** 
  89:../Libraries/STM32F4xx_StdPeriph_Driver/src/stm32f4xx_can.c **** /** @addtogroup STM32F4xx_StdPeriph_Driver
  90:../Libraries/STM32F4xx_StdPeriph_Driver/src/stm32f4xx_can.c ****   * @{
  91:../Libraries/STM32F4xx_StdPeriph_Driver/src/stm32f4xx_can.c ****   */
  92:../Libraries/STM32F4xx_StdPeriph_Driver/src/stm32f4xx_can.c **** 
  93:../Libraries/STM32F4xx_StdPeriph_Driver/src/stm32f4xx_can.c **** /** @defgroup CAN 
  94:../Libraries/STM32F4xx_StdPeriph_Driver/src/stm32f4xx_can.c ****   * @brief CAN driver modules
  95:../Libraries/STM32F4xx_StdPeriph_Driver/src/stm32f4xx_can.c ****   * @{
  96:../Libraries/STM32F4xx_StdPeriph_Driver/src/stm32f4xx_can.c ****   */ 
  97:../Libraries/STM32F4xx_StdPeriph_Driver/src/stm32f4xx_can.c **** /* Private typedef -----------------------------------------------------------*/
  98:../Libraries/STM32F4xx_StdPeriph_Driver/src/stm32f4xx_can.c **** /* Private define ------------------------------------------------------------*/
  99:../Libraries/STM32F4xx_StdPeriph_Driver/src/stm32f4xx_can.c **** 
 100:../Libraries/STM32F4xx_StdPeriph_Driver/src/stm32f4xx_can.c **** /* CAN Master Control Register bits */
 101:../Libraries/STM32F4xx_StdPeriph_Driver/src/stm32f4xx_can.c **** #define MCR_DBF           ((uint32_t)0x00010000) /* software master reset */
 102:../Libraries/STM32F4xx_StdPeriph_Driver/src/stm32f4xx_can.c **** 
 103:../Libraries/STM32F4xx_StdPeriph_Driver/src/stm32f4xx_can.c **** /* CAN Mailbox Transmit Request */
 104:../Libraries/STM32F4xx_StdPeriph_Driver/src/stm32f4xx_can.c **** #define TMIDxR_TXRQ       ((uint32_t)0x00000001) /* Transmit mailbox request */
 105:../Libraries/STM32F4xx_StdPeriph_Driver/src/stm32f4xx_can.c **** 
 106:../Libraries/STM32F4xx_StdPeriph_Driver/src/stm32f4xx_can.c **** /* CAN Filter Master Register bits */
 107:../Libraries/STM32F4xx_StdPeriph_Driver/src/stm32f4xx_can.c **** #define FMR_FINIT         ((uint32_t)0x00000001) /* Filter init mode */
 108:../Libraries/STM32F4xx_StdPeriph_Driver/src/stm32f4xx_can.c **** 
 109:../Libraries/STM32F4xx_StdPeriph_Driver/src/stm32f4xx_can.c **** /* Time out for INAK bit */
 110:../Libraries/STM32F4xx_StdPeriph_Driver/src/stm32f4xx_can.c **** #define INAK_TIMEOUT      ((uint32_t)0x0000FFFF)
 111:../Libraries/STM32F4xx_StdPeriph_Driver/src/stm32f4xx_can.c **** /* Time out for SLAK bit */
 112:../Libraries/STM32F4xx_StdPeriph_Driver/src/stm32f4xx_can.c **** #define SLAK_TIMEOUT      ((uint32_t)0x0000FFFF)
 113:../Libraries/STM32F4xx_StdPeriph_Driver/src/stm32f4xx_can.c **** 
 114:../Libraries/STM32F4xx_StdPeriph_Driver/src/stm32f4xx_can.c **** /* Flags in TSR register */
 115:../Libraries/STM32F4xx_StdPeriph_Driver/src/stm32f4xx_can.c **** #define CAN_FLAGS_TSR     ((uint32_t)0x08000000) 
 116:../Libraries/STM32F4xx_StdPeriph_Driver/src/stm32f4xx_can.c **** /* Flags in RF1R register */
 117:../Libraries/STM32F4xx_StdPeriph_Driver/src/stm32f4xx_can.c **** #define CAN_FLAGS_RF1R    ((uint32_t)0x04000000) 
 118:../Libraries/STM32F4xx_StdPeriph_Driver/src/stm32f4xx_can.c **** /* Flags in RF0R register */
 119:../Libraries/STM32F4xx_StdPeriph_Driver/src/stm32f4xx_can.c **** #define CAN_FLAGS_RF0R    ((uint32_t)0x02000000) 
 120:../Libraries/STM32F4xx_StdPeriph_Driver/src/stm32f4xx_can.c **** /* Flags in MSR register */
 121:../Libraries/STM32F4xx_StdPeriph_Driver/src/stm32f4xx_can.c **** #define CAN_FLAGS_MSR     ((uint32_t)0x01000000) 
 122:../Libraries/STM32F4xx_StdPeriph_Driver/src/stm32f4xx_can.c **** /* Flags in ESR register */
 123:../Libraries/STM32F4xx_StdPeriph_Driver/src/stm32f4xx_can.c **** #define CAN_FLAGS_ESR     ((uint32_t)0x00F00000) 
 124:../Libraries/STM32F4xx_StdPeriph_Driver/src/stm32f4xx_can.c **** 
 125:../Libraries/STM32F4xx_StdPeriph_Driver/src/stm32f4xx_can.c **** /* Mailboxes definition */
 126:../Libraries/STM32F4xx_StdPeriph_Driver/src/stm32f4xx_can.c **** #define CAN_TXMAILBOX_0   ((uint8_t)0x00)
 127:../Libraries/STM32F4xx_StdPeriph_Driver/src/stm32f4xx_can.c **** #define CAN_TXMAILBOX_1   ((uint8_t)0x01)
 128:../Libraries/STM32F4xx_StdPeriph_Driver/src/stm32f4xx_can.c **** #define CAN_TXMAILBOX_2   ((uint8_t)0x02) 
 129:../Libraries/STM32F4xx_StdPeriph_Driver/src/stm32f4xx_can.c **** 
 130:../Libraries/STM32F4xx_StdPeriph_Driver/src/stm32f4xx_can.c **** #define CAN_MODE_MASK     ((uint32_t) 0x00000003)
 131:../Libraries/STM32F4xx_StdPeriph_Driver/src/stm32f4xx_can.c **** 
 132:../Libraries/STM32F4xx_StdPeriph_Driver/src/stm32f4xx_can.c **** /* Private macro -------------------------------------------------------------*/
 133:../Libraries/STM32F4xx_StdPeriph_Driver/src/stm32f4xx_can.c **** /* Private variables ---------------------------------------------------------*/
 134:../Libraries/STM32F4xx_StdPeriph_Driver/src/stm32f4xx_can.c **** /* Private function prototypes -----------------------------------------------*/
 135:../Libraries/STM32F4xx_StdPeriph_Driver/src/stm32f4xx_can.c **** /* Private functions ---------------------------------------------------------*/
 136:../Libraries/STM32F4xx_StdPeriph_Driver/src/stm32f4xx_can.c **** static ITStatus CheckITStatus(uint32_t CAN_Reg, uint32_t It_Bit);
 137:../Libraries/STM32F4xx_StdPeriph_Driver/src/stm32f4xx_can.c **** 
 138:../Libraries/STM32F4xx_StdPeriph_Driver/src/stm32f4xx_can.c **** /** @defgroup CAN_Private_Functions
 139:../Libraries/STM32F4xx_StdPeriph_Driver/src/stm32f4xx_can.c ****   * @{
 140:../Libraries/STM32F4xx_StdPeriph_Driver/src/stm32f4xx_can.c ****   */
 141:../Libraries/STM32F4xx_StdPeriph_Driver/src/stm32f4xx_can.c **** 
 142:../Libraries/STM32F4xx_StdPeriph_Driver/src/stm32f4xx_can.c **** /** @defgroup CAN_Group1 Initialization and Configuration functions
 143:../Libraries/STM32F4xx_StdPeriph_Driver/src/stm32f4xx_can.c ****  *  @brief    Initialization and Configuration functions 
 144:../Libraries/STM32F4xx_StdPeriph_Driver/src/stm32f4xx_can.c ****  *
 145:../Libraries/STM32F4xx_StdPeriph_Driver/src/stm32f4xx_can.c **** @verbatim    
 146:../Libraries/STM32F4xx_StdPeriph_Driver/src/stm32f4xx_can.c ****  ===============================================================================
 147:../Libraries/STM32F4xx_StdPeriph_Driver/src/stm32f4xx_can.c ****                       Initialization and Configuration functions
 148:../Libraries/STM32F4xx_StdPeriph_Driver/src/stm32f4xx_can.c ****  ===============================================================================  
 149:../Libraries/STM32F4xx_StdPeriph_Driver/src/stm32f4xx_can.c ****   This section provides functions allowing to 
 150:../Libraries/STM32F4xx_StdPeriph_Driver/src/stm32f4xx_can.c ****    - Initialize the CAN peripherals : Prescaler, operating mode, the maximum number 
 151:../Libraries/STM32F4xx_StdPeriph_Driver/src/stm32f4xx_can.c ****      of time quanta to perform resynchronization, the number of time quanta in
 152:../Libraries/STM32F4xx_StdPeriph_Driver/src/stm32f4xx_can.c ****      Bit Segment 1 and 2 and many other modes. 
 153:../Libraries/STM32F4xx_StdPeriph_Driver/src/stm32f4xx_can.c ****      Refer to  @ref CAN_InitTypeDef  for more details.
 154:../Libraries/STM32F4xx_StdPeriph_Driver/src/stm32f4xx_can.c ****    - Configures the CAN reception filter.                                      
 155:../Libraries/STM32F4xx_StdPeriph_Driver/src/stm32f4xx_can.c ****    - Select the start bank filter for slave CAN.
 156:../Libraries/STM32F4xx_StdPeriph_Driver/src/stm32f4xx_can.c ****    - Enables or disables the Debug Freeze mode for CAN
 157:../Libraries/STM32F4xx_StdPeriph_Driver/src/stm32f4xx_can.c ****    - Enables or disables the CAN Time Trigger Operation communication mode
 158:../Libraries/STM32F4xx_StdPeriph_Driver/src/stm32f4xx_can.c ****    
 159:../Libraries/STM32F4xx_StdPeriph_Driver/src/stm32f4xx_can.c **** @endverbatim
 160:../Libraries/STM32F4xx_StdPeriph_Driver/src/stm32f4xx_can.c ****   * @{
 161:../Libraries/STM32F4xx_StdPeriph_Driver/src/stm32f4xx_can.c ****   */
 162:../Libraries/STM32F4xx_StdPeriph_Driver/src/stm32f4xx_can.c ****   
 163:../Libraries/STM32F4xx_StdPeriph_Driver/src/stm32f4xx_can.c **** /**
 164:../Libraries/STM32F4xx_StdPeriph_Driver/src/stm32f4xx_can.c ****   * @brief  Deinitializes the CAN peripheral registers to their default reset values.
 165:../Libraries/STM32F4xx_StdPeriph_Driver/src/stm32f4xx_can.c ****   * @param  CANx: where x can be 1 or 2 to select the CAN peripheral.
 166:../Libraries/STM32F4xx_StdPeriph_Driver/src/stm32f4xx_can.c ****   * @retval None.
 167:../Libraries/STM32F4xx_StdPeriph_Driver/src/stm32f4xx_can.c ****   */
 168:../Libraries/STM32F4xx_StdPeriph_Driver/src/stm32f4xx_can.c **** void CAN_DeInit(CAN_TypeDef* CANx)
 169:../Libraries/STM32F4xx_StdPeriph_Driver/src/stm32f4xx_can.c **** {
 24612              		.loc 1 169 0
 24613              		.cfi_startproc
 24614              		@ args = 0, pretend = 0, frame = 8
 24615              		@ frame_needed = 1, uses_anonymous_args = 0
 24616 0000 80B5     		push	{r7, lr}
 24617              	.LCFI0:
 24618              		.cfi_def_cfa_offset 8
 24619 0002 82B0     		sub	sp, sp, #8
 24620              	.LCFI1:
 24621              		.cfi_def_cfa_offset 16
 24622 0004 00AF     		add	r7, sp, #0
 24623              		.cfi_offset 14, -4
 24624              		.cfi_offset 7, -8
 24625              	.LCFI2:
 24626              		.cfi_def_cfa_register 7
 24627 0006 7860     		str	r0, [r7, #4]
 170:../Libraries/STM32F4xx_StdPeriph_Driver/src/stm32f4xx_can.c ****   /* Check the parameters */
 171:../Libraries/STM32F4xx_StdPeriph_Driver/src/stm32f4xx_can.c ****   assert_param(IS_CAN_ALL_PERIPH(CANx));
 172:../Libraries/STM32F4xx_StdPeriph_Driver/src/stm32f4xx_can.c ****  
 173:../Libraries/STM32F4xx_StdPeriph_Driver/src/stm32f4xx_can.c ****   if (CANx == CAN1)
 24628              		.loc 1 173 0
 24629 0008 7A68     		ldr	r2, [r7, #4]
 24630 000a 104B     		ldr	r3, .L4
 24631 000c 9A42     		cmp	r2, r3
 24632 000e 0CD1     		bne	.L2
 174:../Libraries/STM32F4xx_StdPeriph_Driver/src/stm32f4xx_can.c ****   {
 175:../Libraries/STM32F4xx_StdPeriph_Driver/src/stm32f4xx_can.c ****     /* Enable CAN1 reset state */
 176:../Libraries/STM32F4xx_StdPeriph_Driver/src/stm32f4xx_can.c ****     RCC_APB1PeriphResetCmd(RCC_APB1Periph_CAN1, ENABLE);
 24633              		.loc 1 176 0
 24634 0010 4FF00070 		mov	r0, #33554432
 24635 0014 4FF00101 		mov	r1, #1
 24636 0018 FFF7FEFF 		bl	RCC_APB1PeriphResetCmd
 177:../Libraries/STM32F4xx_StdPeriph_Driver/src/stm32f4xx_can.c ****     /* Release CAN1 from reset state */
 178:../Libraries/STM32F4xx_StdPeriph_Driver/src/stm32f4xx_can.c ****     RCC_APB1PeriphResetCmd(RCC_APB1Periph_CAN1, DISABLE);
 24637              		.loc 1 178 0
 24638 001c 4FF00070 		mov	r0, #33554432
 24639 0020 4FF00001 		mov	r1, #0
 24640 0024 FFF7FEFF 		bl	RCC_APB1PeriphResetCmd
 24641 0028 0BE0     		b	.L1
 24642              	.L2:
 179:../Libraries/STM32F4xx_StdPeriph_Driver/src/stm32f4xx_can.c ****   }
 180:../Libraries/STM32F4xx_StdPeriph_Driver/src/stm32f4xx_can.c ****   else
 181:../Libraries/STM32F4xx_StdPeriph_Driver/src/stm32f4xx_can.c ****   {  
 182:../Libraries/STM32F4xx_StdPeriph_Driver/src/stm32f4xx_can.c ****     /* Enable CAN2 reset state */
 183:../Libraries/STM32F4xx_StdPeriph_Driver/src/stm32f4xx_can.c ****     RCC_APB1PeriphResetCmd(RCC_APB1Periph_CAN2, ENABLE);
 24643              		.loc 1 183 0
 24644 002a 4FF08060 		mov	r0, #67108864
 24645 002e 4FF00101 		mov	r1, #1
 24646 0032 FFF7FEFF 		bl	RCC_APB1PeriphResetCmd
 184:../Libraries/STM32F4xx_StdPeriph_Driver/src/stm32f4xx_can.c ****     /* Release CAN2 from reset state */
 185:../Libraries/STM32F4xx_StdPeriph_Driver/src/stm32f4xx_can.c ****     RCC_APB1PeriphResetCmd(RCC_APB1Periph_CAN2, DISABLE);
 24647              		.loc 1 185 0
 24648 0036 4FF08060 		mov	r0, #67108864
 24649 003a 4FF00001 		mov	r1, #0
 24650 003e FFF7FEFF 		bl	RCC_APB1PeriphResetCmd
 24651              	.L1:
 186:../Libraries/STM32F4xx_StdPeriph_Driver/src/stm32f4xx_can.c ****   }
 187:../Libraries/STM32F4xx_StdPeriph_Driver/src/stm32f4xx_can.c **** }
 24652              		.loc 1 187 0
 24653 0042 07F10807 		add	r7, r7, #8
 24654 0046 BD46     		mov	sp, r7
 24655 0048 80BD     		pop	{r7, pc}
 24656              	.L5:
 24657 004a 00BF     		.align	2
 24658              	.L4:
 24659 004c 00640040 		.word	1073767424
 24660              		.cfi_endproc
 24661              	.LFE110:
 24663              		.align	2
 24664              		.global	CAN_Init
 24665              		.thumb
 24666              		.thumb_func
 24668              	CAN_Init:
 24669              	.LFB111:
 188:../Libraries/STM32F4xx_StdPeriph_Driver/src/stm32f4xx_can.c **** 
 189:../Libraries/STM32F4xx_StdPeriph_Driver/src/stm32f4xx_can.c **** /**
 190:../Libraries/STM32F4xx_StdPeriph_Driver/src/stm32f4xx_can.c ****   * @brief  Initializes the CAN peripheral according to the specified
 191:../Libraries/STM32F4xx_StdPeriph_Driver/src/stm32f4xx_can.c ****   *         parameters in the CAN_InitStruct.
 192:../Libraries/STM32F4xx_StdPeriph_Driver/src/stm32f4xx_can.c ****   * @param  CANx: where x can be 1 or 2 to select the CAN peripheral.
 193:../Libraries/STM32F4xx_StdPeriph_Driver/src/stm32f4xx_can.c ****   * @param  CAN_InitStruct: pointer to a CAN_InitTypeDef structure that contains
 194:../Libraries/STM32F4xx_StdPeriph_Driver/src/stm32f4xx_can.c ****   *         the configuration information for the CAN peripheral.
 195:../Libraries/STM32F4xx_StdPeriph_Driver/src/stm32f4xx_can.c ****   * @retval Constant indicates initialization succeed which will be 
 196:../Libraries/STM32F4xx_StdPeriph_Driver/src/stm32f4xx_can.c ****   *         CAN_InitStatus_Failed or CAN_InitStatus_Success.
 197:../Libraries/STM32F4xx_StdPeriph_Driver/src/stm32f4xx_can.c ****   */
 198:../Libraries/STM32F4xx_StdPeriph_Driver/src/stm32f4xx_can.c **** uint8_t CAN_Init(CAN_TypeDef* CANx, CAN_InitTypeDef* CAN_InitStruct)
 199:../Libraries/STM32F4xx_StdPeriph_Driver/src/stm32f4xx_can.c **** {
 24670              		.loc 1 199 0
 24671              		.cfi_startproc
 24672              		@ args = 0, pretend = 0, frame = 16
 24673              		@ frame_needed = 1, uses_anonymous_args = 0
 24674              		@ link register save eliminated.
 24675 0050 80B4     		push	{r7}
 24676              	.LCFI3:
 24677              		.cfi_def_cfa_offset 4
 24678 0052 85B0     		sub	sp, sp, #20
 24679              	.LCFI4:
 24680              		.cfi_def_cfa_offset 24
 24681 0054 00AF     		add	r7, sp, #0
 24682              		.cfi_offset 7, -4
 24683              	.LCFI5:
 24684              		.cfi_def_cfa_register 7
 24685 0056 7860     		str	r0, [r7, #4]
 24686 0058 3960     		str	r1, [r7, #0]
 200:../Libraries/STM32F4xx_StdPeriph_Driver/src/stm32f4xx_can.c ****   uint8_t InitStatus = CAN_InitStatus_Failed;
 24687              		.loc 1 200 0
 24688 005a 4FF00003 		mov	r3, #0
 24689 005e FB73     		strb	r3, [r7, #15]
 201:../Libraries/STM32F4xx_StdPeriph_Driver/src/stm32f4xx_can.c ****   uint32_t wait_ack = 0x00000000;
 24690              		.loc 1 201 0
 24691 0060 4FF00003 		mov	r3, #0
 24692 0064 BB60     		str	r3, [r7, #8]
 202:../Libraries/STM32F4xx_StdPeriph_Driver/src/stm32f4xx_can.c ****   /* Check the parameters */
 203:../Libraries/STM32F4xx_StdPeriph_Driver/src/stm32f4xx_can.c ****   assert_param(IS_CAN_ALL_PERIPH(CANx));
 204:../Libraries/STM32F4xx_StdPeriph_Driver/src/stm32f4xx_can.c ****   assert_param(IS_FUNCTIONAL_STATE(CAN_InitStruct->CAN_TTCM));
 205:../Libraries/STM32F4xx_StdPeriph_Driver/src/stm32f4xx_can.c ****   assert_param(IS_FUNCTIONAL_STATE(CAN_InitStruct->CAN_ABOM));
 206:../Libraries/STM32F4xx_StdPeriph_Driver/src/stm32f4xx_can.c ****   assert_param(IS_FUNCTIONAL_STATE(CAN_InitStruct->CAN_AWUM));
 207:../Libraries/STM32F4xx_StdPeriph_Driver/src/stm32f4xx_can.c ****   assert_param(IS_FUNCTIONAL_STATE(CAN_InitStruct->CAN_NART));
 208:../Libraries/STM32F4xx_StdPeriph_Driver/src/stm32f4xx_can.c ****   assert_param(IS_FUNCTIONAL_STATE(CAN_InitStruct->CAN_RFLM));
 209:../Libraries/STM32F4xx_StdPeriph_Driver/src/stm32f4xx_can.c ****   assert_param(IS_FUNCTIONAL_STATE(CAN_InitStruct->CAN_TXFP));
 210:../Libraries/STM32F4xx_StdPeriph_Driver/src/stm32f4xx_can.c ****   assert_param(IS_CAN_MODE(CAN_InitStruct->CAN_Mode));
 211:../Libraries/STM32F4xx_StdPeriph_Driver/src/stm32f4xx_can.c ****   assert_param(IS_CAN_SJW(CAN_InitStruct->CAN_SJW));
 212:../Libraries/STM32F4xx_StdPeriph_Driver/src/stm32f4xx_can.c ****   assert_param(IS_CAN_BS1(CAN_InitStruct->CAN_BS1));
 213:../Libraries/STM32F4xx_StdPeriph_Driver/src/stm32f4xx_can.c ****   assert_param(IS_CAN_BS2(CAN_InitStruct->CAN_BS2));
 214:../Libraries/STM32F4xx_StdPeriph_Driver/src/stm32f4xx_can.c ****   assert_param(IS_CAN_PRESCALER(CAN_InitStruct->CAN_Prescaler));
 215:../Libraries/STM32F4xx_StdPeriph_Driver/src/stm32f4xx_can.c **** 
 216:../Libraries/STM32F4xx_StdPeriph_Driver/src/stm32f4xx_can.c ****   /* Exit from sleep mode */
 217:../Libraries/STM32F4xx_StdPeriph_Driver/src/stm32f4xx_can.c ****   CANx->MCR &= (~(uint32_t)CAN_MCR_SLEEP);
 24693              		.loc 1 217 0
 24694 0066 7B68     		ldr	r3, [r7, #4]
 24695 0068 1B68     		ldr	r3, [r3, #0]
 24696 006a 23F00202 		bic	r2, r3, #2
 24697 006e 7B68     		ldr	r3, [r7, #4]
 24698 0070 1A60     		str	r2, [r3, #0]
 218:../Libraries/STM32F4xx_StdPeriph_Driver/src/stm32f4xx_can.c **** 
 219:../Libraries/STM32F4xx_StdPeriph_Driver/src/stm32f4xx_can.c ****   /* Request initialisation */
 220:../Libraries/STM32F4xx_StdPeriph_Driver/src/stm32f4xx_can.c ****   CANx->MCR |= CAN_MCR_INRQ ;
 24699              		.loc 1 220 0
 24700 0072 7B68     		ldr	r3, [r7, #4]
 24701 0074 1B68     		ldr	r3, [r3, #0]
 24702 0076 43F00102 		orr	r2, r3, #1
 24703 007a 7B68     		ldr	r3, [r7, #4]
 24704 007c 1A60     		str	r2, [r3, #0]
 221:../Libraries/STM32F4xx_StdPeriph_Driver/src/stm32f4xx_can.c **** 
 222:../Libraries/STM32F4xx_StdPeriph_Driver/src/stm32f4xx_can.c ****   /* Wait the acknowledge */
 223:../Libraries/STM32F4xx_StdPeriph_Driver/src/stm32f4xx_can.c ****   while (((CANx->MSR & CAN_MSR_INAK) != CAN_MSR_INAK) && (wait_ack != INAK_TIMEOUT))
 24705              		.loc 1 223 0
 24706 007e 03E0     		b	.L7
 24707              	.L9:
 224:../Libraries/STM32F4xx_StdPeriph_Driver/src/stm32f4xx_can.c ****   {
 225:../Libraries/STM32F4xx_StdPeriph_Driver/src/stm32f4xx_can.c ****     wait_ack++;
 24708              		.loc 1 225 0
 24709 0080 BB68     		ldr	r3, [r7, #8]
 24710 0082 03F10103 		add	r3, r3, #1
 24711 0086 BB60     		str	r3, [r7, #8]
 24712              	.L7:
 223:../Libraries/STM32F4xx_StdPeriph_Driver/src/stm32f4xx_can.c ****   while (((CANx->MSR & CAN_MSR_INAK) != CAN_MSR_INAK) && (wait_ack != INAK_TIMEOUT))
 24713              		.loc 1 223 0 discriminator 1
 24714 0088 7B68     		ldr	r3, [r7, #4]
 24715 008a 5B68     		ldr	r3, [r3, #4]
 24716 008c 03F00103 		and	r3, r3, #1
 24717 0090 002B     		cmp	r3, #0
 24718 0092 04D1     		bne	.L8
 223:../Libraries/STM32F4xx_StdPeriph_Driver/src/stm32f4xx_can.c ****   while (((CANx->MSR & CAN_MSR_INAK) != CAN_MSR_INAK) && (wait_ack != INAK_TIMEOUT))
 24719              		.loc 1 223 0 is_stmt 0 discriminator 2
 24720 0094 BA68     		ldr	r2, [r7, #8]
 24721 0096 4FF6FF73 		movw	r3, #65535
 24722 009a 9A42     		cmp	r2, r3
 24723 009c F0D1     		bne	.L9
 24724              	.L8:
 226:../Libraries/STM32F4xx_StdPeriph_Driver/src/stm32f4xx_can.c ****   }
 227:../Libraries/STM32F4xx_StdPeriph_Driver/src/stm32f4xx_can.c **** 
 228:../Libraries/STM32F4xx_StdPeriph_Driver/src/stm32f4xx_can.c ****   /* Check acknowledge */
 229:../Libraries/STM32F4xx_StdPeriph_Driver/src/stm32f4xx_can.c ****   if ((CANx->MSR & CAN_MSR_INAK) != CAN_MSR_INAK)
 24725              		.loc 1 229 0 is_stmt 1
 24726 009e 7B68     		ldr	r3, [r7, #4]
 24727 00a0 5B68     		ldr	r3, [r3, #4]
 24728 00a2 03F00103 		and	r3, r3, #1
 24729 00a6 002B     		cmp	r3, #0
 24730 00a8 03D1     		bne	.L10
 230:../Libraries/STM32F4xx_StdPeriph_Driver/src/stm32f4xx_can.c ****   {
 231:../Libraries/STM32F4xx_StdPeriph_Driver/src/stm32f4xx_can.c ****     InitStatus = CAN_InitStatus_Failed;
 24731              		.loc 1 231 0
 24732 00aa 4FF00003 		mov	r3, #0
 24733 00ae FB73     		strb	r3, [r7, #15]
 24734 00b0 A7E0     		b	.L11
 24735              	.L10:
 232:../Libraries/STM32F4xx_StdPeriph_Driver/src/stm32f4xx_can.c ****   }
 233:../Libraries/STM32F4xx_StdPeriph_Driver/src/stm32f4xx_can.c ****   else 
 234:../Libraries/STM32F4xx_StdPeriph_Driver/src/stm32f4xx_can.c ****   {
 235:../Libraries/STM32F4xx_StdPeriph_Driver/src/stm32f4xx_can.c ****     /* Set the time triggered communication mode */
 236:../Libraries/STM32F4xx_StdPeriph_Driver/src/stm32f4xx_can.c ****     if (CAN_InitStruct->CAN_TTCM == ENABLE)
 24736              		.loc 1 236 0
 24737 00b2 3B68     		ldr	r3, [r7, #0]
 24738 00b4 9B79     		ldrb	r3, [r3, #6]	@ zero_extendqisi2
 24739 00b6 012B     		cmp	r3, #1
 24740 00b8 06D1     		bne	.L12
 237:../Libraries/STM32F4xx_StdPeriph_Driver/src/stm32f4xx_can.c ****     {
 238:../Libraries/STM32F4xx_StdPeriph_Driver/src/stm32f4xx_can.c ****       CANx->MCR |= CAN_MCR_TTCM;
 24741              		.loc 1 238 0
 24742 00ba 7B68     		ldr	r3, [r7, #4]
 24743 00bc 1B68     		ldr	r3, [r3, #0]
 24744 00be 43F08002 		orr	r2, r3, #128
 24745 00c2 7B68     		ldr	r3, [r7, #4]
 24746 00c4 1A60     		str	r2, [r3, #0]
 24747 00c6 05E0     		b	.L13
 24748              	.L12:
 239:../Libraries/STM32F4xx_StdPeriph_Driver/src/stm32f4xx_can.c ****     }
 240:../Libraries/STM32F4xx_StdPeriph_Driver/src/stm32f4xx_can.c ****     else
 241:../Libraries/STM32F4xx_StdPeriph_Driver/src/stm32f4xx_can.c ****     {
 242:../Libraries/STM32F4xx_StdPeriph_Driver/src/stm32f4xx_can.c ****       CANx->MCR &= ~(uint32_t)CAN_MCR_TTCM;
 24749              		.loc 1 242 0
 24750 00c8 7B68     		ldr	r3, [r7, #4]
 24751 00ca 1B68     		ldr	r3, [r3, #0]
 24752 00cc 23F08002 		bic	r2, r3, #128
 24753 00d0 7B68     		ldr	r3, [r7, #4]
 24754 00d2 1A60     		str	r2, [r3, #0]
 24755              	.L13:
 243:../Libraries/STM32F4xx_StdPeriph_Driver/src/stm32f4xx_can.c ****     }
 244:../Libraries/STM32F4xx_StdPeriph_Driver/src/stm32f4xx_can.c **** 
 245:../Libraries/STM32F4xx_StdPeriph_Driver/src/stm32f4xx_can.c ****     /* Set the automatic bus-off management */
 246:../Libraries/STM32F4xx_StdPeriph_Driver/src/stm32f4xx_can.c ****     if (CAN_InitStruct->CAN_ABOM == ENABLE)
 24756              		.loc 1 246 0
 24757 00d4 3B68     		ldr	r3, [r7, #0]
 24758 00d6 DB79     		ldrb	r3, [r3, #7]	@ zero_extendqisi2
 24759 00d8 012B     		cmp	r3, #1
 24760 00da 06D1     		bne	.L14
 247:../Libraries/STM32F4xx_StdPeriph_Driver/src/stm32f4xx_can.c ****     {
 248:../Libraries/STM32F4xx_StdPeriph_Driver/src/stm32f4xx_can.c ****       CANx->MCR |= CAN_MCR_ABOM;
 24761              		.loc 1 248 0
 24762 00dc 7B68     		ldr	r3, [r7, #4]
 24763 00de 1B68     		ldr	r3, [r3, #0]
 24764 00e0 43F04002 		orr	r2, r3, #64
 24765 00e4 7B68     		ldr	r3, [r7, #4]
 24766 00e6 1A60     		str	r2, [r3, #0]
 24767 00e8 05E0     		b	.L15
 24768              	.L14:
 249:../Libraries/STM32F4xx_StdPeriph_Driver/src/stm32f4xx_can.c ****     }
 250:../Libraries/STM32F4xx_StdPeriph_Driver/src/stm32f4xx_can.c ****     else
 251:../Libraries/STM32F4xx_StdPeriph_Driver/src/stm32f4xx_can.c ****     {
 252:../Libraries/STM32F4xx_StdPeriph_Driver/src/stm32f4xx_can.c ****       CANx->MCR &= ~(uint32_t)CAN_MCR_ABOM;
 24769              		.loc 1 252 0
 24770 00ea 7B68     		ldr	r3, [r7, #4]
 24771 00ec 1B68     		ldr	r3, [r3, #0]
 24772 00ee 23F04002 		bic	r2, r3, #64
 24773 00f2 7B68     		ldr	r3, [r7, #4]
 24774 00f4 1A60     		str	r2, [r3, #0]
 24775              	.L15:
 253:../Libraries/STM32F4xx_StdPeriph_Driver/src/stm32f4xx_can.c ****     }
 254:../Libraries/STM32F4xx_StdPeriph_Driver/src/stm32f4xx_can.c **** 
 255:../Libraries/STM32F4xx_StdPeriph_Driver/src/stm32f4xx_can.c ****     /* Set the automatic wake-up mode */
 256:../Libraries/STM32F4xx_StdPeriph_Driver/src/stm32f4xx_can.c ****     if (CAN_InitStruct->CAN_AWUM == ENABLE)
 24776              		.loc 1 256 0
 24777 00f6 3B68     		ldr	r3, [r7, #0]
 24778 00f8 1B7A     		ldrb	r3, [r3, #8]	@ zero_extendqisi2
 24779 00fa 012B     		cmp	r3, #1
 24780 00fc 06D1     		bne	.L16
 257:../Libraries/STM32F4xx_StdPeriph_Driver/src/stm32f4xx_can.c ****     {
 258:../Libraries/STM32F4xx_StdPeriph_Driver/src/stm32f4xx_can.c ****       CANx->MCR |= CAN_MCR_AWUM;
 24781              		.loc 1 258 0
 24782 00fe 7B68     		ldr	r3, [r7, #4]
 24783 0100 1B68     		ldr	r3, [r3, #0]
 24784 0102 43F02002 		orr	r2, r3, #32
 24785 0106 7B68     		ldr	r3, [r7, #4]
 24786 0108 1A60     		str	r2, [r3, #0]
 24787 010a 05E0     		b	.L17
 24788              	.L16:
 259:../Libraries/STM32F4xx_StdPeriph_Driver/src/stm32f4xx_can.c ****     }
 260:../Libraries/STM32F4xx_StdPeriph_Driver/src/stm32f4xx_can.c ****     else
 261:../Libraries/STM32F4xx_StdPeriph_Driver/src/stm32f4xx_can.c ****     {
 262:../Libraries/STM32F4xx_StdPeriph_Driver/src/stm32f4xx_can.c ****       CANx->MCR &= ~(uint32_t)CAN_MCR_AWUM;
 24789              		.loc 1 262 0
 24790 010c 7B68     		ldr	r3, [r7, #4]
 24791 010e 1B68     		ldr	r3, [r3, #0]
 24792 0110 23F02002 		bic	r2, r3, #32
 24793 0114 7B68     		ldr	r3, [r7, #4]
 24794 0116 1A60     		str	r2, [r3, #0]
 24795              	.L17:
 263:../Libraries/STM32F4xx_StdPeriph_Driver/src/stm32f4xx_can.c ****     }
 264:../Libraries/STM32F4xx_StdPeriph_Driver/src/stm32f4xx_can.c **** 
 265:../Libraries/STM32F4xx_StdPeriph_Driver/src/stm32f4xx_can.c ****     /* Set the no automatic retransmission */
 266:../Libraries/STM32F4xx_StdPeriph_Driver/src/stm32f4xx_can.c ****     if (CAN_InitStruct->CAN_NART == ENABLE)
 24796              		.loc 1 266 0
 24797 0118 3B68     		ldr	r3, [r7, #0]
 24798 011a 5B7A     		ldrb	r3, [r3, #9]	@ zero_extendqisi2
 24799 011c 012B     		cmp	r3, #1
 24800 011e 06D1     		bne	.L18
 267:../Libraries/STM32F4xx_StdPeriph_Driver/src/stm32f4xx_can.c ****     {
 268:../Libraries/STM32F4xx_StdPeriph_Driver/src/stm32f4xx_can.c ****       CANx->MCR |= CAN_MCR_NART;
 24801              		.loc 1 268 0
 24802 0120 7B68     		ldr	r3, [r7, #4]
 24803 0122 1B68     		ldr	r3, [r3, #0]
 24804 0124 43F01002 		orr	r2, r3, #16
 24805 0128 7B68     		ldr	r3, [r7, #4]
 24806 012a 1A60     		str	r2, [r3, #0]
 24807 012c 05E0     		b	.L19
 24808              	.L18:
 269:../Libraries/STM32F4xx_StdPeriph_Driver/src/stm32f4xx_can.c ****     }
 270:../Libraries/STM32F4xx_StdPeriph_Driver/src/stm32f4xx_can.c ****     else
 271:../Libraries/STM32F4xx_StdPeriph_Driver/src/stm32f4xx_can.c ****     {
 272:../Libraries/STM32F4xx_StdPeriph_Driver/src/stm32f4xx_can.c ****       CANx->MCR &= ~(uint32_t)CAN_MCR_NART;
 24809              		.loc 1 272 0
 24810 012e 7B68     		ldr	r3, [r7, #4]
 24811 0130 1B68     		ldr	r3, [r3, #0]
 24812 0132 23F01002 		bic	r2, r3, #16
 24813 0136 7B68     		ldr	r3, [r7, #4]
 24814 0138 1A60     		str	r2, [r3, #0]
 24815              	.L19:
 273:../Libraries/STM32F4xx_StdPeriph_Driver/src/stm32f4xx_can.c ****     }
 274:../Libraries/STM32F4xx_StdPeriph_Driver/src/stm32f4xx_can.c **** 
 275:../Libraries/STM32F4xx_StdPeriph_Driver/src/stm32f4xx_can.c ****     /* Set the receive FIFO locked mode */
 276:../Libraries/STM32F4xx_StdPeriph_Driver/src/stm32f4xx_can.c ****     if (CAN_InitStruct->CAN_RFLM == ENABLE)
 24816              		.loc 1 276 0
 24817 013a 3B68     		ldr	r3, [r7, #0]
 24818 013c 9B7A     		ldrb	r3, [r3, #10]	@ zero_extendqisi2
 24819 013e 012B     		cmp	r3, #1
 24820 0140 06D1     		bne	.L20
 277:../Libraries/STM32F4xx_StdPeriph_Driver/src/stm32f4xx_can.c ****     {
 278:../Libraries/STM32F4xx_StdPeriph_Driver/src/stm32f4xx_can.c ****       CANx->MCR |= CAN_MCR_RFLM;
 24821              		.loc 1 278 0
 24822 0142 7B68     		ldr	r3, [r7, #4]
 24823 0144 1B68     		ldr	r3, [r3, #0]
 24824 0146 43F00802 		orr	r2, r3, #8
 24825 014a 7B68     		ldr	r3, [r7, #4]
 24826 014c 1A60     		str	r2, [r3, #0]
 24827 014e 05E0     		b	.L21
 24828              	.L20:
 279:../Libraries/STM32F4xx_StdPeriph_Driver/src/stm32f4xx_can.c ****     }
 280:../Libraries/STM32F4xx_StdPeriph_Driver/src/stm32f4xx_can.c ****     else
 281:../Libraries/STM32F4xx_StdPeriph_Driver/src/stm32f4xx_can.c ****     {
 282:../Libraries/STM32F4xx_StdPeriph_Driver/src/stm32f4xx_can.c ****       CANx->MCR &= ~(uint32_t)CAN_MCR_RFLM;
 24829              		.loc 1 282 0
 24830 0150 7B68     		ldr	r3, [r7, #4]
 24831 0152 1B68     		ldr	r3, [r3, #0]
 24832 0154 23F00802 		bic	r2, r3, #8
 24833 0158 7B68     		ldr	r3, [r7, #4]
 24834 015a 1A60     		str	r2, [r3, #0]
 24835              	.L21:
 283:../Libraries/STM32F4xx_StdPeriph_Driver/src/stm32f4xx_can.c ****     }
 284:../Libraries/STM32F4xx_StdPeriph_Driver/src/stm32f4xx_can.c **** 
 285:../Libraries/STM32F4xx_StdPeriph_Driver/src/stm32f4xx_can.c ****     /* Set the transmit FIFO priority */
 286:../Libraries/STM32F4xx_StdPeriph_Driver/src/stm32f4xx_can.c ****     if (CAN_InitStruct->CAN_TXFP == ENABLE)
 24836              		.loc 1 286 0
 24837 015c 3B68     		ldr	r3, [r7, #0]
 24838 015e DB7A     		ldrb	r3, [r3, #11]	@ zero_extendqisi2
 24839 0160 012B     		cmp	r3, #1
 24840 0162 06D1     		bne	.L22
 287:../Libraries/STM32F4xx_StdPeriph_Driver/src/stm32f4xx_can.c ****     {
 288:../Libraries/STM32F4xx_StdPeriph_Driver/src/stm32f4xx_can.c ****       CANx->MCR |= CAN_MCR_TXFP;
 24841              		.loc 1 288 0
 24842 0164 7B68     		ldr	r3, [r7, #4]
 24843 0166 1B68     		ldr	r3, [r3, #0]
 24844 0168 43F00402 		orr	r2, r3, #4
 24845 016c 7B68     		ldr	r3, [r7, #4]
 24846 016e 1A60     		str	r2, [r3, #0]
 24847 0170 05E0     		b	.L23
 24848              	.L22:
 289:../Libraries/STM32F4xx_StdPeriph_Driver/src/stm32f4xx_can.c ****     }
 290:../Libraries/STM32F4xx_StdPeriph_Driver/src/stm32f4xx_can.c ****     else
 291:../Libraries/STM32F4xx_StdPeriph_Driver/src/stm32f4xx_can.c ****     {
 292:../Libraries/STM32F4xx_StdPeriph_Driver/src/stm32f4xx_can.c ****       CANx->MCR &= ~(uint32_t)CAN_MCR_TXFP;
 24849              		.loc 1 292 0
 24850 0172 7B68     		ldr	r3, [r7, #4]
 24851 0174 1B68     		ldr	r3, [r3, #0]
 24852 0176 23F00402 		bic	r2, r3, #4
 24853 017a 7B68     		ldr	r3, [r7, #4]
 24854 017c 1A60     		str	r2, [r3, #0]
 24855              	.L23:
 293:../Libraries/STM32F4xx_StdPeriph_Driver/src/stm32f4xx_can.c ****     }
 294:../Libraries/STM32F4xx_StdPeriph_Driver/src/stm32f4xx_can.c **** 
 295:../Libraries/STM32F4xx_StdPeriph_Driver/src/stm32f4xx_can.c ****     /* Set the bit timing register */
 296:../Libraries/STM32F4xx_StdPeriph_Driver/src/stm32f4xx_can.c ****     CANx->BTR = (uint32_t)((uint32_t)CAN_InitStruct->CAN_Mode << 30) | \
 24856              		.loc 1 296 0
 24857 017e 3B68     		ldr	r3, [r7, #0]
 24858 0180 9B78     		ldrb	r3, [r3, #2]	@ zero_extendqisi2
 24859 0182 4FEA8372 		lsl	r2, r3, #30
 297:../Libraries/STM32F4xx_StdPeriph_Driver/src/stm32f4xx_can.c ****                 ((uint32_t)CAN_InitStruct->CAN_SJW << 24) | \
 24860              		.loc 1 297 0
 24861 0186 3B68     		ldr	r3, [r7, #0]
 24862 0188 DB78     		ldrb	r3, [r3, #3]	@ zero_extendqisi2
 24863 018a 4FEA0363 		lsl	r3, r3, #24
 296:../Libraries/STM32F4xx_StdPeriph_Driver/src/stm32f4xx_can.c ****     CANx->BTR = (uint32_t)((uint32_t)CAN_InitStruct->CAN_Mode << 30) | \
 24864              		.loc 1 296 0
 24865 018e 1A43     		orrs	r2, r2, r3
 298:../Libraries/STM32F4xx_StdPeriph_Driver/src/stm32f4xx_can.c ****                 ((uint32_t)CAN_InitStruct->CAN_BS1 << 16) | \
 24866              		.loc 1 298 0
 24867 0190 3B68     		ldr	r3, [r7, #0]
 24868 0192 1B79     		ldrb	r3, [r3, #4]	@ zero_extendqisi2
 24869 0194 4FEA0343 		lsl	r3, r3, #16
 297:../Libraries/STM32F4xx_StdPeriph_Driver/src/stm32f4xx_can.c ****                 ((uint32_t)CAN_InitStruct->CAN_SJW << 24) | \
 24870              		.loc 1 297 0
 24871 0198 1A43     		orrs	r2, r2, r3
 299:../Libraries/STM32F4xx_StdPeriph_Driver/src/stm32f4xx_can.c ****                 ((uint32_t)CAN_InitStruct->CAN_BS2 << 20) | \
 24872              		.loc 1 299 0
 24873 019a 3B68     		ldr	r3, [r7, #0]
 24874 019c 5B79     		ldrb	r3, [r3, #5]	@ zero_extendqisi2
 24875 019e 4FEA0353 		lsl	r3, r3, #20
 298:../Libraries/STM32F4xx_StdPeriph_Driver/src/stm32f4xx_can.c ****                 ((uint32_t)CAN_InitStruct->CAN_BS1 << 16) | \
 24876              		.loc 1 298 0
 24877 01a2 1A43     		orrs	r2, r2, r3
 300:../Libraries/STM32F4xx_StdPeriph_Driver/src/stm32f4xx_can.c ****                ((uint32_t)CAN_InitStruct->CAN_Prescaler - 1);
 24878              		.loc 1 300 0
 24879 01a4 3B68     		ldr	r3, [r7, #0]
 24880 01a6 1B88     		ldrh	r3, [r3, #0]
 24881 01a8 03F1FF33 		add	r3, r3, #-1
 299:../Libraries/STM32F4xx_StdPeriph_Driver/src/stm32f4xx_can.c ****                 ((uint32_t)CAN_InitStruct->CAN_BS2 << 20) | \
 24882              		.loc 1 299 0
 24883 01ac 1A43     		orrs	r2, r2, r3
 296:../Libraries/STM32F4xx_StdPeriph_Driver/src/stm32f4xx_can.c ****     CANx->BTR = (uint32_t)((uint32_t)CAN_InitStruct->CAN_Mode << 30) | \
 24884              		.loc 1 296 0
 24885 01ae 7B68     		ldr	r3, [r7, #4]
 24886 01b0 DA61     		str	r2, [r3, #28]
 301:../Libraries/STM32F4xx_StdPeriph_Driver/src/stm32f4xx_can.c **** 
 302:../Libraries/STM32F4xx_StdPeriph_Driver/src/stm32f4xx_can.c ****     /* Request leave initialisation */
 303:../Libraries/STM32F4xx_StdPeriph_Driver/src/stm32f4xx_can.c ****     CANx->MCR &= ~(uint32_t)CAN_MCR_INRQ;
 24887              		.loc 1 303 0
 24888 01b2 7B68     		ldr	r3, [r7, #4]
 24889 01b4 1B68     		ldr	r3, [r3, #0]
 24890 01b6 23F00102 		bic	r2, r3, #1
 24891 01ba 7B68     		ldr	r3, [r7, #4]
 24892 01bc 1A60     		str	r2, [r3, #0]
 304:../Libraries/STM32F4xx_StdPeriph_Driver/src/stm32f4xx_can.c **** 
 305:../Libraries/STM32F4xx_StdPeriph_Driver/src/stm32f4xx_can.c ****    /* Wait the acknowledge */
 306:../Libraries/STM32F4xx_StdPeriph_Driver/src/stm32f4xx_can.c ****    wait_ack = 0;
 24893              		.loc 1 306 0
 24894 01be 4FF00003 		mov	r3, #0
 24895 01c2 BB60     		str	r3, [r7, #8]
 307:../Libraries/STM32F4xx_StdPeriph_Driver/src/stm32f4xx_can.c **** 
 308:../Libraries/STM32F4xx_StdPeriph_Driver/src/stm32f4xx_can.c ****    while (((CANx->MSR & CAN_MSR_INAK) == CAN_MSR_INAK) && (wait_ack != INAK_TIMEOUT))
 24896              		.loc 1 308 0
 24897 01c4 03E0     		b	.L24
 24898              	.L26:
 309:../Libraries/STM32F4xx_StdPeriph_Driver/src/stm32f4xx_can.c ****    {
 310:../Libraries/STM32F4xx_StdPeriph_Driver/src/stm32f4xx_can.c ****      wait_ack++;
 24899              		.loc 1 310 0
 24900 01c6 BB68     		ldr	r3, [r7, #8]
 24901 01c8 03F10103 		add	r3, r3, #1
 24902 01cc BB60     		str	r3, [r7, #8]
 24903              	.L24:
 308:../Libraries/STM32F4xx_StdPeriph_Driver/src/stm32f4xx_can.c ****    while (((CANx->MSR & CAN_MSR_INAK) == CAN_MSR_INAK) && (wait_ack != INAK_TIMEOUT))
 24904              		.loc 1 308 0 discriminator 1
 24905 01ce 7B68     		ldr	r3, [r7, #4]
 24906 01d0 5B68     		ldr	r3, [r3, #4]
 24907 01d2 03F00103 		and	r3, r3, #1
 24908 01d6 DBB2     		uxtb	r3, r3
 24909 01d8 002B     		cmp	r3, #0
 24910 01da 04D0     		beq	.L25
 308:../Libraries/STM32F4xx_StdPeriph_Driver/src/stm32f4xx_can.c ****    while (((CANx->MSR & CAN_MSR_INAK) == CAN_MSR_INAK) && (wait_ack != INAK_TIMEOUT))
 24911              		.loc 1 308 0 is_stmt 0 discriminator 2
 24912 01dc BA68     		ldr	r2, [r7, #8]
 24913 01de 4FF6FF73 		movw	r3, #65535
 24914 01e2 9A42     		cmp	r2, r3
 24915 01e4 EFD1     		bne	.L26
 24916              	.L25:
 311:../Libraries/STM32F4xx_StdPeriph_Driver/src/stm32f4xx_can.c ****    }
 312:../Libraries/STM32F4xx_StdPeriph_Driver/src/stm32f4xx_can.c **** 
 313:../Libraries/STM32F4xx_StdPeriph_Driver/src/stm32f4xx_can.c ****     /* ...and check acknowledged */
 314:../Libraries/STM32F4xx_StdPeriph_Driver/src/stm32f4xx_can.c ****     if ((CANx->MSR & CAN_MSR_INAK) == CAN_MSR_INAK)
 24917              		.loc 1 314 0 is_stmt 1
 24918 01e6 7B68     		ldr	r3, [r7, #4]
 24919 01e8 5B68     		ldr	r3, [r3, #4]
 24920 01ea 03F00103 		and	r3, r3, #1
 24921 01ee DBB2     		uxtb	r3, r3
 24922 01f0 002B     		cmp	r3, #0
 24923 01f2 03D0     		beq	.L27
 315:../Libraries/STM32F4xx_StdPeriph_Driver/src/stm32f4xx_can.c ****     {
 316:../Libraries/STM32F4xx_StdPeriph_Driver/src/stm32f4xx_can.c ****       InitStatus = CAN_InitStatus_Failed;
 24924              		.loc 1 316 0
 24925 01f4 4FF00003 		mov	r3, #0
 24926 01f8 FB73     		strb	r3, [r7, #15]
 24927 01fa 02E0     		b	.L11
 24928              	.L27:
 317:../Libraries/STM32F4xx_StdPeriph_Driver/src/stm32f4xx_can.c ****     }
 318:../Libraries/STM32F4xx_StdPeriph_Driver/src/stm32f4xx_can.c ****     else
 319:../Libraries/STM32F4xx_StdPeriph_Driver/src/stm32f4xx_can.c ****     {
 320:../Libraries/STM32F4xx_StdPeriph_Driver/src/stm32f4xx_can.c ****       InitStatus = CAN_InitStatus_Success ;
 24929              		.loc 1 320 0
 24930 01fc 4FF00103 		mov	r3, #1
 24931 0200 FB73     		strb	r3, [r7, #15]
 24932              	.L11:
 321:../Libraries/STM32F4xx_StdPeriph_Driver/src/stm32f4xx_can.c ****     }
 322:../Libraries/STM32F4xx_StdPeriph_Driver/src/stm32f4xx_can.c ****   }
 323:../Libraries/STM32F4xx_StdPeriph_Driver/src/stm32f4xx_can.c **** 
 324:../Libraries/STM32F4xx_StdPeriph_Driver/src/stm32f4xx_can.c ****   /* At this step, return the status of initialization */
 325:../Libraries/STM32F4xx_StdPeriph_Driver/src/stm32f4xx_can.c ****   return InitStatus;
 24933              		.loc 1 325 0
 24934 0202 FB7B     		ldrb	r3, [r7, #15]	@ zero_extendqisi2
 326:../Libraries/STM32F4xx_StdPeriph_Driver/src/stm32f4xx_can.c **** }
 24935              		.loc 1 326 0
 24936 0204 1846     		mov	r0, r3
 24937 0206 07F11407 		add	r7, r7, #20
 24938 020a BD46     		mov	sp, r7
 24939 020c 80BC     		pop	{r7}
 24940 020e 7047     		bx	lr
 24941              		.cfi_endproc
 24942              	.LFE111:
 24944              		.align	2
 24945              		.global	CAN_FilterInit
 24946              		.thumb
 24947              		.thumb_func
 24949              	CAN_FilterInit:
 24950              	.LFB112:
 327:../Libraries/STM32F4xx_StdPeriph_Driver/src/stm32f4xx_can.c **** 
 328:../Libraries/STM32F4xx_StdPeriph_Driver/src/stm32f4xx_can.c **** /**
 329:../Libraries/STM32F4xx_StdPeriph_Driver/src/stm32f4xx_can.c ****   * @brief  Configures the CAN reception filter according to the specified
 330:../Libraries/STM32F4xx_StdPeriph_Driver/src/stm32f4xx_can.c ****   *         parameters in the CAN_FilterInitStruct.
 331:../Libraries/STM32F4xx_StdPeriph_Driver/src/stm32f4xx_can.c ****   * @param  CAN_FilterInitStruct: pointer to a CAN_FilterInitTypeDef structure that
 332:../Libraries/STM32F4xx_StdPeriph_Driver/src/stm32f4xx_can.c ****   *         contains the configuration information.
 333:../Libraries/STM32F4xx_StdPeriph_Driver/src/stm32f4xx_can.c ****   * @retval None
 334:../Libraries/STM32F4xx_StdPeriph_Driver/src/stm32f4xx_can.c ****   */
 335:../Libraries/STM32F4xx_StdPeriph_Driver/src/stm32f4xx_can.c **** void CAN_FilterInit(CAN_FilterInitTypeDef* CAN_FilterInitStruct)
 336:../Libraries/STM32F4xx_StdPeriph_Driver/src/stm32f4xx_can.c **** {
 24951              		.loc 1 336 0
 24952              		.cfi_startproc
 24953              		@ args = 0, pretend = 0, frame = 16
 24954              		@ frame_needed = 1, uses_anonymous_args = 0
 24955              		@ link register save eliminated.
 24956 0210 80B4     		push	{r7}
 24957              	.LCFI6:
 24958              		.cfi_def_cfa_offset 4
 24959 0212 85B0     		sub	sp, sp, #20
 24960              	.LCFI7:
 24961              		.cfi_def_cfa_offset 24
 24962 0214 00AF     		add	r7, sp, #0
 24963              		.cfi_offset 7, -4
 24964              	.LCFI8:
 24965              		.cfi_def_cfa_register 7
 24966 0216 7860     		str	r0, [r7, #4]
 337:../Libraries/STM32F4xx_StdPeriph_Driver/src/stm32f4xx_can.c ****   uint32_t filter_number_bit_pos = 0;
 24967              		.loc 1 337 0
 24968 0218 4FF00003 		mov	r3, #0
 24969 021c FB60     		str	r3, [r7, #12]
 338:../Libraries/STM32F4xx_StdPeriph_Driver/src/stm32f4xx_can.c ****   /* Check the parameters */
 339:../Libraries/STM32F4xx_StdPeriph_Driver/src/stm32f4xx_can.c ****   assert_param(IS_CAN_FILTER_NUMBER(CAN_FilterInitStruct->CAN_FilterNumber));
 340:../Libraries/STM32F4xx_StdPeriph_Driver/src/stm32f4xx_can.c ****   assert_param(IS_CAN_FILTER_MODE(CAN_FilterInitStruct->CAN_FilterMode));
 341:../Libraries/STM32F4xx_StdPeriph_Driver/src/stm32f4xx_can.c ****   assert_param(IS_CAN_FILTER_SCALE(CAN_FilterInitStruct->CAN_FilterScale));
 342:../Libraries/STM32F4xx_StdPeriph_Driver/src/stm32f4xx_can.c ****   assert_param(IS_CAN_FILTER_FIFO(CAN_FilterInitStruct->CAN_FilterFIFOAssignment));
 343:../Libraries/STM32F4xx_StdPeriph_Driver/src/stm32f4xx_can.c ****   assert_param(IS_FUNCTIONAL_STATE(CAN_FilterInitStruct->CAN_FilterActivation));
 344:../Libraries/STM32F4xx_StdPeriph_Driver/src/stm32f4xx_can.c **** 
 345:../Libraries/STM32F4xx_StdPeriph_Driver/src/stm32f4xx_can.c ****   filter_number_bit_pos = ((uint32_t)1) << CAN_FilterInitStruct->CAN_FilterNumber;
 24970              		.loc 1 345 0
 24971 021e 7B68     		ldr	r3, [r7, #4]
 24972 0220 9B7A     		ldrb	r3, [r3, #10]	@ zero_extendqisi2
 24973 0222 4FF00102 		mov	r2, #1
 24974 0226 02FA03F3 		lsl	r3, r2, r3
 24975 022a FB60     		str	r3, [r7, #12]
 346:../Libraries/STM32F4xx_StdPeriph_Driver/src/stm32f4xx_can.c **** 
 347:../Libraries/STM32F4xx_StdPeriph_Driver/src/stm32f4xx_can.c ****   /* Initialisation mode for the filter */
 348:../Libraries/STM32F4xx_StdPeriph_Driver/src/stm32f4xx_can.c ****   CAN1->FMR |= FMR_FINIT;
 24976              		.loc 1 348 0
 24977 022c 5E4B     		ldr	r3, .L36
 24978 022e 5E4A     		ldr	r2, .L36
 24979 0230 D2F80022 		ldr	r2, [r2, #512]
 24980 0234 42F00102 		orr	r2, r2, #1
 24981 0238 C3F80022 		str	r2, [r3, #512]
 349:../Libraries/STM32F4xx_StdPeriph_Driver/src/stm32f4xx_can.c **** 
 350:../Libraries/STM32F4xx_StdPeriph_Driver/src/stm32f4xx_can.c ****   /* Filter Deactivation */
 351:../Libraries/STM32F4xx_StdPeriph_Driver/src/stm32f4xx_can.c ****   CAN1->FA1R &= ~(uint32_t)filter_number_bit_pos;
 24982              		.loc 1 351 0
 24983 023c 5A4B     		ldr	r3, .L36
 24984 023e 5A4A     		ldr	r2, .L36
 24985 0240 D2F81C12 		ldr	r1, [r2, #540]
 24986 0244 FA68     		ldr	r2, [r7, #12]
 24987 0246 6FEA0202 		mvn	r2, r2
 24988 024a 01EA0202 		and	r2, r1, r2
 24989 024e C3F81C22 		str	r2, [r3, #540]
 352:../Libraries/STM32F4xx_StdPeriph_Driver/src/stm32f4xx_can.c **** 
 353:../Libraries/STM32F4xx_StdPeriph_Driver/src/stm32f4xx_can.c ****   /* Filter Scale */
 354:../Libraries/STM32F4xx_StdPeriph_Driver/src/stm32f4xx_can.c ****   if (CAN_FilterInitStruct->CAN_FilterScale == CAN_FilterScale_16bit)
 24990              		.loc 1 354 0
 24991 0252 7B68     		ldr	r3, [r7, #4]
 24992 0254 1B7B     		ldrb	r3, [r3, #12]	@ zero_extendqisi2
 24993 0256 002B     		cmp	r3, #0
 24994 0258 2AD1     		bne	.L29
 355:../Libraries/STM32F4xx_StdPeriph_Driver/src/stm32f4xx_can.c ****   {
 356:../Libraries/STM32F4xx_StdPeriph_Driver/src/stm32f4xx_can.c ****     /* 16-bit scale for the filter */
 357:../Libraries/STM32F4xx_StdPeriph_Driver/src/stm32f4xx_can.c ****     CAN1->FS1R &= ~(uint32_t)filter_number_bit_pos;
 24995              		.loc 1 357 0
 24996 025a 534B     		ldr	r3, .L36
 24997 025c 524A     		ldr	r2, .L36
 24998 025e D2F80C12 		ldr	r1, [r2, #524]
 24999 0262 FA68     		ldr	r2, [r7, #12]
 25000 0264 6FEA0202 		mvn	r2, r2
 25001 0268 01EA0202 		and	r2, r1, r2
 25002 026c C3F80C22 		str	r2, [r3, #524]
 358:../Libraries/STM32F4xx_StdPeriph_Driver/src/stm32f4xx_can.c **** 
 359:../Libraries/STM32F4xx_StdPeriph_Driver/src/stm32f4xx_can.c ****     /* First 16-bit identifier and First 16-bit mask */
 360:../Libraries/STM32F4xx_StdPeriph_Driver/src/stm32f4xx_can.c ****     /* Or First 16-bit identifier and Second 16-bit identifier */
 361:../Libraries/STM32F4xx_StdPeriph_Driver/src/stm32f4xx_can.c ****     CAN1->sFilterRegister[CAN_FilterInitStruct->CAN_FilterNumber].FR1 = 
 25003              		.loc 1 361 0
 25004 0270 4D4B     		ldr	r3, .L36
 25005 0272 7A68     		ldr	r2, [r7, #4]
 25006 0274 927A     		ldrb	r2, [r2, #10]	@ zero_extendqisi2
 362:../Libraries/STM32F4xx_StdPeriph_Driver/src/stm32f4xx_can.c ****        ((0x0000FFFF & (uint32_t)CAN_FilterInitStruct->CAN_FilterMaskIdLow) << 16) |
 25007              		.loc 1 362 0
 25008 0276 7968     		ldr	r1, [r7, #4]
 25009 0278 C988     		ldrh	r1, [r1, #6]
 25010 027a 4FEA0140 		lsl	r0, r1, #16
 363:../Libraries/STM32F4xx_StdPeriph_Driver/src/stm32f4xx_can.c ****         (0x0000FFFF & (uint32_t)CAN_FilterInitStruct->CAN_FilterIdLow);
 25011              		.loc 1 363 0
 25012 027e 7968     		ldr	r1, [r7, #4]
 25013 0280 4988     		ldrh	r1, [r1, #2]
 362:../Libraries/STM32F4xx_StdPeriph_Driver/src/stm32f4xx_can.c ****        ((0x0000FFFF & (uint32_t)CAN_FilterInitStruct->CAN_FilterMaskIdLow) << 16) |
 25014              		.loc 1 362 0
 25015 0282 40EA0101 		orr	r1, r0, r1
 361:../Libraries/STM32F4xx_StdPeriph_Driver/src/stm32f4xx_can.c ****     CAN1->sFilterRegister[CAN_FilterInitStruct->CAN_FilterNumber].FR1 = 
 25016              		.loc 1 361 0
 25017 0286 02F14802 		add	r2, r2, #72
 25018 028a 43F83210 		str	r1, [r3, r2, lsl #3]
 364:../Libraries/STM32F4xx_StdPeriph_Driver/src/stm32f4xx_can.c **** 
 365:../Libraries/STM32F4xx_StdPeriph_Driver/src/stm32f4xx_can.c ****     /* Second 16-bit identifier and Second 16-bit mask */
 366:../Libraries/STM32F4xx_StdPeriph_Driver/src/stm32f4xx_can.c ****     /* Or Third 16-bit identifier and Fourth 16-bit identifier */
 367:../Libraries/STM32F4xx_StdPeriph_Driver/src/stm32f4xx_can.c ****     CAN1->sFilterRegister[CAN_FilterInitStruct->CAN_FilterNumber].FR2 = 
 25019              		.loc 1 367 0
 25020 028e 4649     		ldr	r1, .L36
 25021 0290 7B68     		ldr	r3, [r7, #4]
 25022 0292 9B7A     		ldrb	r3, [r3, #10]	@ zero_extendqisi2
 368:../Libraries/STM32F4xx_StdPeriph_Driver/src/stm32f4xx_can.c ****        ((0x0000FFFF & (uint32_t)CAN_FilterInitStruct->CAN_FilterMaskIdHigh) << 16) |
 25023              		.loc 1 368 0
 25024 0294 7A68     		ldr	r2, [r7, #4]
 25025 0296 9288     		ldrh	r2, [r2, #4]
 25026 0298 4FEA0240 		lsl	r0, r2, #16
 369:../Libraries/STM32F4xx_StdPeriph_Driver/src/stm32f4xx_can.c ****         (0x0000FFFF & (uint32_t)CAN_FilterInitStruct->CAN_FilterIdHigh);
 25027              		.loc 1 369 0
 25028 029c 7A68     		ldr	r2, [r7, #4]
 25029 029e 1288     		ldrh	r2, [r2, #0]
 368:../Libraries/STM32F4xx_StdPeriph_Driver/src/stm32f4xx_can.c ****        ((0x0000FFFF & (uint32_t)CAN_FilterInitStruct->CAN_FilterMaskIdHigh) << 16) |
 25030              		.loc 1 368 0
 25031 02a0 40EA0202 		orr	r2, r0, r2
 367:../Libraries/STM32F4xx_StdPeriph_Driver/src/stm32f4xx_can.c ****     CAN1->sFilterRegister[CAN_FilterInitStruct->CAN_FilterNumber].FR2 = 
 25032              		.loc 1 367 0
 25033 02a4 03F14803 		add	r3, r3, #72
 25034 02a8 4FEAC303 		lsl	r3, r3, #3
 25035 02ac CB18     		adds	r3, r1, r3
 25036 02ae 5A60     		str	r2, [r3, #4]
 25037              	.L29:
 370:../Libraries/STM32F4xx_StdPeriph_Driver/src/stm32f4xx_can.c ****   }
 371:../Libraries/STM32F4xx_StdPeriph_Driver/src/stm32f4xx_can.c **** 
 372:../Libraries/STM32F4xx_StdPeriph_Driver/src/stm32f4xx_can.c ****   if (CAN_FilterInitStruct->CAN_FilterScale == CAN_FilterScale_32bit)
 25038              		.loc 1 372 0
 25039 02b0 7B68     		ldr	r3, [r7, #4]
 25040 02b2 1B7B     		ldrb	r3, [r3, #12]	@ zero_extendqisi2
 25041 02b4 012B     		cmp	r3, #1
 25042 02b6 28D1     		bne	.L30
 373:../Libraries/STM32F4xx_StdPeriph_Driver/src/stm32f4xx_can.c ****   {
 374:../Libraries/STM32F4xx_StdPeriph_Driver/src/stm32f4xx_can.c ****     /* 32-bit scale for the filter */
 375:../Libraries/STM32F4xx_StdPeriph_Driver/src/stm32f4xx_can.c ****     CAN1->FS1R |= filter_number_bit_pos;
 25043              		.loc 1 375 0
 25044 02b8 3B4B     		ldr	r3, .L36
 25045 02ba 3B4A     		ldr	r2, .L36
 25046 02bc D2F80C12 		ldr	r1, [r2, #524]
 25047 02c0 FA68     		ldr	r2, [r7, #12]
 25048 02c2 41EA0202 		orr	r2, r1, r2
 25049 02c6 C3F80C22 		str	r2, [r3, #524]
 376:../Libraries/STM32F4xx_StdPeriph_Driver/src/stm32f4xx_can.c ****     /* 32-bit identifier or First 32-bit identifier */
 377:../Libraries/STM32F4xx_StdPeriph_Driver/src/stm32f4xx_can.c ****     CAN1->sFilterRegister[CAN_FilterInitStruct->CAN_FilterNumber].FR1 = 
 25050              		.loc 1 377 0
 25051 02ca 374B     		ldr	r3, .L36
 25052 02cc 7A68     		ldr	r2, [r7, #4]
 25053 02ce 927A     		ldrb	r2, [r2, #10]	@ zero_extendqisi2
 378:../Libraries/STM32F4xx_StdPeriph_Driver/src/stm32f4xx_can.c ****        ((0x0000FFFF & (uint32_t)CAN_FilterInitStruct->CAN_FilterIdHigh) << 16) |
 25054              		.loc 1 378 0
 25055 02d0 7968     		ldr	r1, [r7, #4]
 25056 02d2 0988     		ldrh	r1, [r1, #0]
 25057 02d4 4FEA0140 		lsl	r0, r1, #16
 379:../Libraries/STM32F4xx_StdPeriph_Driver/src/stm32f4xx_can.c ****         (0x0000FFFF & (uint32_t)CAN_FilterInitStruct->CAN_FilterIdLow);
 25058              		.loc 1 379 0
 25059 02d8 7968     		ldr	r1, [r7, #4]
 25060 02da 4988     		ldrh	r1, [r1, #2]
 378:../Libraries/STM32F4xx_StdPeriph_Driver/src/stm32f4xx_can.c ****        ((0x0000FFFF & (uint32_t)CAN_FilterInitStruct->CAN_FilterIdHigh) << 16) |
 25061              		.loc 1 378 0
 25062 02dc 40EA0101 		orr	r1, r0, r1
 377:../Libraries/STM32F4xx_StdPeriph_Driver/src/stm32f4xx_can.c ****     CAN1->sFilterRegister[CAN_FilterInitStruct->CAN_FilterNumber].FR1 = 
 25063              		.loc 1 377 0
 25064 02e0 02F14802 		add	r2, r2, #72
 25065 02e4 43F83210 		str	r1, [r3, r2, lsl #3]
 380:../Libraries/STM32F4xx_StdPeriph_Driver/src/stm32f4xx_can.c ****     /* 32-bit mask or Second 32-bit identifier */
 381:../Libraries/STM32F4xx_StdPeriph_Driver/src/stm32f4xx_can.c ****     CAN1->sFilterRegister[CAN_FilterInitStruct->CAN_FilterNumber].FR2 = 
 25066              		.loc 1 381 0
 25067 02e8 2F49     		ldr	r1, .L36
 25068 02ea 7B68     		ldr	r3, [r7, #4]
 25069 02ec 9B7A     		ldrb	r3, [r3, #10]	@ zero_extendqisi2
 382:../Libraries/STM32F4xx_StdPeriph_Driver/src/stm32f4xx_can.c ****        ((0x0000FFFF & (uint32_t)CAN_FilterInitStruct->CAN_FilterMaskIdHigh) << 16) |
 25070              		.loc 1 382 0
 25071 02ee 7A68     		ldr	r2, [r7, #4]
 25072 02f0 9288     		ldrh	r2, [r2, #4]
 25073 02f2 4FEA0240 		lsl	r0, r2, #16
 383:../Libraries/STM32F4xx_StdPeriph_Driver/src/stm32f4xx_can.c ****         (0x0000FFFF & (uint32_t)CAN_FilterInitStruct->CAN_FilterMaskIdLow);
 25074              		.loc 1 383 0
 25075 02f6 7A68     		ldr	r2, [r7, #4]
 25076 02f8 D288     		ldrh	r2, [r2, #6]
 382:../Libraries/STM32F4xx_StdPeriph_Driver/src/stm32f4xx_can.c ****        ((0x0000FFFF & (uint32_t)CAN_FilterInitStruct->CAN_FilterMaskIdHigh) << 16) |
 25077              		.loc 1 382 0
 25078 02fa 40EA0202 		orr	r2, r0, r2
 381:../Libraries/STM32F4xx_StdPeriph_Driver/src/stm32f4xx_can.c ****     CAN1->sFilterRegister[CAN_FilterInitStruct->CAN_FilterNumber].FR2 = 
 25079              		.loc 1 381 0
 25080 02fe 03F14803 		add	r3, r3, #72
 25081 0302 4FEAC303 		lsl	r3, r3, #3
 25082 0306 CB18     		adds	r3, r1, r3
 25083 0308 5A60     		str	r2, [r3, #4]
 25084              	.L30:
 384:../Libraries/STM32F4xx_StdPeriph_Driver/src/stm32f4xx_can.c ****   }
 385:../Libraries/STM32F4xx_StdPeriph_Driver/src/stm32f4xx_can.c **** 
 386:../Libraries/STM32F4xx_StdPeriph_Driver/src/stm32f4xx_can.c ****   /* Filter Mode */
 387:../Libraries/STM32F4xx_StdPeriph_Driver/src/stm32f4xx_can.c ****   if (CAN_FilterInitStruct->CAN_FilterMode == CAN_FilterMode_IdMask)
 25085              		.loc 1 387 0
 25086 030a 7B68     		ldr	r3, [r7, #4]
 25087 030c DB7A     		ldrb	r3, [r3, #11]	@ zero_extendqisi2
 25088 030e 002B     		cmp	r3, #0
 25089 0310 0BD1     		bne	.L31
 388:../Libraries/STM32F4xx_StdPeriph_Driver/src/stm32f4xx_can.c ****   {
 389:../Libraries/STM32F4xx_StdPeriph_Driver/src/stm32f4xx_can.c ****     /*Id/Mask mode for the filter*/
 390:../Libraries/STM32F4xx_StdPeriph_Driver/src/stm32f4xx_can.c ****     CAN1->FM1R &= ~(uint32_t)filter_number_bit_pos;
 25090              		.loc 1 390 0
 25091 0312 254B     		ldr	r3, .L36
 25092 0314 244A     		ldr	r2, .L36
 25093 0316 D2F80412 		ldr	r1, [r2, #516]
 25094 031a FA68     		ldr	r2, [r7, #12]
 25095 031c 6FEA0202 		mvn	r2, r2
 25096 0320 01EA0202 		and	r2, r1, r2
 25097 0324 C3F80422 		str	r2, [r3, #516]
 25098 0328 08E0     		b	.L32
 25099              	.L31:
 391:../Libraries/STM32F4xx_StdPeriph_Driver/src/stm32f4xx_can.c ****   }
 392:../Libraries/STM32F4xx_StdPeriph_Driver/src/stm32f4xx_can.c ****   else /* CAN_FilterInitStruct->CAN_FilterMode == CAN_FilterMode_IdList */
 393:../Libraries/STM32F4xx_StdPeriph_Driver/src/stm32f4xx_can.c ****   {
 394:../Libraries/STM32F4xx_StdPeriph_Driver/src/stm32f4xx_can.c ****     /*Identifier list mode for the filter*/
 395:../Libraries/STM32F4xx_StdPeriph_Driver/src/stm32f4xx_can.c ****     CAN1->FM1R |= (uint32_t)filter_number_bit_pos;
 25100              		.loc 1 395 0
 25101 032a 1F4B     		ldr	r3, .L36
 25102 032c 1E4A     		ldr	r2, .L36
 25103 032e D2F80412 		ldr	r1, [r2, #516]
 25104 0332 FA68     		ldr	r2, [r7, #12]
 25105 0334 41EA0202 		orr	r2, r1, r2
 25106 0338 C3F80422 		str	r2, [r3, #516]
 25107              	.L32:
 396:../Libraries/STM32F4xx_StdPeriph_Driver/src/stm32f4xx_can.c ****   }
 397:../Libraries/STM32F4xx_StdPeriph_Driver/src/stm32f4xx_can.c **** 
 398:../Libraries/STM32F4xx_StdPeriph_Driver/src/stm32f4xx_can.c ****   /* Filter FIFO assignment */
 399:../Libraries/STM32F4xx_StdPeriph_Driver/src/stm32f4xx_can.c ****   if (CAN_FilterInitStruct->CAN_FilterFIFOAssignment == CAN_Filter_FIFO0)
 25108              		.loc 1 399 0
 25109 033c 7B68     		ldr	r3, [r7, #4]
 25110 033e 1B89     		ldrh	r3, [r3, #8]
 25111 0340 002B     		cmp	r3, #0
 25112 0342 0AD1     		bne	.L33
 400:../Libraries/STM32F4xx_StdPeriph_Driver/src/stm32f4xx_can.c ****   {
 401:../Libraries/STM32F4xx_StdPeriph_Driver/src/stm32f4xx_can.c ****     /* FIFO 0 assignation for the filter */
 402:../Libraries/STM32F4xx_StdPeriph_Driver/src/stm32f4xx_can.c ****     CAN1->FFA1R &= ~(uint32_t)filter_number_bit_pos;
 25113              		.loc 1 402 0
 25114 0344 184B     		ldr	r3, .L36
 25115 0346 184A     		ldr	r2, .L36
 25116 0348 D2F81412 		ldr	r1, [r2, #532]
 25117 034c FA68     		ldr	r2, [r7, #12]
 25118 034e 6FEA0202 		mvn	r2, r2
 25119 0352 01EA0202 		and	r2, r1, r2
 25120 0356 C3F81422 		str	r2, [r3, #532]
 25121              	.L33:
 403:../Libraries/STM32F4xx_StdPeriph_Driver/src/stm32f4xx_can.c ****   }
 404:../Libraries/STM32F4xx_StdPeriph_Driver/src/stm32f4xx_can.c **** 
 405:../Libraries/STM32F4xx_StdPeriph_Driver/src/stm32f4xx_can.c ****   if (CAN_FilterInitStruct->CAN_FilterFIFOAssignment == CAN_Filter_FIFO1)
 25122              		.loc 1 405 0
 25123 035a 7B68     		ldr	r3, [r7, #4]
 25124 035c 1B89     		ldrh	r3, [r3, #8]
 25125 035e 012B     		cmp	r3, #1
 25126 0360 08D1     		bne	.L34
 406:../Libraries/STM32F4xx_StdPeriph_Driver/src/stm32f4xx_can.c ****   {
 407:../Libraries/STM32F4xx_StdPeriph_Driver/src/stm32f4xx_can.c ****     /* FIFO 1 assignation for the filter */
 408:../Libraries/STM32F4xx_StdPeriph_Driver/src/stm32f4xx_can.c ****     CAN1->FFA1R |= (uint32_t)filter_number_bit_pos;
 25127              		.loc 1 408 0
 25128 0362 114B     		ldr	r3, .L36
 25129 0364 104A     		ldr	r2, .L36
 25130 0366 D2F81412 		ldr	r1, [r2, #532]
 25131 036a FA68     		ldr	r2, [r7, #12]
 25132 036c 41EA0202 		orr	r2, r1, r2
 25133 0370 C3F81422 		str	r2, [r3, #532]
 25134              	.L34:
 409:../Libraries/STM32F4xx_StdPeriph_Driver/src/stm32f4xx_can.c ****   }
 410:../Libraries/STM32F4xx_StdPeriph_Driver/src/stm32f4xx_can.c ****   
 411:../Libraries/STM32F4xx_StdPeriph_Driver/src/stm32f4xx_can.c ****   /* Filter activation */
 412:../Libraries/STM32F4xx_StdPeriph_Driver/src/stm32f4xx_can.c ****   if (CAN_FilterInitStruct->CAN_FilterActivation == ENABLE)
 25135              		.loc 1 412 0
 25136 0374 7B68     		ldr	r3, [r7, #4]
 25137 0376 5B7B     		ldrb	r3, [r3, #13]	@ zero_extendqisi2
 25138 0378 012B     		cmp	r3, #1
 25139 037a 08D1     		bne	.L35
 413:../Libraries/STM32F4xx_StdPeriph_Driver/src/stm32f4xx_can.c ****   {
 414:../Libraries/STM32F4xx_StdPeriph_Driver/src/stm32f4xx_can.c ****     CAN1->FA1R |= filter_number_bit_pos;
 25140              		.loc 1 414 0
 25141 037c 0A4B     		ldr	r3, .L36
 25142 037e 0A4A     		ldr	r2, .L36
 25143 0380 D2F81C12 		ldr	r1, [r2, #540]
 25144 0384 FA68     		ldr	r2, [r7, #12]
 25145 0386 41EA0202 		orr	r2, r1, r2
 25146 038a C3F81C22 		str	r2, [r3, #540]
 25147              	.L35:
 415:../Libraries/STM32F4xx_StdPeriph_Driver/src/stm32f4xx_can.c ****   }
 416:../Libraries/STM32F4xx_StdPeriph_Driver/src/stm32f4xx_can.c **** 
 417:../Libraries/STM32F4xx_StdPeriph_Driver/src/stm32f4xx_can.c ****   /* Leave the initialisation mode for the filter */
 418:../Libraries/STM32F4xx_StdPeriph_Driver/src/stm32f4xx_can.c ****   CAN1->FMR &= ~FMR_FINIT;
 25148              		.loc 1 418 0
 25149 038e 064B     		ldr	r3, .L36
 25150 0390 054A     		ldr	r2, .L36
 25151 0392 D2F80022 		ldr	r2, [r2, #512]
 25152 0396 22F00102 		bic	r2, r2, #1
 25153 039a C3F80022 		str	r2, [r3, #512]
 419:../Libraries/STM32F4xx_StdPeriph_Driver/src/stm32f4xx_can.c **** }
 25154              		.loc 1 419 0
 25155 039e 07F11407 		add	r7, r7, #20
 25156 03a2 BD46     		mov	sp, r7
 25157 03a4 80BC     		pop	{r7}
 25158 03a6 7047     		bx	lr
 25159              	.L37:
 25160              		.align	2
 25161              	.L36:
 25162 03a8 00640040 		.word	1073767424
 25163              		.cfi_endproc
 25164              	.LFE112:
 25166              		.align	2
 25167              		.global	CAN_StructInit
 25168              		.thumb
 25169              		.thumb_func
 25171              	CAN_StructInit:
 25172              	.LFB113:
 420:../Libraries/STM32F4xx_StdPeriph_Driver/src/stm32f4xx_can.c **** 
 421:../Libraries/STM32F4xx_StdPeriph_Driver/src/stm32f4xx_can.c **** /**
 422:../Libraries/STM32F4xx_StdPeriph_Driver/src/stm32f4xx_can.c ****   * @brief  Fills each CAN_InitStruct member with its default value.
 423:../Libraries/STM32F4xx_StdPeriph_Driver/src/stm32f4xx_can.c ****   * @param  CAN_InitStruct: pointer to a CAN_InitTypeDef structure which ill be initialized.
 424:../Libraries/STM32F4xx_StdPeriph_Driver/src/stm32f4xx_can.c ****   * @retval None
 425:../Libraries/STM32F4xx_StdPeriph_Driver/src/stm32f4xx_can.c ****   */
 426:../Libraries/STM32F4xx_StdPeriph_Driver/src/stm32f4xx_can.c **** void CAN_StructInit(CAN_InitTypeDef* CAN_InitStruct)
 427:../Libraries/STM32F4xx_StdPeriph_Driver/src/stm32f4xx_can.c **** {
 25173              		.loc 1 427 0
 25174              		.cfi_startproc
 25175              		@ args = 0, pretend = 0, frame = 8
 25176              		@ frame_needed = 1, uses_anonymous_args = 0
 25177              		@ link register save eliminated.
 25178 03ac 80B4     		push	{r7}
 25179              	.LCFI9:
 25180              		.cfi_def_cfa_offset 4
 25181 03ae 83B0     		sub	sp, sp, #12
 25182              	.LCFI10:
 25183              		.cfi_def_cfa_offset 16
 25184 03b0 00AF     		add	r7, sp, #0
 25185              		.cfi_offset 7, -4
 25186              	.LCFI11:
 25187              		.cfi_def_cfa_register 7
 25188 03b2 7860     		str	r0, [r7, #4]
 428:../Libraries/STM32F4xx_StdPeriph_Driver/src/stm32f4xx_can.c ****   /* Reset CAN init structure parameters values */
 429:../Libraries/STM32F4xx_StdPeriph_Driver/src/stm32f4xx_can.c ****   
 430:../Libraries/STM32F4xx_StdPeriph_Driver/src/stm32f4xx_can.c ****   /* Initialize the time triggered communication mode */
 431:../Libraries/STM32F4xx_StdPeriph_Driver/src/stm32f4xx_can.c ****   CAN_InitStruct->CAN_TTCM = DISABLE;
 25189              		.loc 1 431 0
 25190 03b4 7B68     		ldr	r3, [r7, #4]
 25191 03b6 4FF00002 		mov	r2, #0
 25192 03ba 9A71     		strb	r2, [r3, #6]
 432:../Libraries/STM32F4xx_StdPeriph_Driver/src/stm32f4xx_can.c ****   
 433:../Libraries/STM32F4xx_StdPeriph_Driver/src/stm32f4xx_can.c ****   /* Initialize the automatic bus-off management */
 434:../Libraries/STM32F4xx_StdPeriph_Driver/src/stm32f4xx_can.c ****   CAN_InitStruct->CAN_ABOM = DISABLE;
 25193              		.loc 1 434 0
 25194 03bc 7B68     		ldr	r3, [r7, #4]
 25195 03be 4FF00002 		mov	r2, #0
 25196 03c2 DA71     		strb	r2, [r3, #7]
 435:../Libraries/STM32F4xx_StdPeriph_Driver/src/stm32f4xx_can.c ****   
 436:../Libraries/STM32F4xx_StdPeriph_Driver/src/stm32f4xx_can.c ****   /* Initialize the automatic wake-up mode */
 437:../Libraries/STM32F4xx_StdPeriph_Driver/src/stm32f4xx_can.c ****   CAN_InitStruct->CAN_AWUM = DISABLE;
 25197              		.loc 1 437 0
 25198 03c4 7B68     		ldr	r3, [r7, #4]
 25199 03c6 4FF00002 		mov	r2, #0
 25200 03ca 1A72     		strb	r2, [r3, #8]
 438:../Libraries/STM32F4xx_StdPeriph_Driver/src/stm32f4xx_can.c ****   
 439:../Libraries/STM32F4xx_StdPeriph_Driver/src/stm32f4xx_can.c ****   /* Initialize the no automatic retransmission */
 440:../Libraries/STM32F4xx_StdPeriph_Driver/src/stm32f4xx_can.c ****   CAN_InitStruct->CAN_NART = DISABLE;
 25201              		.loc 1 440 0
 25202 03cc 7B68     		ldr	r3, [r7, #4]
 25203 03ce 4FF00002 		mov	r2, #0
 25204 03d2 5A72     		strb	r2, [r3, #9]
 441:../Libraries/STM32F4xx_StdPeriph_Driver/src/stm32f4xx_can.c ****   
 442:../Libraries/STM32F4xx_StdPeriph_Driver/src/stm32f4xx_can.c ****   /* Initialize the receive FIFO locked mode */
 443:../Libraries/STM32F4xx_StdPeriph_Driver/src/stm32f4xx_can.c ****   CAN_InitStruct->CAN_RFLM = DISABLE;
 25205              		.loc 1 443 0
 25206 03d4 7B68     		ldr	r3, [r7, #4]
 25207 03d6 4FF00002 		mov	r2, #0
 25208 03da 9A72     		strb	r2, [r3, #10]
 444:../Libraries/STM32F4xx_StdPeriph_Driver/src/stm32f4xx_can.c ****   
 445:../Libraries/STM32F4xx_StdPeriph_Driver/src/stm32f4xx_can.c ****   /* Initialize the transmit FIFO priority */
 446:../Libraries/STM32F4xx_StdPeriph_Driver/src/stm32f4xx_can.c ****   CAN_InitStruct->CAN_TXFP = DISABLE;
 25209              		.loc 1 446 0
 25210 03dc 7B68     		ldr	r3, [r7, #4]
 25211 03de 4FF00002 		mov	r2, #0
 25212 03e2 DA72     		strb	r2, [r3, #11]
 447:../Libraries/STM32F4xx_StdPeriph_Driver/src/stm32f4xx_can.c ****   
 448:../Libraries/STM32F4xx_StdPeriph_Driver/src/stm32f4xx_can.c ****   /* Initialize the CAN_Mode member */
 449:../Libraries/STM32F4xx_StdPeriph_Driver/src/stm32f4xx_can.c ****   CAN_InitStruct->CAN_Mode = CAN_Mode_Normal;
 25213              		.loc 1 449 0
 25214 03e4 7B68     		ldr	r3, [r7, #4]
 25215 03e6 4FF00002 		mov	r2, #0
 25216 03ea 9A70     		strb	r2, [r3, #2]
 450:../Libraries/STM32F4xx_StdPeriph_Driver/src/stm32f4xx_can.c ****   
 451:../Libraries/STM32F4xx_StdPeriph_Driver/src/stm32f4xx_can.c ****   /* Initialize the CAN_SJW member */
 452:../Libraries/STM32F4xx_StdPeriph_Driver/src/stm32f4xx_can.c ****   CAN_InitStruct->CAN_SJW = CAN_SJW_1tq;
 25217              		.loc 1 452 0
 25218 03ec 7B68     		ldr	r3, [r7, #4]
 25219 03ee 4FF00002 		mov	r2, #0
 25220 03f2 DA70     		strb	r2, [r3, #3]
 453:../Libraries/STM32F4xx_StdPeriph_Driver/src/stm32f4xx_can.c ****   
 454:../Libraries/STM32F4xx_StdPeriph_Driver/src/stm32f4xx_can.c ****   /* Initialize the CAN_BS1 member */
 455:../Libraries/STM32F4xx_StdPeriph_Driver/src/stm32f4xx_can.c ****   CAN_InitStruct->CAN_BS1 = CAN_BS1_4tq;
 25221              		.loc 1 455 0
 25222 03f4 7B68     		ldr	r3, [r7, #4]
 25223 03f6 4FF00302 		mov	r2, #3
 25224 03fa 1A71     		strb	r2, [r3, #4]
 456:../Libraries/STM32F4xx_StdPeriph_Driver/src/stm32f4xx_can.c ****   
 457:../Libraries/STM32F4xx_StdPeriph_Driver/src/stm32f4xx_can.c ****   /* Initialize the CAN_BS2 member */
 458:../Libraries/STM32F4xx_StdPeriph_Driver/src/stm32f4xx_can.c ****   CAN_InitStruct->CAN_BS2 = CAN_BS2_3tq;
 25225              		.loc 1 458 0
 25226 03fc 7B68     		ldr	r3, [r7, #4]
 25227 03fe 4FF00202 		mov	r2, #2
 25228 0402 5A71     		strb	r2, [r3, #5]
 459:../Libraries/STM32F4xx_StdPeriph_Driver/src/stm32f4xx_can.c ****   
 460:../Libraries/STM32F4xx_StdPeriph_Driver/src/stm32f4xx_can.c ****   /* Initialize the CAN_Prescaler member */
 461:../Libraries/STM32F4xx_StdPeriph_Driver/src/stm32f4xx_can.c ****   CAN_InitStruct->CAN_Prescaler = 1;
 25229              		.loc 1 461 0
 25230 0404 7B68     		ldr	r3, [r7, #4]
 25231 0406 4FF00102 		mov	r2, #1
 25232 040a 1A80     		strh	r2, [r3, #0]	@ movhi
 462:../Libraries/STM32F4xx_StdPeriph_Driver/src/stm32f4xx_can.c **** }
 25233              		.loc 1 462 0
 25234 040c 07F10C07 		add	r7, r7, #12
 25235 0410 BD46     		mov	sp, r7
 25236 0412 80BC     		pop	{r7}
 25237 0414 7047     		bx	lr
 25238              		.cfi_endproc
 25239              	.LFE113:
 25241 0416 00BF     		.align	2
 25242              		.global	CAN_SlaveStartBank
 25243              		.thumb
 25244              		.thumb_func
 25246              	CAN_SlaveStartBank:
 25247              	.LFB114:
 463:../Libraries/STM32F4xx_StdPeriph_Driver/src/stm32f4xx_can.c **** 
 464:../Libraries/STM32F4xx_StdPeriph_Driver/src/stm32f4xx_can.c **** /**
 465:../Libraries/STM32F4xx_StdPeriph_Driver/src/stm32f4xx_can.c ****   * @brief  Select the start bank filter for slave CAN.
 466:../Libraries/STM32F4xx_StdPeriph_Driver/src/stm32f4xx_can.c ****   * @param  CAN_BankNumber: Select the start slave bank filter from 1..27.
 467:../Libraries/STM32F4xx_StdPeriph_Driver/src/stm32f4xx_can.c ****   * @retval None
 468:../Libraries/STM32F4xx_StdPeriph_Driver/src/stm32f4xx_can.c ****   */
 469:../Libraries/STM32F4xx_StdPeriph_Driver/src/stm32f4xx_can.c **** void CAN_SlaveStartBank(uint8_t CAN_BankNumber) 
 470:../Libraries/STM32F4xx_StdPeriph_Driver/src/stm32f4xx_can.c **** {
 25248              		.loc 1 470 0
 25249              		.cfi_startproc
 25250              		@ args = 0, pretend = 0, frame = 8
 25251              		@ frame_needed = 1, uses_anonymous_args = 0
 25252              		@ link register save eliminated.
 25253 0418 80B4     		push	{r7}
 25254              	.LCFI12:
 25255              		.cfi_def_cfa_offset 4
 25256 041a 83B0     		sub	sp, sp, #12
 25257              	.LCFI13:
 25258              		.cfi_def_cfa_offset 16
 25259 041c 00AF     		add	r7, sp, #0
 25260              		.cfi_offset 7, -4
 25261              	.LCFI14:
 25262              		.cfi_def_cfa_register 7
 25263 041e 0346     		mov	r3, r0
 25264 0420 FB71     		strb	r3, [r7, #7]
 471:../Libraries/STM32F4xx_StdPeriph_Driver/src/stm32f4xx_can.c ****   /* Check the parameters */
 472:../Libraries/STM32F4xx_StdPeriph_Driver/src/stm32f4xx_can.c ****   assert_param(IS_CAN_BANKNUMBER(CAN_BankNumber));
 473:../Libraries/STM32F4xx_StdPeriph_Driver/src/stm32f4xx_can.c ****   
 474:../Libraries/STM32F4xx_StdPeriph_Driver/src/stm32f4xx_can.c ****   /* Enter Initialisation mode for the filter */
 475:../Libraries/STM32F4xx_StdPeriph_Driver/src/stm32f4xx_can.c ****   CAN1->FMR |= FMR_FINIT;
 25265              		.loc 1 475 0
 25266 0422 154B     		ldr	r3, .L40
 25267 0424 144A     		ldr	r2, .L40
 25268 0426 D2F80022 		ldr	r2, [r2, #512]
 25269 042a 42F00102 		orr	r2, r2, #1
 25270 042e C3F80022 		str	r2, [r3, #512]
 476:../Libraries/STM32F4xx_StdPeriph_Driver/src/stm32f4xx_can.c ****   
 477:../Libraries/STM32F4xx_StdPeriph_Driver/src/stm32f4xx_can.c ****   /* Select the start slave bank */
 478:../Libraries/STM32F4xx_StdPeriph_Driver/src/stm32f4xx_can.c ****   CAN1->FMR &= (uint32_t)0xFFFFC0F1 ;
 25271              		.loc 1 478 0
 25272 0432 114A     		ldr	r2, .L40
 25273 0434 104B     		ldr	r3, .L40
 25274 0436 D3F80032 		ldr	r3, [r3, #512]
 25275 043a 23F47C53 		bic	r3, r3, #16128
 25276 043e 23F00E03 		bic	r3, r3, #14
 25277 0442 C2F80032 		str	r3, [r2, #512]
 479:../Libraries/STM32F4xx_StdPeriph_Driver/src/stm32f4xx_can.c ****   CAN1->FMR |= (uint32_t)(CAN_BankNumber)<<8;
 25278              		.loc 1 479 0
 25279 0446 0C4B     		ldr	r3, .L40
 25280 0448 0B4A     		ldr	r2, .L40
 25281 044a D2F80012 		ldr	r1, [r2, #512]
 25282 044e FA79     		ldrb	r2, [r7, #7]	@ zero_extendqisi2
 25283 0450 4FEA0222 		lsl	r2, r2, #8
 25284 0454 41EA0202 		orr	r2, r1, r2
 25285 0458 C3F80022 		str	r2, [r3, #512]
 480:../Libraries/STM32F4xx_StdPeriph_Driver/src/stm32f4xx_can.c ****   
 481:../Libraries/STM32F4xx_StdPeriph_Driver/src/stm32f4xx_can.c ****   /* Leave Initialisation mode for the filter */
 482:../Libraries/STM32F4xx_StdPeriph_Driver/src/stm32f4xx_can.c ****   CAN1->FMR &= ~FMR_FINIT;
 25286              		.loc 1 482 0
 25287 045c 064B     		ldr	r3, .L40
 25288 045e 064A     		ldr	r2, .L40
 25289 0460 D2F80022 		ldr	r2, [r2, #512]
 25290 0464 22F00102 		bic	r2, r2, #1
 25291 0468 C3F80022 		str	r2, [r3, #512]
 483:../Libraries/STM32F4xx_StdPeriph_Driver/src/stm32f4xx_can.c **** }
 25292              		.loc 1 483 0
 25293 046c 07F10C07 		add	r7, r7, #12
 25294 0470 BD46     		mov	sp, r7
 25295 0472 80BC     		pop	{r7}
 25296 0474 7047     		bx	lr
 25297              	.L41:
 25298 0476 00BF     		.align	2
 25299              	.L40:
 25300 0478 00640040 		.word	1073767424
 25301              		.cfi_endproc
 25302              	.LFE114:
 25304              		.align	2
 25305              		.global	CAN_DBGFreeze
 25306              		.thumb
 25307              		.thumb_func
 25309              	CAN_DBGFreeze:
 25310              	.LFB115:
 484:../Libraries/STM32F4xx_StdPeriph_Driver/src/stm32f4xx_can.c **** 
 485:../Libraries/STM32F4xx_StdPeriph_Driver/src/stm32f4xx_can.c **** /**
 486:../Libraries/STM32F4xx_StdPeriph_Driver/src/stm32f4xx_can.c ****   * @brief  Enables or disables the DBG Freeze for CAN.
 487:../Libraries/STM32F4xx_StdPeriph_Driver/src/stm32f4xx_can.c ****   * @param  CANx: where x can be 1 or 2 to to select the CAN peripheral.
 488:../Libraries/STM32F4xx_StdPeriph_Driver/src/stm32f4xx_can.c ****   * @param  NewState: new state of the CAN peripheral. 
 489:../Libraries/STM32F4xx_StdPeriph_Driver/src/stm32f4xx_can.c ****   *          This parameter can be: ENABLE (CAN reception/transmission is frozen
 490:../Libraries/STM32F4xx_StdPeriph_Driver/src/stm32f4xx_can.c ****   *          during debug. Reception FIFOs can still be accessed/controlled normally) 
 491:../Libraries/STM32F4xx_StdPeriph_Driver/src/stm32f4xx_can.c ****   *          or DISABLE (CAN is working during debug).
 492:../Libraries/STM32F4xx_StdPeriph_Driver/src/stm32f4xx_can.c ****   * @retval None
 493:../Libraries/STM32F4xx_StdPeriph_Driver/src/stm32f4xx_can.c ****   */
 494:../Libraries/STM32F4xx_StdPeriph_Driver/src/stm32f4xx_can.c **** void CAN_DBGFreeze(CAN_TypeDef* CANx, FunctionalState NewState)
 495:../Libraries/STM32F4xx_StdPeriph_Driver/src/stm32f4xx_can.c **** {
 25311              		.loc 1 495 0
 25312              		.cfi_startproc
 25313              		@ args = 0, pretend = 0, frame = 8
 25314              		@ frame_needed = 1, uses_anonymous_args = 0
 25315              		@ link register save eliminated.
 25316 047c 80B4     		push	{r7}
 25317              	.LCFI15:
 25318              		.cfi_def_cfa_offset 4
 25319 047e 83B0     		sub	sp, sp, #12
 25320              	.LCFI16:
 25321              		.cfi_def_cfa_offset 16
 25322 0480 00AF     		add	r7, sp, #0
 25323              		.cfi_offset 7, -4
 25324              	.LCFI17:
 25325              		.cfi_def_cfa_register 7
 25326 0482 7860     		str	r0, [r7, #4]
 25327 0484 0B46     		mov	r3, r1
 25328 0486 FB70     		strb	r3, [r7, #3]
 496:../Libraries/STM32F4xx_StdPeriph_Driver/src/stm32f4xx_can.c ****   /* Check the parameters */
 497:../Libraries/STM32F4xx_StdPeriph_Driver/src/stm32f4xx_can.c ****   assert_param(IS_CAN_ALL_PERIPH(CANx));
 498:../Libraries/STM32F4xx_StdPeriph_Driver/src/stm32f4xx_can.c ****   assert_param(IS_FUNCTIONAL_STATE(NewState));
 499:../Libraries/STM32F4xx_StdPeriph_Driver/src/stm32f4xx_can.c ****   
 500:../Libraries/STM32F4xx_StdPeriph_Driver/src/stm32f4xx_can.c ****   if (NewState != DISABLE)
 25329              		.loc 1 500 0
 25330 0488 FB78     		ldrb	r3, [r7, #3]	@ zero_extendqisi2
 25331 048a 002B     		cmp	r3, #0
 25332 048c 06D0     		beq	.L43
 501:../Libraries/STM32F4xx_StdPeriph_Driver/src/stm32f4xx_can.c ****   {
 502:../Libraries/STM32F4xx_StdPeriph_Driver/src/stm32f4xx_can.c ****     /* Enable Debug Freeze  */
 503:../Libraries/STM32F4xx_StdPeriph_Driver/src/stm32f4xx_can.c ****     CANx->MCR |= MCR_DBF;
 25333              		.loc 1 503 0
 25334 048e 7B68     		ldr	r3, [r7, #4]
 25335 0490 1B68     		ldr	r3, [r3, #0]
 25336 0492 43F48032 		orr	r2, r3, #65536
 25337 0496 7B68     		ldr	r3, [r7, #4]
 25338 0498 1A60     		str	r2, [r3, #0]
 25339 049a 05E0     		b	.L42
 25340              	.L43:
 504:../Libraries/STM32F4xx_StdPeriph_Driver/src/stm32f4xx_can.c ****   }
 505:../Libraries/STM32F4xx_StdPeriph_Driver/src/stm32f4xx_can.c ****   else
 506:../Libraries/STM32F4xx_StdPeriph_Driver/src/stm32f4xx_can.c ****   {
 507:../Libraries/STM32F4xx_StdPeriph_Driver/src/stm32f4xx_can.c ****     /* Disable Debug Freeze */
 508:../Libraries/STM32F4xx_StdPeriph_Driver/src/stm32f4xx_can.c ****     CANx->MCR &= ~MCR_DBF;
 25341              		.loc 1 508 0
 25342 049c 7B68     		ldr	r3, [r7, #4]
 25343 049e 1B68     		ldr	r3, [r3, #0]
 25344 04a0 23F48032 		bic	r2, r3, #65536
 25345 04a4 7B68     		ldr	r3, [r7, #4]
 25346 04a6 1A60     		str	r2, [r3, #0]
 25347              	.L42:
 509:../Libraries/STM32F4xx_StdPeriph_Driver/src/stm32f4xx_can.c ****   }
 510:../Libraries/STM32F4xx_StdPeriph_Driver/src/stm32f4xx_can.c **** }
 25348              		.loc 1 510 0
 25349 04a8 07F10C07 		add	r7, r7, #12
 25350 04ac BD46     		mov	sp, r7
 25351 04ae 80BC     		pop	{r7}
 25352 04b0 7047     		bx	lr
 25353              		.cfi_endproc
 25354              	.LFE115:
 25356 04b2 00BF     		.align	2
 25357              		.global	CAN_TTComModeCmd
 25358              		.thumb
 25359              		.thumb_func
 25361              	CAN_TTComModeCmd:
 25362              	.LFB116:
 511:../Libraries/STM32F4xx_StdPeriph_Driver/src/stm32f4xx_can.c **** 
 512:../Libraries/STM32F4xx_StdPeriph_Driver/src/stm32f4xx_can.c **** 
 513:../Libraries/STM32F4xx_StdPeriph_Driver/src/stm32f4xx_can.c **** /**
 514:../Libraries/STM32F4xx_StdPeriph_Driver/src/stm32f4xx_can.c ****   * @brief  Enables or disables the CAN Time TriggerOperation communication mode.
 515:../Libraries/STM32F4xx_StdPeriph_Driver/src/stm32f4xx_can.c ****   * @note   DLC must be programmed as 8 in order Time Stamp (2 bytes) to be 
 516:../Libraries/STM32F4xx_StdPeriph_Driver/src/stm32f4xx_can.c ****   *         sent over the CAN bus.  
 517:../Libraries/STM32F4xx_StdPeriph_Driver/src/stm32f4xx_can.c ****   * @param  CANx: where x can be 1 or 2 to to select the CAN peripheral.
 518:../Libraries/STM32F4xx_StdPeriph_Driver/src/stm32f4xx_can.c ****   * @param  NewState: Mode new state. This parameter can be: ENABLE or DISABLE.
 519:../Libraries/STM32F4xx_StdPeriph_Driver/src/stm32f4xx_can.c ****   *         When enabled, Time stamp (TIME[15:0]) value is  sent in the last two
 520:../Libraries/STM32F4xx_StdPeriph_Driver/src/stm32f4xx_can.c ****   *         data bytes of the 8-byte message: TIME[7:0] in data byte 6 and TIME[15:8] 
 521:../Libraries/STM32F4xx_StdPeriph_Driver/src/stm32f4xx_can.c ****   *         in data byte 7. 
 522:../Libraries/STM32F4xx_StdPeriph_Driver/src/stm32f4xx_can.c ****   * @retval None
 523:../Libraries/STM32F4xx_StdPeriph_Driver/src/stm32f4xx_can.c ****   */
 524:../Libraries/STM32F4xx_StdPeriph_Driver/src/stm32f4xx_can.c **** void CAN_TTComModeCmd(CAN_TypeDef* CANx, FunctionalState NewState)
 525:../Libraries/STM32F4xx_StdPeriph_Driver/src/stm32f4xx_can.c **** {
 25363              		.loc 1 525 0
 25364              		.cfi_startproc
 25365              		@ args = 0, pretend = 0, frame = 8
 25366              		@ frame_needed = 1, uses_anonymous_args = 0
 25367              		@ link register save eliminated.
 25368 04b4 80B4     		push	{r7}
 25369              	.LCFI18:
 25370              		.cfi_def_cfa_offset 4
 25371 04b6 83B0     		sub	sp, sp, #12
 25372              	.LCFI19:
 25373              		.cfi_def_cfa_offset 16
 25374 04b8 00AF     		add	r7, sp, #0
 25375              		.cfi_offset 7, -4
 25376              	.LCFI20:
 25377              		.cfi_def_cfa_register 7
 25378 04ba 7860     		str	r0, [r7, #4]
 25379 04bc 0B46     		mov	r3, r1
 25380 04be FB70     		strb	r3, [r7, #3]
 526:../Libraries/STM32F4xx_StdPeriph_Driver/src/stm32f4xx_can.c ****   /* Check the parameters */
 527:../Libraries/STM32F4xx_StdPeriph_Driver/src/stm32f4xx_can.c ****   assert_param(IS_CAN_ALL_PERIPH(CANx));
 528:../Libraries/STM32F4xx_StdPeriph_Driver/src/stm32f4xx_can.c ****   assert_param(IS_FUNCTIONAL_STATE(NewState));
 529:../Libraries/STM32F4xx_StdPeriph_Driver/src/stm32f4xx_can.c ****   if (NewState != DISABLE)
 25381              		.loc 1 529 0
 25382 04c0 FB78     		ldrb	r3, [r7, #3]	@ zero_extendqisi2
 25383 04c2 002B     		cmp	r3, #0
 25384 04c4 1ED0     		beq	.L46
 530:../Libraries/STM32F4xx_StdPeriph_Driver/src/stm32f4xx_can.c ****   {
 531:../Libraries/STM32F4xx_StdPeriph_Driver/src/stm32f4xx_can.c ****     /* Enable the TTCM mode */
 532:../Libraries/STM32F4xx_StdPeriph_Driver/src/stm32f4xx_can.c ****     CANx->MCR |= CAN_MCR_TTCM;
 25385              		.loc 1 532 0
 25386 04c6 7B68     		ldr	r3, [r7, #4]
 25387 04c8 1B68     		ldr	r3, [r3, #0]
 25388 04ca 43F08002 		orr	r2, r3, #128
 25389 04ce 7B68     		ldr	r3, [r7, #4]
 25390 04d0 1A60     		str	r2, [r3, #0]
 533:../Libraries/STM32F4xx_StdPeriph_Driver/src/stm32f4xx_can.c **** 
 534:../Libraries/STM32F4xx_StdPeriph_Driver/src/stm32f4xx_can.c ****     /* Set TGT bits */
 535:../Libraries/STM32F4xx_StdPeriph_Driver/src/stm32f4xx_can.c ****     CANx->sTxMailBox[0].TDTR |= ((uint32_t)CAN_TDT0R_TGT);
 25391              		.loc 1 535 0
 25392 04d2 7B68     		ldr	r3, [r7, #4]
 25393 04d4 D3F88431 		ldr	r3, [r3, #388]
 25394 04d8 43F48072 		orr	r2, r3, #256
 25395 04dc 7B68     		ldr	r3, [r7, #4]
 25396 04de C3F88421 		str	r2, [r3, #388]
 536:../Libraries/STM32F4xx_StdPeriph_Driver/src/stm32f4xx_can.c ****     CANx->sTxMailBox[1].TDTR |= ((uint32_t)CAN_TDT1R_TGT);
 25397              		.loc 1 536 0
 25398 04e2 7B68     		ldr	r3, [r7, #4]
 25399 04e4 D3F89431 		ldr	r3, [r3, #404]
 25400 04e8 43F48072 		orr	r2, r3, #256
 25401 04ec 7B68     		ldr	r3, [r7, #4]
 25402 04ee C3F89421 		str	r2, [r3, #404]
 537:../Libraries/STM32F4xx_StdPeriph_Driver/src/stm32f4xx_can.c ****     CANx->sTxMailBox[2].TDTR |= ((uint32_t)CAN_TDT2R_TGT);
 25403              		.loc 1 537 0
 25404 04f2 7B68     		ldr	r3, [r7, #4]
 25405 04f4 D3F8A431 		ldr	r3, [r3, #420]
 25406 04f8 43F48072 		orr	r2, r3, #256
 25407 04fc 7B68     		ldr	r3, [r7, #4]
 25408 04fe C3F8A421 		str	r2, [r3, #420]
 25409 0502 1DE0     		b	.L45
 25410              	.L46:
 538:../Libraries/STM32F4xx_StdPeriph_Driver/src/stm32f4xx_can.c ****   }
 539:../Libraries/STM32F4xx_StdPeriph_Driver/src/stm32f4xx_can.c ****   else
 540:../Libraries/STM32F4xx_StdPeriph_Driver/src/stm32f4xx_can.c ****   {
 541:../Libraries/STM32F4xx_StdPeriph_Driver/src/stm32f4xx_can.c ****     /* Disable the TTCM mode */
 542:../Libraries/STM32F4xx_StdPeriph_Driver/src/stm32f4xx_can.c ****     CANx->MCR &= (uint32_t)(~(uint32_t)CAN_MCR_TTCM);
 25411              		.loc 1 542 0
 25412 0504 7B68     		ldr	r3, [r7, #4]
 25413 0506 1B68     		ldr	r3, [r3, #0]
 25414 0508 23F08002 		bic	r2, r3, #128
 25415 050c 7B68     		ldr	r3, [r7, #4]
 25416 050e 1A60     		str	r2, [r3, #0]
 543:../Libraries/STM32F4xx_StdPeriph_Driver/src/stm32f4xx_can.c **** 
 544:../Libraries/STM32F4xx_StdPeriph_Driver/src/stm32f4xx_can.c ****     /* Reset TGT bits */
 545:../Libraries/STM32F4xx_StdPeriph_Driver/src/stm32f4xx_can.c ****     CANx->sTxMailBox[0].TDTR &= ((uint32_t)~CAN_TDT0R_TGT);
 25417              		.loc 1 545 0
 25418 0510 7B68     		ldr	r3, [r7, #4]
 25419 0512 D3F88431 		ldr	r3, [r3, #388]
 25420 0516 23F48072 		bic	r2, r3, #256
 25421 051a 7B68     		ldr	r3, [r7, #4]
 25422 051c C3F88421 		str	r2, [r3, #388]
 546:../Libraries/STM32F4xx_StdPeriph_Driver/src/stm32f4xx_can.c ****     CANx->sTxMailBox[1].TDTR &= ((uint32_t)~CAN_TDT1R_TGT);
 25423              		.loc 1 546 0
 25424 0520 7B68     		ldr	r3, [r7, #4]
 25425 0522 D3F89431 		ldr	r3, [r3, #404]
 25426 0526 23F48072 		bic	r2, r3, #256
 25427 052a 7B68     		ldr	r3, [r7, #4]
 25428 052c C3F89421 		str	r2, [r3, #404]
 547:../Libraries/STM32F4xx_StdPeriph_Driver/src/stm32f4xx_can.c ****     CANx->sTxMailBox[2].TDTR &= ((uint32_t)~CAN_TDT2R_TGT);
 25429              		.loc 1 547 0
 25430 0530 7B68     		ldr	r3, [r7, #4]
 25431 0532 D3F8A431 		ldr	r3, [r3, #420]
 25432 0536 23F48072 		bic	r2, r3, #256
 25433 053a 7B68     		ldr	r3, [r7, #4]
 25434 053c C3F8A421 		str	r2, [r3, #420]
 25435              	.L45:
 548:../Libraries/STM32F4xx_StdPeriph_Driver/src/stm32f4xx_can.c ****   }
 549:../Libraries/STM32F4xx_StdPeriph_Driver/src/stm32f4xx_can.c **** }
 25436              		.loc 1 549 0
 25437 0540 07F10C07 		add	r7, r7, #12
 25438 0544 BD46     		mov	sp, r7
 25439 0546 80BC     		pop	{r7}
 25440 0548 7047     		bx	lr
 25441              		.cfi_endproc
 25442              	.LFE116:
 25444 054a 00BF     		.align	2
 25445              		.global	CAN_Transmit
 25446              		.thumb
 25447              		.thumb_func
 25449              	CAN_Transmit:
 25450              	.LFB117:
 550:../Libraries/STM32F4xx_StdPeriph_Driver/src/stm32f4xx_can.c **** /**
 551:../Libraries/STM32F4xx_StdPeriph_Driver/src/stm32f4xx_can.c ****   * @}
 552:../Libraries/STM32F4xx_StdPeriph_Driver/src/stm32f4xx_can.c ****   */
 553:../Libraries/STM32F4xx_StdPeriph_Driver/src/stm32f4xx_can.c **** 
 554:../Libraries/STM32F4xx_StdPeriph_Driver/src/stm32f4xx_can.c **** 
 555:../Libraries/STM32F4xx_StdPeriph_Driver/src/stm32f4xx_can.c **** /** @defgroup CAN_Group2 CAN Frames Transmission functions
 556:../Libraries/STM32F4xx_StdPeriph_Driver/src/stm32f4xx_can.c ****  *  @brief    CAN Frames Transmission functions 
 557:../Libraries/STM32F4xx_StdPeriph_Driver/src/stm32f4xx_can.c ****  *
 558:../Libraries/STM32F4xx_StdPeriph_Driver/src/stm32f4xx_can.c **** @verbatim    
 559:../Libraries/STM32F4xx_StdPeriph_Driver/src/stm32f4xx_can.c ****  ===============================================================================
 560:../Libraries/STM32F4xx_StdPeriph_Driver/src/stm32f4xx_can.c ****                       CAN Frames Transmission functions
 561:../Libraries/STM32F4xx_StdPeriph_Driver/src/stm32f4xx_can.c ****  ===============================================================================  
 562:../Libraries/STM32F4xx_StdPeriph_Driver/src/stm32f4xx_can.c ****   This section provides functions allowing to 
 563:../Libraries/STM32F4xx_StdPeriph_Driver/src/stm32f4xx_can.c ****    - Initiate and transmit a CAN frame message (if there is an empty mailbox).
 564:../Libraries/STM32F4xx_StdPeriph_Driver/src/stm32f4xx_can.c ****    - Check the transmission status of a CAN Frame
 565:../Libraries/STM32F4xx_StdPeriph_Driver/src/stm32f4xx_can.c ****    - Cancel a transmit request
 566:../Libraries/STM32F4xx_StdPeriph_Driver/src/stm32f4xx_can.c ****    
 567:../Libraries/STM32F4xx_StdPeriph_Driver/src/stm32f4xx_can.c **** @endverbatim
 568:../Libraries/STM32F4xx_StdPeriph_Driver/src/stm32f4xx_can.c ****   * @{
 569:../Libraries/STM32F4xx_StdPeriph_Driver/src/stm32f4xx_can.c ****   */
 570:../Libraries/STM32F4xx_StdPeriph_Driver/src/stm32f4xx_can.c **** 
 571:../Libraries/STM32F4xx_StdPeriph_Driver/src/stm32f4xx_can.c **** /**
 572:../Libraries/STM32F4xx_StdPeriph_Driver/src/stm32f4xx_can.c ****   * @brief  Initiates and transmits a CAN frame message.
 573:../Libraries/STM32F4xx_StdPeriph_Driver/src/stm32f4xx_can.c ****   * @param  CANx: where x can be 1 or 2 to to select the CAN peripheral.
 574:../Libraries/STM32F4xx_StdPeriph_Driver/src/stm32f4xx_can.c ****   * @param  TxMessage: pointer to a structure which contains CAN Id, CAN DLC and CAN data.
 575:../Libraries/STM32F4xx_StdPeriph_Driver/src/stm32f4xx_can.c ****   * @retval The number of the mailbox that is used for transmission or
 576:../Libraries/STM32F4xx_StdPeriph_Driver/src/stm32f4xx_can.c ****   *         CAN_TxStatus_NoMailBox if there is no empty mailbox.
 577:../Libraries/STM32F4xx_StdPeriph_Driver/src/stm32f4xx_can.c ****   */
 578:../Libraries/STM32F4xx_StdPeriph_Driver/src/stm32f4xx_can.c **** uint8_t CAN_Transmit(CAN_TypeDef* CANx, CanTxMsg* TxMessage)
 579:../Libraries/STM32F4xx_StdPeriph_Driver/src/stm32f4xx_can.c **** {
 25451              		.loc 1 579 0
 25452              		.cfi_startproc
 25453              		@ args = 0, pretend = 0, frame = 16
 25454              		@ frame_needed = 1, uses_anonymous_args = 0
 25455              		@ link register save eliminated.
 25456 054c 80B4     		push	{r7}
 25457              	.LCFI21:
 25458              		.cfi_def_cfa_offset 4
 25459 054e 85B0     		sub	sp, sp, #20
 25460              	.LCFI22:
 25461              		.cfi_def_cfa_offset 24
 25462 0550 00AF     		add	r7, sp, #0
 25463              		.cfi_offset 7, -4
 25464              	.LCFI23:
 25465              		.cfi_def_cfa_register 7
 25466 0552 7860     		str	r0, [r7, #4]
 25467 0554 3960     		str	r1, [r7, #0]
 580:../Libraries/STM32F4xx_StdPeriph_Driver/src/stm32f4xx_can.c ****   uint8_t transmit_mailbox = 0;
 25468              		.loc 1 580 0
 25469 0556 4FF00003 		mov	r3, #0
 25470 055a FB73     		strb	r3, [r7, #15]
 581:../Libraries/STM32F4xx_StdPeriph_Driver/src/stm32f4xx_can.c ****   /* Check the parameters */
 582:../Libraries/STM32F4xx_StdPeriph_Driver/src/stm32f4xx_can.c ****   assert_param(IS_CAN_ALL_PERIPH(CANx));
 583:../Libraries/STM32F4xx_StdPeriph_Driver/src/stm32f4xx_can.c ****   assert_param(IS_CAN_IDTYPE(TxMessage->IDE));
 584:../Libraries/STM32F4xx_StdPeriph_Driver/src/stm32f4xx_can.c ****   assert_param(IS_CAN_RTR(TxMessage->RTR));
 585:../Libraries/STM32F4xx_StdPeriph_Driver/src/stm32f4xx_can.c ****   assert_param(IS_CAN_DLC(TxMessage->DLC));
 586:../Libraries/STM32F4xx_StdPeriph_Driver/src/stm32f4xx_can.c **** 
 587:../Libraries/STM32F4xx_StdPeriph_Driver/src/stm32f4xx_can.c ****   /* Select one empty transmit mailbox */
 588:../Libraries/STM32F4xx_StdPeriph_Driver/src/stm32f4xx_can.c ****   if ((CANx->TSR&CAN_TSR_TME0) == CAN_TSR_TME0)
 25471              		.loc 1 588 0
 25472 055c 7B68     		ldr	r3, [r7, #4]
 25473 055e 9B68     		ldr	r3, [r3, #8]
 25474 0560 03F08063 		and	r3, r3, #67108864
 25475 0564 002B     		cmp	r3, #0
 25476 0566 03D0     		beq	.L49
 589:../Libraries/STM32F4xx_StdPeriph_Driver/src/stm32f4xx_can.c ****   {
 590:../Libraries/STM32F4xx_StdPeriph_Driver/src/stm32f4xx_can.c ****     transmit_mailbox = 0;
 25477              		.loc 1 590 0
 25478 0568 4FF00003 		mov	r3, #0
 25479 056c FB73     		strb	r3, [r7, #15]
 25480 056e 16E0     		b	.L50
 25481              	.L49:
 591:../Libraries/STM32F4xx_StdPeriph_Driver/src/stm32f4xx_can.c ****   }
 592:../Libraries/STM32F4xx_StdPeriph_Driver/src/stm32f4xx_can.c ****   else if ((CANx->TSR&CAN_TSR_TME1) == CAN_TSR_TME1)
 25482              		.loc 1 592 0
 25483 0570 7B68     		ldr	r3, [r7, #4]
 25484 0572 9B68     		ldr	r3, [r3, #8]
 25485 0574 03F00063 		and	r3, r3, #134217728
 25486 0578 002B     		cmp	r3, #0
 25487 057a 03D0     		beq	.L51
 593:../Libraries/STM32F4xx_StdPeriph_Driver/src/stm32f4xx_can.c ****   {
 594:../Libraries/STM32F4xx_StdPeriph_Driver/src/stm32f4xx_can.c ****     transmit_mailbox = 1;
 25488              		.loc 1 594 0
 25489 057c 4FF00103 		mov	r3, #1
 25490 0580 FB73     		strb	r3, [r7, #15]
 25491 0582 0CE0     		b	.L50
 25492              	.L51:
 595:../Libraries/STM32F4xx_StdPeriph_Driver/src/stm32f4xx_can.c ****   }
 596:../Libraries/STM32F4xx_StdPeriph_Driver/src/stm32f4xx_can.c ****   else if ((CANx->TSR&CAN_TSR_TME2) == CAN_TSR_TME2)
 25493              		.loc 1 596 0
 25494 0584 7B68     		ldr	r3, [r7, #4]
 25495 0586 9B68     		ldr	r3, [r3, #8]
 25496 0588 03F08053 		and	r3, r3, #268435456
 25497 058c 002B     		cmp	r3, #0
 25498 058e 03D0     		beq	.L52
 597:../Libraries/STM32F4xx_StdPeriph_Driver/src/stm32f4xx_can.c ****   {
 598:../Libraries/STM32F4xx_StdPeriph_Driver/src/stm32f4xx_can.c ****     transmit_mailbox = 2;
 25499              		.loc 1 598 0
 25500 0590 4FF00203 		mov	r3, #2
 25501 0594 FB73     		strb	r3, [r7, #15]
 25502 0596 02E0     		b	.L50
 25503              	.L52:
 599:../Libraries/STM32F4xx_StdPeriph_Driver/src/stm32f4xx_can.c ****   }
 600:../Libraries/STM32F4xx_StdPeriph_Driver/src/stm32f4xx_can.c ****   else
 601:../Libraries/STM32F4xx_StdPeriph_Driver/src/stm32f4xx_can.c ****   {
 602:../Libraries/STM32F4xx_StdPeriph_Driver/src/stm32f4xx_can.c ****     transmit_mailbox = CAN_TxStatus_NoMailBox;
 25504              		.loc 1 602 0
 25505 0598 4FF00403 		mov	r3, #4
 25506 059c FB73     		strb	r3, [r7, #15]
 25507              	.L50:
 603:../Libraries/STM32F4xx_StdPeriph_Driver/src/stm32f4xx_can.c ****   }
 604:../Libraries/STM32F4xx_StdPeriph_Driver/src/stm32f4xx_can.c **** 
 605:../Libraries/STM32F4xx_StdPeriph_Driver/src/stm32f4xx_can.c ****   if (transmit_mailbox != CAN_TxStatus_NoMailBox)
 25508              		.loc 1 605 0
 25509 059e FB7B     		ldrb	r3, [r7, #15]	@ zero_extendqisi2
 25510 05a0 042B     		cmp	r3, #4
 25511 05a2 00F0C180 		beq	.L53
 606:../Libraries/STM32F4xx_StdPeriph_Driver/src/stm32f4xx_can.c ****   {
 607:../Libraries/STM32F4xx_StdPeriph_Driver/src/stm32f4xx_can.c ****     /* Set up the Id */
 608:../Libraries/STM32F4xx_StdPeriph_Driver/src/stm32f4xx_can.c ****     CANx->sTxMailBox[transmit_mailbox].TIR &= TMIDxR_TXRQ;
 25512              		.loc 1 608 0
 25513 05a6 FB7B     		ldrb	r3, [r7, #15]	@ zero_extendqisi2
 25514 05a8 FA7B     		ldrb	r2, [r7, #15]	@ zero_extendqisi2
 25515 05aa 7968     		ldr	r1, [r7, #4]
 25516 05ac 02F11802 		add	r2, r2, #24
 25517 05b0 4FEA0212 		lsl	r2, r2, #4
 25518 05b4 8A18     		adds	r2, r1, r2
 25519 05b6 1268     		ldr	r2, [r2, #0]
 25520 05b8 02F00102 		and	r2, r2, #1
 25521 05bc 7968     		ldr	r1, [r7, #4]
 25522 05be 03F11803 		add	r3, r3, #24
 25523 05c2 4FEA0313 		lsl	r3, r3, #4
 25524 05c6 CB18     		adds	r3, r1, r3
 25525 05c8 1A60     		str	r2, [r3, #0]
 609:../Libraries/STM32F4xx_StdPeriph_Driver/src/stm32f4xx_can.c ****     if (TxMessage->IDE == CAN_Id_Standard)
 25526              		.loc 1 609 0
 25527 05ca 3B68     		ldr	r3, [r7, #0]
 25528 05cc 1B7A     		ldrb	r3, [r3, #8]	@ zero_extendqisi2
 25529 05ce 002B     		cmp	r3, #0
 25530 05d0 1AD1     		bne	.L54
 610:../Libraries/STM32F4xx_StdPeriph_Driver/src/stm32f4xx_can.c ****     {
 611:../Libraries/STM32F4xx_StdPeriph_Driver/src/stm32f4xx_can.c ****       assert_param(IS_CAN_STDID(TxMessage->StdId));  
 612:../Libraries/STM32F4xx_StdPeriph_Driver/src/stm32f4xx_can.c ****       CANx->sTxMailBox[transmit_mailbox].TIR |= ((TxMessage->StdId << 21) | \
 25531              		.loc 1 612 0
 25532 05d2 FB7B     		ldrb	r3, [r7, #15]	@ zero_extendqisi2
 25533 05d4 FA7B     		ldrb	r2, [r7, #15]	@ zero_extendqisi2
 25534 05d6 7968     		ldr	r1, [r7, #4]
 25535 05d8 02F11802 		add	r2, r2, #24
 25536 05dc 4FEA0212 		lsl	r2, r2, #4
 25537 05e0 8A18     		adds	r2, r1, r2
 25538 05e2 1168     		ldr	r1, [r2, #0]
 25539 05e4 3A68     		ldr	r2, [r7, #0]
 25540 05e6 1268     		ldr	r2, [r2, #0]
 25541 05e8 4FEA4250 		lsl	r0, r2, #21
 613:../Libraries/STM32F4xx_StdPeriph_Driver/src/stm32f4xx_can.c ****                                                   TxMessage->RTR);
 25542              		.loc 1 613 0
 25543 05ec 3A68     		ldr	r2, [r7, #0]
 25544 05ee 527A     		ldrb	r2, [r2, #9]	@ zero_extendqisi2
 612:../Libraries/STM32F4xx_StdPeriph_Driver/src/stm32f4xx_can.c ****       CANx->sTxMailBox[transmit_mailbox].TIR |= ((TxMessage->StdId << 21) | \
 25545              		.loc 1 612 0
 25546 05f0 40EA0202 		orr	r2, r0, r2
 25547 05f4 41EA0202 		orr	r2, r1, r2
 25548 05f8 7968     		ldr	r1, [r7, #4]
 25549 05fa 03F11803 		add	r3, r3, #24
 25550 05fe 4FEA0313 		lsl	r3, r3, #4
 25551 0602 CB18     		adds	r3, r1, r3
 25552 0604 1A60     		str	r2, [r3, #0]
 25553 0606 1CE0     		b	.L55
 25554              	.L54:
 614:../Libraries/STM32F4xx_StdPeriph_Driver/src/stm32f4xx_can.c ****     }
 615:../Libraries/STM32F4xx_StdPeriph_Driver/src/stm32f4xx_can.c ****     else
 616:../Libraries/STM32F4xx_StdPeriph_Driver/src/stm32f4xx_can.c ****     {
 617:../Libraries/STM32F4xx_StdPeriph_Driver/src/stm32f4xx_can.c ****       assert_param(IS_CAN_EXTID(TxMessage->ExtId));
 618:../Libraries/STM32F4xx_StdPeriph_Driver/src/stm32f4xx_can.c ****       CANx->sTxMailBox[transmit_mailbox].TIR |= ((TxMessage->ExtId << 3) | \
 25555              		.loc 1 618 0
 25556 0608 FB7B     		ldrb	r3, [r7, #15]	@ zero_extendqisi2
 25557 060a FA7B     		ldrb	r2, [r7, #15]	@ zero_extendqisi2
 25558 060c 7968     		ldr	r1, [r7, #4]
 25559 060e 02F11802 		add	r2, r2, #24
 25560 0612 4FEA0212 		lsl	r2, r2, #4
 25561 0616 8A18     		adds	r2, r1, r2
 25562 0618 1168     		ldr	r1, [r2, #0]
 25563 061a 3A68     		ldr	r2, [r7, #0]
 25564 061c 5268     		ldr	r2, [r2, #4]
 25565 061e 4FEAC200 		lsl	r0, r2, #3
 619:../Libraries/STM32F4xx_StdPeriph_Driver/src/stm32f4xx_can.c ****                                                   TxMessage->IDE | \
 25566              		.loc 1 619 0
 25567 0622 3A68     		ldr	r2, [r7, #0]
 25568 0624 127A     		ldrb	r2, [r2, #8]	@ zero_extendqisi2
 618:../Libraries/STM32F4xx_StdPeriph_Driver/src/stm32f4xx_can.c ****       CANx->sTxMailBox[transmit_mailbox].TIR |= ((TxMessage->ExtId << 3) | \
 25569              		.loc 1 618 0
 25570 0626 1043     		orrs	r0, r0, r2
 620:../Libraries/STM32F4xx_StdPeriph_Driver/src/stm32f4xx_can.c ****                                                   TxMessage->RTR);
 25571              		.loc 1 620 0
 25572 0628 3A68     		ldr	r2, [r7, #0]
 25573 062a 527A     		ldrb	r2, [r2, #9]	@ zero_extendqisi2
 619:../Libraries/STM32F4xx_StdPeriph_Driver/src/stm32f4xx_can.c ****                                                   TxMessage->IDE | \
 25574              		.loc 1 619 0
 25575 062c 40EA0202 		orr	r2, r0, r2
 618:../Libraries/STM32F4xx_StdPeriph_Driver/src/stm32f4xx_can.c ****       CANx->sTxMailBox[transmit_mailbox].TIR |= ((TxMessage->ExtId << 3) | \
 25576              		.loc 1 618 0
 25577 0630 41EA0202 		orr	r2, r1, r2
 25578 0634 7968     		ldr	r1, [r7, #4]
 25579 0636 03F11803 		add	r3, r3, #24
 25580 063a 4FEA0313 		lsl	r3, r3, #4
 25581 063e CB18     		adds	r3, r1, r3
 25582 0640 1A60     		str	r2, [r3, #0]
 25583              	.L55:
 621:../Libraries/STM32F4xx_StdPeriph_Driver/src/stm32f4xx_can.c ****     }
 622:../Libraries/STM32F4xx_StdPeriph_Driver/src/stm32f4xx_can.c ****     
 623:../Libraries/STM32F4xx_StdPeriph_Driver/src/stm32f4xx_can.c ****     /* Set up the DLC */
 624:../Libraries/STM32F4xx_StdPeriph_Driver/src/stm32f4xx_can.c ****     TxMessage->DLC &= (uint8_t)0x0000000F;
 25584              		.loc 1 624 0
 25585 0642 3B68     		ldr	r3, [r7, #0]
 25586 0644 9B7A     		ldrb	r3, [r3, #10]	@ zero_extendqisi2
 25587 0646 03F00F03 		and	r3, r3, #15
 25588 064a DAB2     		uxtb	r2, r3
 25589 064c 3B68     		ldr	r3, [r7, #0]
 25590 064e 9A72     		strb	r2, [r3, #10]
 625:../Libraries/STM32F4xx_StdPeriph_Driver/src/stm32f4xx_can.c ****     CANx->sTxMailBox[transmit_mailbox].TDTR &= (uint32_t)0xFFFFFFF0;
 25591              		.loc 1 625 0
 25592 0650 FB7B     		ldrb	r3, [r7, #15]	@ zero_extendqisi2
 25593 0652 FA7B     		ldrb	r2, [r7, #15]	@ zero_extendqisi2
 25594 0654 7968     		ldr	r1, [r7, #4]
 25595 0656 02F11802 		add	r2, r2, #24
 25596 065a 4FEA0212 		lsl	r2, r2, #4
 25597 065e 8A18     		adds	r2, r1, r2
 25598 0660 5268     		ldr	r2, [r2, #4]
 25599 0662 22F00F02 		bic	r2, r2, #15
 25600 0666 7968     		ldr	r1, [r7, #4]
 25601 0668 03F11803 		add	r3, r3, #24
 25602 066c 4FEA0313 		lsl	r3, r3, #4
 25603 0670 CB18     		adds	r3, r1, r3
 25604 0672 5A60     		str	r2, [r3, #4]
 626:../Libraries/STM32F4xx_StdPeriph_Driver/src/stm32f4xx_can.c ****     CANx->sTxMailBox[transmit_mailbox].TDTR |= TxMessage->DLC;
 25605              		.loc 1 626 0
 25606 0674 FB7B     		ldrb	r3, [r7, #15]	@ zero_extendqisi2
 25607 0676 FA7B     		ldrb	r2, [r7, #15]	@ zero_extendqisi2
 25608 0678 7968     		ldr	r1, [r7, #4]
 25609 067a 02F11802 		add	r2, r2, #24
 25610 067e 4FEA0212 		lsl	r2, r2, #4
 25611 0682 8A18     		adds	r2, r1, r2
 25612 0684 5168     		ldr	r1, [r2, #4]
 25613 0686 3A68     		ldr	r2, [r7, #0]
 25614 0688 927A     		ldrb	r2, [r2, #10]	@ zero_extendqisi2
 25615 068a 41EA0202 		orr	r2, r1, r2
 25616 068e 7968     		ldr	r1, [r7, #4]
 25617 0690 03F11803 		add	r3, r3, #24
 25618 0694 4FEA0313 		lsl	r3, r3, #4
 25619 0698 CB18     		adds	r3, r1, r3
 25620 069a 5A60     		str	r2, [r3, #4]
 627:../Libraries/STM32F4xx_StdPeriph_Driver/src/stm32f4xx_can.c **** 
 628:../Libraries/STM32F4xx_StdPeriph_Driver/src/stm32f4xx_can.c ****     /* Set up the data field */
 629:../Libraries/STM32F4xx_StdPeriph_Driver/src/stm32f4xx_can.c ****     CANx->sTxMailBox[transmit_mailbox].TDLR = (((uint32_t)TxMessage->Data[3] << 24) | 
 25621              		.loc 1 629 0
 25622 069c FB7B     		ldrb	r3, [r7, #15]	@ zero_extendqisi2
 25623 069e 3A68     		ldr	r2, [r7, #0]
 25624 06a0 927B     		ldrb	r2, [r2, #14]	@ zero_extendqisi2
 25625 06a2 4FEA0261 		lsl	r1, r2, #24
 630:../Libraries/STM32F4xx_StdPeriph_Driver/src/stm32f4xx_can.c ****                                              ((uint32_t)TxMessage->Data[2] << 16) |
 25626              		.loc 1 630 0
 25627 06a6 3A68     		ldr	r2, [r7, #0]
 25628 06a8 527B     		ldrb	r2, [r2, #13]	@ zero_extendqisi2
 25629 06aa 4FEA0242 		lsl	r2, r2, #16
 629:../Libraries/STM32F4xx_StdPeriph_Driver/src/stm32f4xx_can.c ****     CANx->sTxMailBox[transmit_mailbox].TDLR = (((uint32_t)TxMessage->Data[3] << 24) | 
 25630              		.loc 1 629 0
 25631 06ae 1143     		orrs	r1, r1, r2
 631:../Libraries/STM32F4xx_StdPeriph_Driver/src/stm32f4xx_can.c ****                                              ((uint32_t)TxMessage->Data[1] << 8) | 
 25632              		.loc 1 631 0
 25633 06b0 3A68     		ldr	r2, [r7, #0]
 25634 06b2 127B     		ldrb	r2, [r2, #12]	@ zero_extendqisi2
 25635 06b4 4FEA0222 		lsl	r2, r2, #8
 630:../Libraries/STM32F4xx_StdPeriph_Driver/src/stm32f4xx_can.c ****                                              ((uint32_t)TxMessage->Data[2] << 16) |
 25636              		.loc 1 630 0
 25637 06b8 1143     		orrs	r1, r1, r2
 632:../Libraries/STM32F4xx_StdPeriph_Driver/src/stm32f4xx_can.c ****                                              ((uint32_t)TxMessage->Data[0]));
 25638              		.loc 1 632 0
 25639 06ba 3A68     		ldr	r2, [r7, #0]
 25640 06bc D27A     		ldrb	r2, [r2, #11]	@ zero_extendqisi2
 631:../Libraries/STM32F4xx_StdPeriph_Driver/src/stm32f4xx_can.c ****                                              ((uint32_t)TxMessage->Data[1] << 8) | 
 25641              		.loc 1 631 0
 25642 06be 41EA0202 		orr	r2, r1, r2
 629:../Libraries/STM32F4xx_StdPeriph_Driver/src/stm32f4xx_can.c ****     CANx->sTxMailBox[transmit_mailbox].TDLR = (((uint32_t)TxMessage->Data[3] << 24) | 
 25643              		.loc 1 629 0
 25644 06c2 7968     		ldr	r1, [r7, #4]
 25645 06c4 4FEA0313 		lsl	r3, r3, #4
 25646 06c8 CB18     		adds	r3, r1, r3
 25647 06ca 03F5C473 		add	r3, r3, #392
 25648 06ce 1A60     		str	r2, [r3, #0]
 633:../Libraries/STM32F4xx_StdPeriph_Driver/src/stm32f4xx_can.c ****     CANx->sTxMailBox[transmit_mailbox].TDHR = (((uint32_t)TxMessage->Data[7] << 24) | 
 25649              		.loc 1 633 0
 25650 06d0 FB7B     		ldrb	r3, [r7, #15]	@ zero_extendqisi2
 25651 06d2 3A68     		ldr	r2, [r7, #0]
 25652 06d4 927C     		ldrb	r2, [r2, #18]	@ zero_extendqisi2
 25653 06d6 4FEA0261 		lsl	r1, r2, #24
 634:../Libraries/STM32F4xx_StdPeriph_Driver/src/stm32f4xx_can.c ****                                              ((uint32_t)TxMessage->Data[6] << 16) |
 25654              		.loc 1 634 0
 25655 06da 3A68     		ldr	r2, [r7, #0]
 25656 06dc 527C     		ldrb	r2, [r2, #17]	@ zero_extendqisi2
 25657 06de 4FEA0242 		lsl	r2, r2, #16
 633:../Libraries/STM32F4xx_StdPeriph_Driver/src/stm32f4xx_can.c ****     CANx->sTxMailBox[transmit_mailbox].TDHR = (((uint32_t)TxMessage->Data[7] << 24) | 
 25658              		.loc 1 633 0
 25659 06e2 1143     		orrs	r1, r1, r2
 635:../Libraries/STM32F4xx_StdPeriph_Driver/src/stm32f4xx_can.c ****                                              ((uint32_t)TxMessage->Data[5] << 8) |
 25660              		.loc 1 635 0
 25661 06e4 3A68     		ldr	r2, [r7, #0]
 25662 06e6 127C     		ldrb	r2, [r2, #16]	@ zero_extendqisi2
 25663 06e8 4FEA0222 		lsl	r2, r2, #8
 634:../Libraries/STM32F4xx_StdPeriph_Driver/src/stm32f4xx_can.c ****                                              ((uint32_t)TxMessage->Data[6] << 16) |
 25664              		.loc 1 634 0
 25665 06ec 1143     		orrs	r1, r1, r2
 636:../Libraries/STM32F4xx_StdPeriph_Driver/src/stm32f4xx_can.c ****                                              ((uint32_t)TxMessage->Data[4]));
 25666              		.loc 1 636 0
 25667 06ee 3A68     		ldr	r2, [r7, #0]
 25668 06f0 D27B     		ldrb	r2, [r2, #15]	@ zero_extendqisi2
 635:../Libraries/STM32F4xx_StdPeriph_Driver/src/stm32f4xx_can.c ****                                              ((uint32_t)TxMessage->Data[5] << 8) |
 25669              		.loc 1 635 0
 25670 06f2 41EA0202 		orr	r2, r1, r2
 633:../Libraries/STM32F4xx_StdPeriph_Driver/src/stm32f4xx_can.c ****     CANx->sTxMailBox[transmit_mailbox].TDHR = (((uint32_t)TxMessage->Data[7] << 24) | 
 25671              		.loc 1 633 0
 25672 06f6 7968     		ldr	r1, [r7, #4]
 25673 06f8 4FEA0313 		lsl	r3, r3, #4
 25674 06fc CB18     		adds	r3, r1, r3
 25675 06fe 03F5C473 		add	r3, r3, #392
 25676 0702 5A60     		str	r2, [r3, #4]
 637:../Libraries/STM32F4xx_StdPeriph_Driver/src/stm32f4xx_can.c ****     /* Request transmission */
 638:../Libraries/STM32F4xx_StdPeriph_Driver/src/stm32f4xx_can.c ****     CANx->sTxMailBox[transmit_mailbox].TIR |= TMIDxR_TXRQ;
 25677              		.loc 1 638 0
 25678 0704 FB7B     		ldrb	r3, [r7, #15]	@ zero_extendqisi2
 25679 0706 FA7B     		ldrb	r2, [r7, #15]	@ zero_extendqisi2
 25680 0708 7968     		ldr	r1, [r7, #4]
 25681 070a 02F11802 		add	r2, r2, #24
 25682 070e 4FEA0212 		lsl	r2, r2, #4
 25683 0712 8A18     		adds	r2, r1, r2
 25684 0714 1268     		ldr	r2, [r2, #0]
 25685 0716 42F00102 		orr	r2, r2, #1
 25686 071a 7968     		ldr	r1, [r7, #4]
 25687 071c 03F11803 		add	r3, r3, #24
 25688 0720 4FEA0313 		lsl	r3, r3, #4
 25689 0724 CB18     		adds	r3, r1, r3
 25690 0726 1A60     		str	r2, [r3, #0]
 25691              	.L53:
 639:../Libraries/STM32F4xx_StdPeriph_Driver/src/stm32f4xx_can.c ****   }
 640:../Libraries/STM32F4xx_StdPeriph_Driver/src/stm32f4xx_can.c ****   return transmit_mailbox;
 25692              		.loc 1 640 0
 25693 0728 FB7B     		ldrb	r3, [r7, #15]	@ zero_extendqisi2
 641:../Libraries/STM32F4xx_StdPeriph_Driver/src/stm32f4xx_can.c **** }
 25694              		.loc 1 641 0
 25695 072a 1846     		mov	r0, r3
 25696 072c 07F11407 		add	r7, r7, #20
 25697 0730 BD46     		mov	sp, r7
 25698 0732 80BC     		pop	{r7}
 25699 0734 7047     		bx	lr
 25700              		.cfi_endproc
 25701              	.LFE117:
 25703 0736 00BF     		.align	2
 25704              		.global	CAN_TransmitStatus
 25705              		.thumb
 25706              		.thumb_func
 25708              	CAN_TransmitStatus:
 25709              	.LFB118:
 642:../Libraries/STM32F4xx_StdPeriph_Driver/src/stm32f4xx_can.c **** 
 643:../Libraries/STM32F4xx_StdPeriph_Driver/src/stm32f4xx_can.c **** /**
 644:../Libraries/STM32F4xx_StdPeriph_Driver/src/stm32f4xx_can.c ****   * @brief  Checks the transmission status of a CAN Frame.
 645:../Libraries/STM32F4xx_StdPeriph_Driver/src/stm32f4xx_can.c ****   * @param  CANx: where x can be 1 or 2 to select the CAN peripheral.
 646:../Libraries/STM32F4xx_StdPeriph_Driver/src/stm32f4xx_can.c ****   * @param  TransmitMailbox: the number of the mailbox that is used for transmission.
 647:../Libraries/STM32F4xx_StdPeriph_Driver/src/stm32f4xx_can.c ****   * @retval CAN_TxStatus_Ok if the CAN driver transmits the message, 
 648:../Libraries/STM32F4xx_StdPeriph_Driver/src/stm32f4xx_can.c ****   *         CAN_TxStatus_Failed in an other case.
 649:../Libraries/STM32F4xx_StdPeriph_Driver/src/stm32f4xx_can.c ****   */
 650:../Libraries/STM32F4xx_StdPeriph_Driver/src/stm32f4xx_can.c **** uint8_t CAN_TransmitStatus(CAN_TypeDef* CANx, uint8_t TransmitMailbox)
 651:../Libraries/STM32F4xx_StdPeriph_Driver/src/stm32f4xx_can.c **** {
 25710              		.loc 1 651 0
 25711              		.cfi_startproc
 25712              		@ args = 0, pretend = 0, frame = 16
 25713              		@ frame_needed = 1, uses_anonymous_args = 0
 25714              		@ link register save eliminated.
 25715 0738 80B4     		push	{r7}
 25716              	.LCFI24:
 25717              		.cfi_def_cfa_offset 4
 25718 073a 85B0     		sub	sp, sp, #20
 25719              	.LCFI25:
 25720              		.cfi_def_cfa_offset 24
 25721 073c 00AF     		add	r7, sp, #0
 25722              		.cfi_offset 7, -4
 25723              	.LCFI26:
 25724              		.cfi_def_cfa_register 7
 25725 073e 7860     		str	r0, [r7, #4]
 25726 0740 0B46     		mov	r3, r1
 25727 0742 FB70     		strb	r3, [r7, #3]
 652:../Libraries/STM32F4xx_StdPeriph_Driver/src/stm32f4xx_can.c ****   uint32_t state = 0;
 25728              		.loc 1 652 0
 25729 0744 4FF00003 		mov	r3, #0
 25730 0748 FB60     		str	r3, [r7, #12]
 653:../Libraries/STM32F4xx_StdPeriph_Driver/src/stm32f4xx_can.c **** 
 654:../Libraries/STM32F4xx_StdPeriph_Driver/src/stm32f4xx_can.c ****   /* Check the parameters */
 655:../Libraries/STM32F4xx_StdPeriph_Driver/src/stm32f4xx_can.c ****   assert_param(IS_CAN_ALL_PERIPH(CANx));
 656:../Libraries/STM32F4xx_StdPeriph_Driver/src/stm32f4xx_can.c ****   assert_param(IS_CAN_TRANSMITMAILBOX(TransmitMailbox));
 657:../Libraries/STM32F4xx_StdPeriph_Driver/src/stm32f4xx_can.c ****  
 658:../Libraries/STM32F4xx_StdPeriph_Driver/src/stm32f4xx_can.c ****   switch (TransmitMailbox)
 25731              		.loc 1 658 0
 25732 074a FB78     		ldrb	r3, [r7, #3]	@ zero_extendqisi2
 25733 074c 012B     		cmp	r3, #1
 25734 074e 0AD0     		beq	.L59
 25735 0750 022B     		cmp	r3, #2
 25736 0752 0FD0     		beq	.L60
 25737 0754 002B     		cmp	r3, #0
 25738 0756 14D1     		bne	.L72
 25739              	.L58:
 659:../Libraries/STM32F4xx_StdPeriph_Driver/src/stm32f4xx_can.c ****   {
 660:../Libraries/STM32F4xx_StdPeriph_Driver/src/stm32f4xx_can.c ****     case (CAN_TXMAILBOX_0): 
 661:../Libraries/STM32F4xx_StdPeriph_Driver/src/stm32f4xx_can.c ****       state =   CANx->TSR &  (CAN_TSR_RQCP0 | CAN_TSR_TXOK0 | CAN_TSR_TME0);
 25740              		.loc 1 661 0
 25741 0758 7B68     		ldr	r3, [r7, #4]
 25742 075a 9A68     		ldr	r2, [r3, #8]
 25743 075c 2C4B     		ldr	r3, .L73
 25744 075e 02EA0303 		and	r3, r2, r3
 25745 0762 FB60     		str	r3, [r7, #12]
 662:../Libraries/STM32F4xx_StdPeriph_Driver/src/stm32f4xx_can.c ****       break;
 25746              		.loc 1 662 0
 25747 0764 11E0     		b	.L61
 25748              	.L59:
 663:../Libraries/STM32F4xx_StdPeriph_Driver/src/stm32f4xx_can.c ****     case (CAN_TXMAILBOX_1): 
 664:../Libraries/STM32F4xx_StdPeriph_Driver/src/stm32f4xx_can.c ****       state =   CANx->TSR &  (CAN_TSR_RQCP1 | CAN_TSR_TXOK1 | CAN_TSR_TME1);
 25749              		.loc 1 664 0
 25750 0766 7B68     		ldr	r3, [r7, #4]
 25751 0768 9A68     		ldr	r2, [r3, #8]
 25752 076a 2A4B     		ldr	r3, .L73+4
 25753 076c 02EA0303 		and	r3, r2, r3
 25754 0770 FB60     		str	r3, [r7, #12]
 665:../Libraries/STM32F4xx_StdPeriph_Driver/src/stm32f4xx_can.c ****       break;
 25755              		.loc 1 665 0
 25756 0772 0AE0     		b	.L61
 25757              	.L60:
 666:../Libraries/STM32F4xx_StdPeriph_Driver/src/stm32f4xx_can.c ****     case (CAN_TXMAILBOX_2): 
 667:../Libraries/STM32F4xx_StdPeriph_Driver/src/stm32f4xx_can.c ****       state =   CANx->TSR &  (CAN_TSR_RQCP2 | CAN_TSR_TXOK2 | CAN_TSR_TME2);
 25758              		.loc 1 667 0
 25759 0774 7B68     		ldr	r3, [r7, #4]
 25760 0776 9A68     		ldr	r2, [r3, #8]
 25761 0778 274B     		ldr	r3, .L73+8
 25762 077a 02EA0303 		and	r3, r2, r3
 25763 077e FB60     		str	r3, [r7, #12]
 668:../Libraries/STM32F4xx_StdPeriph_Driver/src/stm32f4xx_can.c ****       break;
 25764              		.loc 1 668 0
 25765 0780 03E0     		b	.L61
 25766              	.L72:
 669:../Libraries/STM32F4xx_StdPeriph_Driver/src/stm32f4xx_can.c ****     default:
 670:../Libraries/STM32F4xx_StdPeriph_Driver/src/stm32f4xx_can.c ****       state = CAN_TxStatus_Failed;
 25767              		.loc 1 670 0
 25768 0782 4FF00003 		mov	r3, #0
 25769 0786 FB60     		str	r3, [r7, #12]
 671:../Libraries/STM32F4xx_StdPeriph_Driver/src/stm32f4xx_can.c ****       break;
 25770              		.loc 1 671 0
 25771 0788 00BF     		nop
 25772              	.L61:
 672:../Libraries/STM32F4xx_StdPeriph_Driver/src/stm32f4xx_can.c ****   }
 673:../Libraries/STM32F4xx_StdPeriph_Driver/src/stm32f4xx_can.c ****   switch (state)
 25773              		.loc 1 673 0
 25774 078a FB68     		ldr	r3, [r7, #12]
 25775 078c 234A     		ldr	r2, .L73+12
 25776 078e 9342     		cmp	r3, r2
 25777 0790 1DD0     		beq	.L66
 25778 0792 224A     		ldr	r2, .L73+12
 25779 0794 9342     		cmp	r3, r2
 25780 0796 08D8     		bhi	.L70
 25781 0798 214A     		ldr	r2, .L73+16
 25782 079a 9342     		cmp	r3, r2
 25783 079c 13D0     		beq	.L64
 25784 079e 1C4A     		ldr	r2, .L73
 25785 07a0 9342     		cmp	r3, r2
 25786 07a2 1CD0     		beq	.L65
 25787 07a4 002B     		cmp	r3, #0
 25788 07a6 0AD0     		beq	.L63
 25789 07a8 25E0     		b	.L62
 25790              	.L70:
 25791 07aa 1E4A     		ldr	r2, .L73+20
 25792 07ac 9342     		cmp	r3, r2
 25793 07ae 12D0     		beq	.L68
 25794 07b0 194A     		ldr	r2, .L73+8
 25795 07b2 9342     		cmp	r3, r2
 25796 07b4 1BD0     		beq	.L69
 25797 07b6 174A     		ldr	r2, .L73+4
 25798 07b8 9342     		cmp	r3, r2
 25799 07ba 14D0     		beq	.L67
 25800 07bc 1BE0     		b	.L62
 25801              	.L63:
 674:../Libraries/STM32F4xx_StdPeriph_Driver/src/stm32f4xx_can.c ****   {
 675:../Libraries/STM32F4xx_StdPeriph_Driver/src/stm32f4xx_can.c ****       /* transmit pending  */
 676:../Libraries/STM32F4xx_StdPeriph_Driver/src/stm32f4xx_can.c ****     case (0x0): state = CAN_TxStatus_Pending;
 25802              		.loc 1 676 0
 25803 07be 4FF00203 		mov	r3, #2
 25804 07c2 FB60     		str	r3, [r7, #12]
 677:../Libraries/STM32F4xx_StdPeriph_Driver/src/stm32f4xx_can.c ****       break;
 25805              		.loc 1 677 0
 25806 07c4 1BE0     		b	.L71
 25807              	.L64:
 678:../Libraries/STM32F4xx_StdPeriph_Driver/src/stm32f4xx_can.c ****       /* transmit failed  */
 679:../Libraries/STM32F4xx_StdPeriph_Driver/src/stm32f4xx_can.c ****      case (CAN_TSR_RQCP0 | CAN_TSR_TME0): state = CAN_TxStatus_Failed;
 25808              		.loc 1 679 0
 25809 07c6 4FF00003 		mov	r3, #0
 25810 07ca FB60     		str	r3, [r7, #12]
 680:../Libraries/STM32F4xx_StdPeriph_Driver/src/stm32f4xx_can.c ****       break;
 25811              		.loc 1 680 0
 25812 07cc 17E0     		b	.L71
 25813              	.L66:
 681:../Libraries/STM32F4xx_StdPeriph_Driver/src/stm32f4xx_can.c ****      case (CAN_TSR_RQCP1 | CAN_TSR_TME1): state = CAN_TxStatus_Failed;
 25814              		.loc 1 681 0
 25815 07ce 4FF00003 		mov	r3, #0
 25816 07d2 FB60     		str	r3, [r7, #12]
 682:../Libraries/STM32F4xx_StdPeriph_Driver/src/stm32f4xx_can.c ****       break;
 25817              		.loc 1 682 0
 25818 07d4 13E0     		b	.L71
 25819              	.L68:
 683:../Libraries/STM32F4xx_StdPeriph_Driver/src/stm32f4xx_can.c ****      case (CAN_TSR_RQCP2 | CAN_TSR_TME2): state = CAN_TxStatus_Failed;
 25820              		.loc 1 683 0
 25821 07d6 4FF00003 		mov	r3, #0
 25822 07da FB60     		str	r3, [r7, #12]
 684:../Libraries/STM32F4xx_StdPeriph_Driver/src/stm32f4xx_can.c ****       break;
 25823              		.loc 1 684 0
 25824 07dc 0FE0     		b	.L71
 25825              	.L65:
 685:../Libraries/STM32F4xx_StdPeriph_Driver/src/stm32f4xx_can.c ****       /* transmit succeeded  */
 686:../Libraries/STM32F4xx_StdPeriph_Driver/src/stm32f4xx_can.c ****     case (CAN_TSR_RQCP0 | CAN_TSR_TXOK0 | CAN_TSR_TME0):state = CAN_TxStatus_Ok;
 25826              		.loc 1 686 0
 25827 07de 4FF00103 		mov	r3, #1
 25828 07e2 FB60     		str	r3, [r7, #12]
 687:../Libraries/STM32F4xx_StdPeriph_Driver/src/stm32f4xx_can.c ****       break;
 25829              		.loc 1 687 0
 25830 07e4 0BE0     		b	.L71
 25831              	.L67:
 688:../Libraries/STM32F4xx_StdPeriph_Driver/src/stm32f4xx_can.c ****     case (CAN_TSR_RQCP1 | CAN_TSR_TXOK1 | CAN_TSR_TME1):state = CAN_TxStatus_Ok;
 25832              		.loc 1 688 0
 25833 07e6 4FF00103 		mov	r3, #1
 25834 07ea FB60     		str	r3, [r7, #12]
 689:../Libraries/STM32F4xx_StdPeriph_Driver/src/stm32f4xx_can.c ****       break;
 25835              		.loc 1 689 0
 25836 07ec 07E0     		b	.L71
 25837              	.L69:
 690:../Libraries/STM32F4xx_StdPeriph_Driver/src/stm32f4xx_can.c ****     case (CAN_TSR_RQCP2 | CAN_TSR_TXOK2 | CAN_TSR_TME2):state = CAN_TxStatus_Ok;
 25838              		.loc 1 690 0
 25839 07ee 4FF00103 		mov	r3, #1
 25840 07f2 FB60     		str	r3, [r7, #12]
 691:../Libraries/STM32F4xx_StdPeriph_Driver/src/stm32f4xx_can.c ****       break;
 25841              		.loc 1 691 0
 25842 07f4 03E0     		b	.L71
 25843              	.L62:
 692:../Libraries/STM32F4xx_StdPeriph_Driver/src/stm32f4xx_can.c ****     default: state = CAN_TxStatus_Failed;
 25844              		.loc 1 692 0
 25845 07f6 4FF00003 		mov	r3, #0
 25846 07fa FB60     		str	r3, [r7, #12]
 693:../Libraries/STM32F4xx_StdPeriph_Driver/src/stm32f4xx_can.c ****       break;
 25847              		.loc 1 693 0
 25848 07fc 00BF     		nop
 25849              	.L71:
 694:../Libraries/STM32F4xx_StdPeriph_Driver/src/stm32f4xx_can.c ****   }
 695:../Libraries/STM32F4xx_StdPeriph_Driver/src/stm32f4xx_can.c ****   return (uint8_t) state;
 25850              		.loc 1 695 0
 25851 07fe FB68     		ldr	r3, [r7, #12]
 25852 0800 DBB2     		uxtb	r3, r3
 696:../Libraries/STM32F4xx_StdPeriph_Driver/src/stm32f4xx_can.c **** }
 25853              		.loc 1 696 0
 25854 0802 1846     		mov	r0, r3
 25855 0804 07F11407 		add	r7, r7, #20
 25856 0808 BD46     		mov	sp, r7
 25857 080a 80BC     		pop	{r7}
 25858 080c 7047     		bx	lr
 25859              	.L74:
 25860 080e 00BF     		.align	2
 25861              	.L73:
 25862 0810 03000004 		.word	67108867
 25863 0814 00030008 		.word	134218496
 25864 0818 00000310 		.word	268632064
 25865 081c 00010008 		.word	134217984
 25866 0820 01000004 		.word	67108865
 25867 0824 00000110 		.word	268500992
 25868              		.cfi_endproc
 25869              	.LFE118:
 25871              		.align	2
 25872              		.global	CAN_CancelTransmit
 25873              		.thumb
 25874              		.thumb_func
 25876              	CAN_CancelTransmit:
 25877              	.LFB119:
 697:../Libraries/STM32F4xx_StdPeriph_Driver/src/stm32f4xx_can.c **** 
 698:../Libraries/STM32F4xx_StdPeriph_Driver/src/stm32f4xx_can.c **** /**
 699:../Libraries/STM32F4xx_StdPeriph_Driver/src/stm32f4xx_can.c ****   * @brief  Cancels a transmit request.
 700:../Libraries/STM32F4xx_StdPeriph_Driver/src/stm32f4xx_can.c ****   * @param  CANx: where x can be 1 or 2 to select the CAN peripheral.
 701:../Libraries/STM32F4xx_StdPeriph_Driver/src/stm32f4xx_can.c ****   * @param  Mailbox: Mailbox number.
 702:../Libraries/STM32F4xx_StdPeriph_Driver/src/stm32f4xx_can.c ****   * @retval None
 703:../Libraries/STM32F4xx_StdPeriph_Driver/src/stm32f4xx_can.c ****   */
 704:../Libraries/STM32F4xx_StdPeriph_Driver/src/stm32f4xx_can.c **** void CAN_CancelTransmit(CAN_TypeDef* CANx, uint8_t Mailbox)
 705:../Libraries/STM32F4xx_StdPeriph_Driver/src/stm32f4xx_can.c **** {
 25878              		.loc 1 705 0
 25879              		.cfi_startproc
 25880              		@ args = 0, pretend = 0, frame = 8
 25881              		@ frame_needed = 1, uses_anonymous_args = 0
 25882              		@ link register save eliminated.
 25883 0828 80B4     		push	{r7}
 25884              	.LCFI27:
 25885              		.cfi_def_cfa_offset 4
 25886 082a 83B0     		sub	sp, sp, #12
 25887              	.LCFI28:
 25888              		.cfi_def_cfa_offset 16
 25889 082c 00AF     		add	r7, sp, #0
 25890              		.cfi_offset 7, -4
 25891              	.LCFI29:
 25892              		.cfi_def_cfa_register 7
 25893 082e 7860     		str	r0, [r7, #4]
 25894 0830 0B46     		mov	r3, r1
 25895 0832 FB70     		strb	r3, [r7, #3]
 706:../Libraries/STM32F4xx_StdPeriph_Driver/src/stm32f4xx_can.c ****   /* Check the parameters */
 707:../Libraries/STM32F4xx_StdPeriph_Driver/src/stm32f4xx_can.c ****   assert_param(IS_CAN_ALL_PERIPH(CANx));
 708:../Libraries/STM32F4xx_StdPeriph_Driver/src/stm32f4xx_can.c ****   assert_param(IS_CAN_TRANSMITMAILBOX(Mailbox));
 709:../Libraries/STM32F4xx_StdPeriph_Driver/src/stm32f4xx_can.c ****   /* abort transmission */
 710:../Libraries/STM32F4xx_StdPeriph_Driver/src/stm32f4xx_can.c ****   switch (Mailbox)
 25896              		.loc 1 710 0
 25897 0834 FB78     		ldrb	r3, [r7, #3]	@ zero_extendqisi2
 25898 0836 012B     		cmp	r3, #1
 25899 0838 0AD0     		beq	.L78
 25900 083a 022B     		cmp	r3, #2
 25901 083c 0FD0     		beq	.L79
 25902 083e 002B     		cmp	r3, #0
 25903 0840 15D1     		bne	.L81
 25904              	.L77:
 711:../Libraries/STM32F4xx_StdPeriph_Driver/src/stm32f4xx_can.c ****   {
 712:../Libraries/STM32F4xx_StdPeriph_Driver/src/stm32f4xx_can.c ****     case (CAN_TXMAILBOX_0): CANx->TSR |= CAN_TSR_ABRQ0;
 25905              		.loc 1 712 0
 25906 0842 7B68     		ldr	r3, [r7, #4]
 25907 0844 9B68     		ldr	r3, [r3, #8]
 25908 0846 43F08002 		orr	r2, r3, #128
 25909 084a 7B68     		ldr	r3, [r7, #4]
 25910 084c 9A60     		str	r2, [r3, #8]
 713:../Libraries/STM32F4xx_StdPeriph_Driver/src/stm32f4xx_can.c ****       break;
 25911              		.loc 1 713 0
 25912 084e 0FE0     		b	.L75
 25913              	.L78:
 714:../Libraries/STM32F4xx_StdPeriph_Driver/src/stm32f4xx_can.c ****     case (CAN_TXMAILBOX_1): CANx->TSR |= CAN_TSR_ABRQ1;
 25914              		.loc 1 714 0
 25915 0850 7B68     		ldr	r3, [r7, #4]
 25916 0852 9B68     		ldr	r3, [r3, #8]
 25917 0854 43F40042 		orr	r2, r3, #32768
 25918 0858 7B68     		ldr	r3, [r7, #4]
 25919 085a 9A60     		str	r2, [r3, #8]
 715:../Libraries/STM32F4xx_StdPeriph_Driver/src/stm32f4xx_can.c ****       break;
 25920              		.loc 1 715 0
 25921 085c 08E0     		b	.L75
 25922              	.L79:
 716:../Libraries/STM32F4xx_StdPeriph_Driver/src/stm32f4xx_can.c ****     case (CAN_TXMAILBOX_2): CANx->TSR |= CAN_TSR_ABRQ2;
 25923              		.loc 1 716 0
 25924 085e 7B68     		ldr	r3, [r7, #4]
 25925 0860 9B68     		ldr	r3, [r3, #8]
 25926 0862 43F40002 		orr	r2, r3, #8388608
 25927 0866 7B68     		ldr	r3, [r7, #4]
 25928 0868 9A60     		str	r2, [r3, #8]
 717:../Libraries/STM32F4xx_StdPeriph_Driver/src/stm32f4xx_can.c ****       break;
 25929              		.loc 1 717 0
 25930 086a 00BF     		nop
 25931 086c 00E0     		b	.L75
 25932              	.L81:
 718:../Libraries/STM32F4xx_StdPeriph_Driver/src/stm32f4xx_can.c ****     default:
 719:../Libraries/STM32F4xx_StdPeriph_Driver/src/stm32f4xx_can.c ****       break;
 25933              		.loc 1 719 0
 25934 086e 00BF     		nop
 25935              	.L75:
 720:../Libraries/STM32F4xx_StdPeriph_Driver/src/stm32f4xx_can.c ****   }
 721:../Libraries/STM32F4xx_StdPeriph_Driver/src/stm32f4xx_can.c **** }
 25936              		.loc 1 721 0
 25937 0870 07F10C07 		add	r7, r7, #12
 25938 0874 BD46     		mov	sp, r7
 25939 0876 80BC     		pop	{r7}
 25940 0878 7047     		bx	lr
 25941              		.cfi_endproc
 25942              	.LFE119:
 25944 087a 00BF     		.align	2
 25945              		.global	CAN_Receive
 25946              		.thumb
 25947              		.thumb_func
 25949              	CAN_Receive:
 25950              	.LFB120:
 722:../Libraries/STM32F4xx_StdPeriph_Driver/src/stm32f4xx_can.c **** /**
 723:../Libraries/STM32F4xx_StdPeriph_Driver/src/stm32f4xx_can.c ****   * @}
 724:../Libraries/STM32F4xx_StdPeriph_Driver/src/stm32f4xx_can.c ****   */
 725:../Libraries/STM32F4xx_StdPeriph_Driver/src/stm32f4xx_can.c **** 
 726:../Libraries/STM32F4xx_StdPeriph_Driver/src/stm32f4xx_can.c **** 
 727:../Libraries/STM32F4xx_StdPeriph_Driver/src/stm32f4xx_can.c **** /** @defgroup CAN_Group3 CAN Frames Reception functions
 728:../Libraries/STM32F4xx_StdPeriph_Driver/src/stm32f4xx_can.c ****  *  @brief    CAN Frames Reception functions 
 729:../Libraries/STM32F4xx_StdPeriph_Driver/src/stm32f4xx_can.c ****  *
 730:../Libraries/STM32F4xx_StdPeriph_Driver/src/stm32f4xx_can.c **** @verbatim    
 731:../Libraries/STM32F4xx_StdPeriph_Driver/src/stm32f4xx_can.c ****  ===============================================================================
 732:../Libraries/STM32F4xx_StdPeriph_Driver/src/stm32f4xx_can.c ****                       CAN Frames Reception functions
 733:../Libraries/STM32F4xx_StdPeriph_Driver/src/stm32f4xx_can.c ****  ===============================================================================  
 734:../Libraries/STM32F4xx_StdPeriph_Driver/src/stm32f4xx_can.c ****   This section provides functions allowing to 
 735:../Libraries/STM32F4xx_StdPeriph_Driver/src/stm32f4xx_can.c ****    -  Receive a correct CAN frame
 736:../Libraries/STM32F4xx_StdPeriph_Driver/src/stm32f4xx_can.c ****    -  Release a specified receive FIFO (2 FIFOs are available)
 737:../Libraries/STM32F4xx_StdPeriph_Driver/src/stm32f4xx_can.c ****    -  Return the number of the pending received CAN frames
 738:../Libraries/STM32F4xx_StdPeriph_Driver/src/stm32f4xx_can.c ****    
 739:../Libraries/STM32F4xx_StdPeriph_Driver/src/stm32f4xx_can.c **** @endverbatim
 740:../Libraries/STM32F4xx_StdPeriph_Driver/src/stm32f4xx_can.c ****   * @{
 741:../Libraries/STM32F4xx_StdPeriph_Driver/src/stm32f4xx_can.c ****   */
 742:../Libraries/STM32F4xx_StdPeriph_Driver/src/stm32f4xx_can.c **** 
 743:../Libraries/STM32F4xx_StdPeriph_Driver/src/stm32f4xx_can.c **** /**
 744:../Libraries/STM32F4xx_StdPeriph_Driver/src/stm32f4xx_can.c ****   * @brief  Receives a correct CAN frame.
 745:../Libraries/STM32F4xx_StdPeriph_Driver/src/stm32f4xx_can.c ****   * @param  CANx: where x can be 1 or 2 to select the CAN peripheral.
 746:../Libraries/STM32F4xx_StdPeriph_Driver/src/stm32f4xx_can.c ****   * @param  FIFONumber: Receive FIFO number, CAN_FIFO0 or CAN_FIFO1.
 747:../Libraries/STM32F4xx_StdPeriph_Driver/src/stm32f4xx_can.c ****   * @param  RxMessage: pointer to a structure receive frame which contains CAN Id,
 748:../Libraries/STM32F4xx_StdPeriph_Driver/src/stm32f4xx_can.c ****   *         CAN DLC, CAN data and FMI number.
 749:../Libraries/STM32F4xx_StdPeriph_Driver/src/stm32f4xx_can.c ****   * @retval None
 750:../Libraries/STM32F4xx_StdPeriph_Driver/src/stm32f4xx_can.c ****   */
 751:../Libraries/STM32F4xx_StdPeriph_Driver/src/stm32f4xx_can.c **** void CAN_Receive(CAN_TypeDef* CANx, uint8_t FIFONumber, CanRxMsg* RxMessage)
 752:../Libraries/STM32F4xx_StdPeriph_Driver/src/stm32f4xx_can.c **** {
 25951              		.loc 1 752 0
 25952              		.cfi_startproc
 25953              		@ args = 0, pretend = 0, frame = 16
 25954              		@ frame_needed = 1, uses_anonymous_args = 0
 25955              		@ link register save eliminated.
 25956 087c 80B4     		push	{r7}
 25957              	.LCFI30:
 25958              		.cfi_def_cfa_offset 4
 25959 087e 85B0     		sub	sp, sp, #20
 25960              	.LCFI31:
 25961              		.cfi_def_cfa_offset 24
 25962 0880 00AF     		add	r7, sp, #0
 25963              		.cfi_offset 7, -4
 25964              	.LCFI32:
 25965              		.cfi_def_cfa_register 7
 25966 0882 F860     		str	r0, [r7, #12]
 25967 0884 0B46     		mov	r3, r1
 25968 0886 7A60     		str	r2, [r7, #4]
 25969 0888 FB72     		strb	r3, [r7, #11]
 753:../Libraries/STM32F4xx_StdPeriph_Driver/src/stm32f4xx_can.c ****   /* Check the parameters */
 754:../Libraries/STM32F4xx_StdPeriph_Driver/src/stm32f4xx_can.c ****   assert_param(IS_CAN_ALL_PERIPH(CANx));
 755:../Libraries/STM32F4xx_StdPeriph_Driver/src/stm32f4xx_can.c ****   assert_param(IS_CAN_FIFO(FIFONumber));
 756:../Libraries/STM32F4xx_StdPeriph_Driver/src/stm32f4xx_can.c ****   /* Get the Id */
 757:../Libraries/STM32F4xx_StdPeriph_Driver/src/stm32f4xx_can.c ****   RxMessage->IDE = (uint8_t)0x04 & CANx->sFIFOMailBox[FIFONumber].RIR;
 25970              		.loc 1 757 0
 25971 088a FB7A     		ldrb	r3, [r7, #11]	@ zero_extendqisi2
 25972 088c FA68     		ldr	r2, [r7, #12]
 25973 088e 03F11B03 		add	r3, r3, #27
 25974 0892 4FEA0313 		lsl	r3, r3, #4
 25975 0896 D318     		adds	r3, r2, r3
 25976 0898 1B68     		ldr	r3, [r3, #0]
 25977 089a DBB2     		uxtb	r3, r3
 25978 089c 03F00403 		and	r3, r3, #4
 25979 08a0 DAB2     		uxtb	r2, r3
 25980 08a2 7B68     		ldr	r3, [r7, #4]
 25981 08a4 1A72     		strb	r2, [r3, #8]
 758:../Libraries/STM32F4xx_StdPeriph_Driver/src/stm32f4xx_can.c ****   if (RxMessage->IDE == CAN_Id_Standard)
 25982              		.loc 1 758 0
 25983 08a6 7B68     		ldr	r3, [r7, #4]
 25984 08a8 1B7A     		ldrb	r3, [r3, #8]	@ zero_extendqisi2
 25985 08aa 002B     		cmp	r3, #0
 25986 08ac 0CD1     		bne	.L83
 759:../Libraries/STM32F4xx_StdPeriph_Driver/src/stm32f4xx_can.c ****   {
 760:../Libraries/STM32F4xx_StdPeriph_Driver/src/stm32f4xx_can.c ****     RxMessage->StdId = (uint32_t)0x000007FF & (CANx->sFIFOMailBox[FIFONumber].RIR >> 21);
 25987              		.loc 1 760 0
 25988 08ae FB7A     		ldrb	r3, [r7, #11]	@ zero_extendqisi2
 25989 08b0 FA68     		ldr	r2, [r7, #12]
 25990 08b2 03F11B03 		add	r3, r3, #27
 25991 08b6 4FEA0313 		lsl	r3, r3, #4
 25992 08ba D318     		adds	r3, r2, r3
 25993 08bc 1B68     		ldr	r3, [r3, #0]
 25994 08be 4FEA5352 		lsr	r2, r3, #21
 25995 08c2 7B68     		ldr	r3, [r7, #4]
 25996 08c4 1A60     		str	r2, [r3, #0]
 25997 08c6 0BE0     		b	.L84
 25998              	.L83:
 761:../Libraries/STM32F4xx_StdPeriph_Driver/src/stm32f4xx_can.c ****   }
 762:../Libraries/STM32F4xx_StdPeriph_Driver/src/stm32f4xx_can.c ****   else
 763:../Libraries/STM32F4xx_StdPeriph_Driver/src/stm32f4xx_can.c ****   {
 764:../Libraries/STM32F4xx_StdPeriph_Driver/src/stm32f4xx_can.c ****     RxMessage->ExtId = (uint32_t)0x1FFFFFFF & (CANx->sFIFOMailBox[FIFONumber].RIR >> 3);
 25999              		.loc 1 764 0
 26000 08c8 FB7A     		ldrb	r3, [r7, #11]	@ zero_extendqisi2
 26001 08ca FA68     		ldr	r2, [r7, #12]
 26002 08cc 03F11B03 		add	r3, r3, #27
 26003 08d0 4FEA0313 		lsl	r3, r3, #4
 26004 08d4 D318     		adds	r3, r2, r3
 26005 08d6 1B68     		ldr	r3, [r3, #0]
 26006 08d8 4FEAD302 		lsr	r2, r3, #3
 26007 08dc 7B68     		ldr	r3, [r7, #4]
 26008 08de 5A60     		str	r2, [r3, #4]
 26009              	.L84:
 765:../Libraries/STM32F4xx_StdPeriph_Driver/src/stm32f4xx_can.c ****   }
 766:../Libraries/STM32F4xx_StdPeriph_Driver/src/stm32f4xx_can.c ****   
 767:../Libraries/STM32F4xx_StdPeriph_Driver/src/stm32f4xx_can.c ****   RxMessage->RTR = (uint8_t)0x02 & CANx->sFIFOMailBox[FIFONumber].RIR;
 26010              		.loc 1 767 0
 26011 08e0 FB7A     		ldrb	r3, [r7, #11]	@ zero_extendqisi2
 26012 08e2 FA68     		ldr	r2, [r7, #12]
 26013 08e4 03F11B03 		add	r3, r3, #27
 26014 08e8 4FEA0313 		lsl	r3, r3, #4
 26015 08ec D318     		adds	r3, r2, r3
 26016 08ee 1B68     		ldr	r3, [r3, #0]
 26017 08f0 DBB2     		uxtb	r3, r3
 26018 08f2 03F00203 		and	r3, r3, #2
 26019 08f6 DAB2     		uxtb	r2, r3
 26020 08f8 7B68     		ldr	r3, [r7, #4]
 26021 08fa 5A72     		strb	r2, [r3, #9]
 768:../Libraries/STM32F4xx_StdPeriph_Driver/src/stm32f4xx_can.c ****   /* Get the DLC */
 769:../Libraries/STM32F4xx_StdPeriph_Driver/src/stm32f4xx_can.c ****   RxMessage->DLC = (uint8_t)0x0F & CANx->sFIFOMailBox[FIFONumber].RDTR;
 26022              		.loc 1 769 0
 26023 08fc FB7A     		ldrb	r3, [r7, #11]	@ zero_extendqisi2
 26024 08fe FA68     		ldr	r2, [r7, #12]
 26025 0900 03F11B03 		add	r3, r3, #27
 26026 0904 4FEA0313 		lsl	r3, r3, #4
 26027 0908 D318     		adds	r3, r2, r3
 26028 090a 5B68     		ldr	r3, [r3, #4]
 26029 090c DBB2     		uxtb	r3, r3
 26030 090e 03F00F03 		and	r3, r3, #15
 26031 0912 DAB2     		uxtb	r2, r3
 26032 0914 7B68     		ldr	r3, [r7, #4]
 26033 0916 9A72     		strb	r2, [r3, #10]
 770:../Libraries/STM32F4xx_StdPeriph_Driver/src/stm32f4xx_can.c ****   /* Get the FMI */
 771:../Libraries/STM32F4xx_StdPeriph_Driver/src/stm32f4xx_can.c ****   RxMessage->FMI = (uint8_t)0xFF & (CANx->sFIFOMailBox[FIFONumber].RDTR >> 8);
 26034              		.loc 1 771 0
 26035 0918 FB7A     		ldrb	r3, [r7, #11]	@ zero_extendqisi2
 26036 091a FA68     		ldr	r2, [r7, #12]
 26037 091c 03F11B03 		add	r3, r3, #27
 26038 0920 4FEA0313 		lsl	r3, r3, #4
 26039 0924 D318     		adds	r3, r2, r3
 26040 0926 5B68     		ldr	r3, [r3, #4]
 26041 0928 4FEA1323 		lsr	r3, r3, #8
 26042 092c DAB2     		uxtb	r2, r3
 26043 092e 7B68     		ldr	r3, [r7, #4]
 26044 0930 DA74     		strb	r2, [r3, #19]
 772:../Libraries/STM32F4xx_StdPeriph_Driver/src/stm32f4xx_can.c ****   /* Get the data field */
 773:../Libraries/STM32F4xx_StdPeriph_Driver/src/stm32f4xx_can.c ****   RxMessage->Data[0] = (uint8_t)0xFF & CANx->sFIFOMailBox[FIFONumber].RDLR;
 26045              		.loc 1 773 0
 26046 0932 FB7A     		ldrb	r3, [r7, #11]	@ zero_extendqisi2
 26047 0934 FA68     		ldr	r2, [r7, #12]
 26048 0936 4FEA0313 		lsl	r3, r3, #4
 26049 093a D318     		adds	r3, r2, r3
 26050 093c 03F5DC73 		add	r3, r3, #440
 26051 0940 1B68     		ldr	r3, [r3, #0]
 26052 0942 DAB2     		uxtb	r2, r3
 26053 0944 7B68     		ldr	r3, [r7, #4]
 26054 0946 DA72     		strb	r2, [r3, #11]
 774:../Libraries/STM32F4xx_StdPeriph_Driver/src/stm32f4xx_can.c ****   RxMessage->Data[1] = (uint8_t)0xFF & (CANx->sFIFOMailBox[FIFONumber].RDLR >> 8);
 26055              		.loc 1 774 0
 26056 0948 FB7A     		ldrb	r3, [r7, #11]	@ zero_extendqisi2
 26057 094a FA68     		ldr	r2, [r7, #12]
 26058 094c 4FEA0313 		lsl	r3, r3, #4
 26059 0950 D318     		adds	r3, r2, r3
 26060 0952 03F5DC73 		add	r3, r3, #440
 26061 0956 1B68     		ldr	r3, [r3, #0]
 26062 0958 4FEA1323 		lsr	r3, r3, #8
 26063 095c DAB2     		uxtb	r2, r3
 26064 095e 7B68     		ldr	r3, [r7, #4]
 26065 0960 1A73     		strb	r2, [r3, #12]
 775:../Libraries/STM32F4xx_StdPeriph_Driver/src/stm32f4xx_can.c ****   RxMessage->Data[2] = (uint8_t)0xFF & (CANx->sFIFOMailBox[FIFONumber].RDLR >> 16);
 26066              		.loc 1 775 0
 26067 0962 FB7A     		ldrb	r3, [r7, #11]	@ zero_extendqisi2
 26068 0964 FA68     		ldr	r2, [r7, #12]
 26069 0966 4FEA0313 		lsl	r3, r3, #4
 26070 096a D318     		adds	r3, r2, r3
 26071 096c 03F5DC73 		add	r3, r3, #440
 26072 0970 1B68     		ldr	r3, [r3, #0]
 26073 0972 4FEA1343 		lsr	r3, r3, #16
 26074 0976 DAB2     		uxtb	r2, r3
 26075 0978 7B68     		ldr	r3, [r7, #4]
 26076 097a 5A73     		strb	r2, [r3, #13]
 776:../Libraries/STM32F4xx_StdPeriph_Driver/src/stm32f4xx_can.c ****   RxMessage->Data[3] = (uint8_t)0xFF & (CANx->sFIFOMailBox[FIFONumber].RDLR >> 24);
 26077              		.loc 1 776 0
 26078 097c FB7A     		ldrb	r3, [r7, #11]	@ zero_extendqisi2
 26079 097e FA68     		ldr	r2, [r7, #12]
 26080 0980 4FEA0313 		lsl	r3, r3, #4
 26081 0984 D318     		adds	r3, r2, r3
 26082 0986 03F5DC73 		add	r3, r3, #440
 26083 098a 1B68     		ldr	r3, [r3, #0]
 26084 098c 4FEA1363 		lsr	r3, r3, #24
 26085 0990 DAB2     		uxtb	r2, r3
 26086 0992 7B68     		ldr	r3, [r7, #4]
 26087 0994 9A73     		strb	r2, [r3, #14]
 777:../Libraries/STM32F4xx_StdPeriph_Driver/src/stm32f4xx_can.c ****   RxMessage->Data[4] = (uint8_t)0xFF & CANx->sFIFOMailBox[FIFONumber].RDHR;
 26088              		.loc 1 777 0
 26089 0996 FB7A     		ldrb	r3, [r7, #11]	@ zero_extendqisi2
 26090 0998 FA68     		ldr	r2, [r7, #12]
 26091 099a 4FEA0313 		lsl	r3, r3, #4
 26092 099e D318     		adds	r3, r2, r3
 26093 09a0 03F5DC73 		add	r3, r3, #440
 26094 09a4 5B68     		ldr	r3, [r3, #4]
 26095 09a6 DAB2     		uxtb	r2, r3
 26096 09a8 7B68     		ldr	r3, [r7, #4]
 26097 09aa DA73     		strb	r2, [r3, #15]
 778:../Libraries/STM32F4xx_StdPeriph_Driver/src/stm32f4xx_can.c ****   RxMessage->Data[5] = (uint8_t)0xFF & (CANx->sFIFOMailBox[FIFONumber].RDHR >> 8);
 26098              		.loc 1 778 0
 26099 09ac FB7A     		ldrb	r3, [r7, #11]	@ zero_extendqisi2
 26100 09ae FA68     		ldr	r2, [r7, #12]
 26101 09b0 4FEA0313 		lsl	r3, r3, #4
 26102 09b4 D318     		adds	r3, r2, r3
 26103 09b6 03F5DC73 		add	r3, r3, #440
 26104 09ba 5B68     		ldr	r3, [r3, #4]
 26105 09bc 4FEA1323 		lsr	r3, r3, #8
 26106 09c0 DAB2     		uxtb	r2, r3
 26107 09c2 7B68     		ldr	r3, [r7, #4]
 26108 09c4 1A74     		strb	r2, [r3, #16]
 779:../Libraries/STM32F4xx_StdPeriph_Driver/src/stm32f4xx_can.c ****   RxMessage->Data[6] = (uint8_t)0xFF & (CANx->sFIFOMailBox[FIFONumber].RDHR >> 16);
 26109              		.loc 1 779 0
 26110 09c6 FB7A     		ldrb	r3, [r7, #11]	@ zero_extendqisi2
 26111 09c8 FA68     		ldr	r2, [r7, #12]
 26112 09ca 4FEA0313 		lsl	r3, r3, #4
 26113 09ce D318     		adds	r3, r2, r3
 26114 09d0 03F5DC73 		add	r3, r3, #440
 26115 09d4 5B68     		ldr	r3, [r3, #4]
 26116 09d6 4FEA1343 		lsr	r3, r3, #16
 26117 09da DAB2     		uxtb	r2, r3
 26118 09dc 7B68     		ldr	r3, [r7, #4]
 26119 09de 5A74     		strb	r2, [r3, #17]
 780:../Libraries/STM32F4xx_StdPeriph_Driver/src/stm32f4xx_can.c ****   RxMessage->Data[7] = (uint8_t)0xFF & (CANx->sFIFOMailBox[FIFONumber].RDHR >> 24);
 26120              		.loc 1 780 0
 26121 09e0 FB7A     		ldrb	r3, [r7, #11]	@ zero_extendqisi2
 26122 09e2 FA68     		ldr	r2, [r7, #12]
 26123 09e4 4FEA0313 		lsl	r3, r3, #4
 26124 09e8 D318     		adds	r3, r2, r3
 26125 09ea 03F5DC73 		add	r3, r3, #440
 26126 09ee 5B68     		ldr	r3, [r3, #4]
 26127 09f0 4FEA1363 		lsr	r3, r3, #24
 26128 09f4 DAB2     		uxtb	r2, r3
 26129 09f6 7B68     		ldr	r3, [r7, #4]
 26130 09f8 9A74     		strb	r2, [r3, #18]
 781:../Libraries/STM32F4xx_StdPeriph_Driver/src/stm32f4xx_can.c ****   /* Release the FIFO */
 782:../Libraries/STM32F4xx_StdPeriph_Driver/src/stm32f4xx_can.c ****   /* Release FIFO0 */
 783:../Libraries/STM32F4xx_StdPeriph_Driver/src/stm32f4xx_can.c ****   if (FIFONumber == CAN_FIFO0)
 26131              		.loc 1 783 0
 26132 09fa FB7A     		ldrb	r3, [r7, #11]	@ zero_extendqisi2
 26133 09fc 002B     		cmp	r3, #0
 26134 09fe 06D1     		bne	.L85
 784:../Libraries/STM32F4xx_StdPeriph_Driver/src/stm32f4xx_can.c ****   {
 785:../Libraries/STM32F4xx_StdPeriph_Driver/src/stm32f4xx_can.c ****     CANx->RF0R |= CAN_RF0R_RFOM0;
 26135              		.loc 1 785 0
 26136 0a00 FB68     		ldr	r3, [r7, #12]
 26137 0a02 DB68     		ldr	r3, [r3, #12]
 26138 0a04 43F02002 		orr	r2, r3, #32
 26139 0a08 FB68     		ldr	r3, [r7, #12]
 26140 0a0a DA60     		str	r2, [r3, #12]
 26141 0a0c 05E0     		b	.L82
 26142              	.L85:
 786:../Libraries/STM32F4xx_StdPeriph_Driver/src/stm32f4xx_can.c ****   }
 787:../Libraries/STM32F4xx_StdPeriph_Driver/src/stm32f4xx_can.c ****   /* Release FIFO1 */
 788:../Libraries/STM32F4xx_StdPeriph_Driver/src/stm32f4xx_can.c ****   else /* FIFONumber == CAN_FIFO1 */
 789:../Libraries/STM32F4xx_StdPeriph_Driver/src/stm32f4xx_can.c ****   {
 790:../Libraries/STM32F4xx_StdPeriph_Driver/src/stm32f4xx_can.c ****     CANx->RF1R |= CAN_RF1R_RFOM1;
 26143              		.loc 1 790 0
 26144 0a0e FB68     		ldr	r3, [r7, #12]
 26145 0a10 1B69     		ldr	r3, [r3, #16]
 26146 0a12 43F02002 		orr	r2, r3, #32
 26147 0a16 FB68     		ldr	r3, [r7, #12]
 26148 0a18 1A61     		str	r2, [r3, #16]
 26149              	.L82:
 791:../Libraries/STM32F4xx_StdPeriph_Driver/src/stm32f4xx_can.c ****   }
 792:../Libraries/STM32F4xx_StdPeriph_Driver/src/stm32f4xx_can.c **** }
 26150              		.loc 1 792 0
 26151 0a1a 07F11407 		add	r7, r7, #20
 26152 0a1e BD46     		mov	sp, r7
 26153 0a20 80BC     		pop	{r7}
 26154 0a22 7047     		bx	lr
 26155              		.cfi_endproc
 26156              	.LFE120:
 26158              		.align	2
 26159              		.global	CAN_FIFORelease
 26160              		.thumb
 26161              		.thumb_func
 26163              	CAN_FIFORelease:
 26164              	.LFB121:
 793:../Libraries/STM32F4xx_StdPeriph_Driver/src/stm32f4xx_can.c **** 
 794:../Libraries/STM32F4xx_StdPeriph_Driver/src/stm32f4xx_can.c **** /**
 795:../Libraries/STM32F4xx_StdPeriph_Driver/src/stm32f4xx_can.c ****   * @brief  Releases the specified receive FIFO.
 796:../Libraries/STM32F4xx_StdPeriph_Driver/src/stm32f4xx_can.c ****   * @param  CANx: where x can be 1 or 2 to select the CAN peripheral.
 797:../Libraries/STM32F4xx_StdPeriph_Driver/src/stm32f4xx_can.c ****   * @param  FIFONumber: FIFO to release, CAN_FIFO0 or CAN_FIFO1.
 798:../Libraries/STM32F4xx_StdPeriph_Driver/src/stm32f4xx_can.c ****   * @retval None
 799:../Libraries/STM32F4xx_StdPeriph_Driver/src/stm32f4xx_can.c ****   */
 800:../Libraries/STM32F4xx_StdPeriph_Driver/src/stm32f4xx_can.c **** void CAN_FIFORelease(CAN_TypeDef* CANx, uint8_t FIFONumber)
 801:../Libraries/STM32F4xx_StdPeriph_Driver/src/stm32f4xx_can.c **** {
 26165              		.loc 1 801 0
 26166              		.cfi_startproc
 26167              		@ args = 0, pretend = 0, frame = 8
 26168              		@ frame_needed = 1, uses_anonymous_args = 0
 26169              		@ link register save eliminated.
 26170 0a24 80B4     		push	{r7}
 26171              	.LCFI33:
 26172              		.cfi_def_cfa_offset 4
 26173 0a26 83B0     		sub	sp, sp, #12
 26174              	.LCFI34:
 26175              		.cfi_def_cfa_offset 16
 26176 0a28 00AF     		add	r7, sp, #0
 26177              		.cfi_offset 7, -4
 26178              	.LCFI35:
 26179              		.cfi_def_cfa_register 7
 26180 0a2a 7860     		str	r0, [r7, #4]
 26181 0a2c 0B46     		mov	r3, r1
 26182 0a2e FB70     		strb	r3, [r7, #3]
 802:../Libraries/STM32F4xx_StdPeriph_Driver/src/stm32f4xx_can.c ****   /* Check the parameters */
 803:../Libraries/STM32F4xx_StdPeriph_Driver/src/stm32f4xx_can.c ****   assert_param(IS_CAN_ALL_PERIPH(CANx));
 804:../Libraries/STM32F4xx_StdPeriph_Driver/src/stm32f4xx_can.c ****   assert_param(IS_CAN_FIFO(FIFONumber));
 805:../Libraries/STM32F4xx_StdPeriph_Driver/src/stm32f4xx_can.c ****   /* Release FIFO0 */
 806:../Libraries/STM32F4xx_StdPeriph_Driver/src/stm32f4xx_can.c ****   if (FIFONumber == CAN_FIFO0)
 26183              		.loc 1 806 0
 26184 0a30 FB78     		ldrb	r3, [r7, #3]	@ zero_extendqisi2
 26185 0a32 002B     		cmp	r3, #0
 26186 0a34 06D1     		bne	.L88
 807:../Libraries/STM32F4xx_StdPeriph_Driver/src/stm32f4xx_can.c ****   {
 808:../Libraries/STM32F4xx_StdPeriph_Driver/src/stm32f4xx_can.c ****     CANx->RF0R |= CAN_RF0R_RFOM0;
 26187              		.loc 1 808 0
 26188 0a36 7B68     		ldr	r3, [r7, #4]
 26189 0a38 DB68     		ldr	r3, [r3, #12]
 26190 0a3a 43F02002 		orr	r2, r3, #32
 26191 0a3e 7B68     		ldr	r3, [r7, #4]
 26192 0a40 DA60     		str	r2, [r3, #12]
 26193 0a42 05E0     		b	.L87
 26194              	.L88:
 809:../Libraries/STM32F4xx_StdPeriph_Driver/src/stm32f4xx_can.c ****   }
 810:../Libraries/STM32F4xx_StdPeriph_Driver/src/stm32f4xx_can.c ****   /* Release FIFO1 */
 811:../Libraries/STM32F4xx_StdPeriph_Driver/src/stm32f4xx_can.c ****   else /* FIFONumber == CAN_FIFO1 */
 812:../Libraries/STM32F4xx_StdPeriph_Driver/src/stm32f4xx_can.c ****   {
 813:../Libraries/STM32F4xx_StdPeriph_Driver/src/stm32f4xx_can.c ****     CANx->RF1R |= CAN_RF1R_RFOM1;
 26195              		.loc 1 813 0
 26196 0a44 7B68     		ldr	r3, [r7, #4]
 26197 0a46 1B69     		ldr	r3, [r3, #16]
 26198 0a48 43F02002 		orr	r2, r3, #32
 26199 0a4c 7B68     		ldr	r3, [r7, #4]
 26200 0a4e 1A61     		str	r2, [r3, #16]
 26201              	.L87:
 814:../Libraries/STM32F4xx_StdPeriph_Driver/src/stm32f4xx_can.c ****   }
 815:../Libraries/STM32F4xx_StdPeriph_Driver/src/stm32f4xx_can.c **** }
 26202              		.loc 1 815 0
 26203 0a50 07F10C07 		add	r7, r7, #12
 26204 0a54 BD46     		mov	sp, r7
 26205 0a56 80BC     		pop	{r7}
 26206 0a58 7047     		bx	lr
 26207              		.cfi_endproc
 26208              	.LFE121:
 26210 0a5a 00BF     		.align	2
 26211              		.global	CAN_MessagePending
 26212              		.thumb
 26213              		.thumb_func
 26215              	CAN_MessagePending:
 26216              	.LFB122:
 816:../Libraries/STM32F4xx_StdPeriph_Driver/src/stm32f4xx_can.c **** 
 817:../Libraries/STM32F4xx_StdPeriph_Driver/src/stm32f4xx_can.c **** /**
 818:../Libraries/STM32F4xx_StdPeriph_Driver/src/stm32f4xx_can.c ****   * @brief  Returns the number of pending received messages.
 819:../Libraries/STM32F4xx_StdPeriph_Driver/src/stm32f4xx_can.c ****   * @param  CANx: where x can be 1 or 2 to select the CAN peripheral.
 820:../Libraries/STM32F4xx_StdPeriph_Driver/src/stm32f4xx_can.c ****   * @param  FIFONumber: Receive FIFO number, CAN_FIFO0 or CAN_FIFO1.
 821:../Libraries/STM32F4xx_StdPeriph_Driver/src/stm32f4xx_can.c ****   * @retval NbMessage : which is the number of pending message.
 822:../Libraries/STM32F4xx_StdPeriph_Driver/src/stm32f4xx_can.c ****   */
 823:../Libraries/STM32F4xx_StdPeriph_Driver/src/stm32f4xx_can.c **** uint8_t CAN_MessagePending(CAN_TypeDef* CANx, uint8_t FIFONumber)
 824:../Libraries/STM32F4xx_StdPeriph_Driver/src/stm32f4xx_can.c **** {
 26217              		.loc 1 824 0
 26218              		.cfi_startproc
 26219              		@ args = 0, pretend = 0, frame = 16
 26220              		@ frame_needed = 1, uses_anonymous_args = 0
 26221              		@ link register save eliminated.
 26222 0a5c 80B4     		push	{r7}
 26223              	.LCFI36:
 26224              		.cfi_def_cfa_offset 4
 26225 0a5e 85B0     		sub	sp, sp, #20
 26226              	.LCFI37:
 26227              		.cfi_def_cfa_offset 24
 26228 0a60 00AF     		add	r7, sp, #0
 26229              		.cfi_offset 7, -4
 26230              	.LCFI38:
 26231              		.cfi_def_cfa_register 7
 26232 0a62 7860     		str	r0, [r7, #4]
 26233 0a64 0B46     		mov	r3, r1
 26234 0a66 FB70     		strb	r3, [r7, #3]
 825:../Libraries/STM32F4xx_StdPeriph_Driver/src/stm32f4xx_can.c ****   uint8_t message_pending=0;
 26235              		.loc 1 825 0
 26236 0a68 4FF00003 		mov	r3, #0
 26237 0a6c FB73     		strb	r3, [r7, #15]
 826:../Libraries/STM32F4xx_StdPeriph_Driver/src/stm32f4xx_can.c ****   /* Check the parameters */
 827:../Libraries/STM32F4xx_StdPeriph_Driver/src/stm32f4xx_can.c ****   assert_param(IS_CAN_ALL_PERIPH(CANx));
 828:../Libraries/STM32F4xx_StdPeriph_Driver/src/stm32f4xx_can.c ****   assert_param(IS_CAN_FIFO(FIFONumber));
 829:../Libraries/STM32F4xx_StdPeriph_Driver/src/stm32f4xx_can.c ****   if (FIFONumber == CAN_FIFO0)
 26238              		.loc 1 829 0
 26239 0a6e FB78     		ldrb	r3, [r7, #3]	@ zero_extendqisi2
 26240 0a70 002B     		cmp	r3, #0
 26241 0a72 06D1     		bne	.L91
 830:../Libraries/STM32F4xx_StdPeriph_Driver/src/stm32f4xx_can.c ****   {
 831:../Libraries/STM32F4xx_StdPeriph_Driver/src/stm32f4xx_can.c ****     message_pending = (uint8_t)(CANx->RF0R&(uint32_t)0x03);
 26242              		.loc 1 831 0
 26243 0a74 7B68     		ldr	r3, [r7, #4]
 26244 0a76 DB68     		ldr	r3, [r3, #12]
 26245 0a78 DBB2     		uxtb	r3, r3
 26246 0a7a 03F00303 		and	r3, r3, #3
 26247 0a7e FB73     		strb	r3, [r7, #15]
 26248 0a80 0CE0     		b	.L92
 26249              	.L91:
 832:../Libraries/STM32F4xx_StdPeriph_Driver/src/stm32f4xx_can.c ****   }
 833:../Libraries/STM32F4xx_StdPeriph_Driver/src/stm32f4xx_can.c ****   else if (FIFONumber == CAN_FIFO1)
 26250              		.loc 1 833 0
 26251 0a82 FB78     		ldrb	r3, [r7, #3]	@ zero_extendqisi2
 26252 0a84 012B     		cmp	r3, #1
 26253 0a86 06D1     		bne	.L93
 834:../Libraries/STM32F4xx_StdPeriph_Driver/src/stm32f4xx_can.c ****   {
 835:../Libraries/STM32F4xx_StdPeriph_Driver/src/stm32f4xx_can.c ****     message_pending = (uint8_t)(CANx->RF1R&(uint32_t)0x03);
 26254              		.loc 1 835 0
 26255 0a88 7B68     		ldr	r3, [r7, #4]
 26256 0a8a 1B69     		ldr	r3, [r3, #16]
 26257 0a8c DBB2     		uxtb	r3, r3
 26258 0a8e 03F00303 		and	r3, r3, #3
 26259 0a92 FB73     		strb	r3, [r7, #15]
 26260 0a94 02E0     		b	.L92
 26261              	.L93:
 836:../Libraries/STM32F4xx_StdPeriph_Driver/src/stm32f4xx_can.c ****   }
 837:../Libraries/STM32F4xx_StdPeriph_Driver/src/stm32f4xx_can.c ****   else
 838:../Libraries/STM32F4xx_StdPeriph_Driver/src/stm32f4xx_can.c ****   {
 839:../Libraries/STM32F4xx_StdPeriph_Driver/src/stm32f4xx_can.c ****     message_pending = 0;
 26262              		.loc 1 839 0
 26263 0a96 4FF00003 		mov	r3, #0
 26264 0a9a FB73     		strb	r3, [r7, #15]
 26265              	.L92:
 840:../Libraries/STM32F4xx_StdPeriph_Driver/src/stm32f4xx_can.c ****   }
 841:../Libraries/STM32F4xx_StdPeriph_Driver/src/stm32f4xx_can.c ****   return message_pending;
 26266              		.loc 1 841 0
 26267 0a9c FB7B     		ldrb	r3, [r7, #15]	@ zero_extendqisi2
 842:../Libraries/STM32F4xx_StdPeriph_Driver/src/stm32f4xx_can.c **** }
 26268              		.loc 1 842 0
 26269 0a9e 1846     		mov	r0, r3
 26270 0aa0 07F11407 		add	r7, r7, #20
 26271 0aa4 BD46     		mov	sp, r7
 26272 0aa6 80BC     		pop	{r7}
 26273 0aa8 7047     		bx	lr
 26274              		.cfi_endproc
 26275              	.LFE122:
 26277 0aaa 00BF     		.align	2
 26278              		.global	CAN_OperatingModeRequest
 26279              		.thumb
 26280              		.thumb_func
 26282              	CAN_OperatingModeRequest:
 26283              	.LFB123:
 843:../Libraries/STM32F4xx_StdPeriph_Driver/src/stm32f4xx_can.c **** /**
 844:../Libraries/STM32F4xx_StdPeriph_Driver/src/stm32f4xx_can.c ****   * @}
 845:../Libraries/STM32F4xx_StdPeriph_Driver/src/stm32f4xx_can.c ****   */
 846:../Libraries/STM32F4xx_StdPeriph_Driver/src/stm32f4xx_can.c **** 
 847:../Libraries/STM32F4xx_StdPeriph_Driver/src/stm32f4xx_can.c **** 
 848:../Libraries/STM32F4xx_StdPeriph_Driver/src/stm32f4xx_can.c **** /** @defgroup CAN_Group4 CAN Operation modes functions
 849:../Libraries/STM32F4xx_StdPeriph_Driver/src/stm32f4xx_can.c ****  *  @brief    CAN Operation modes functions 
 850:../Libraries/STM32F4xx_StdPeriph_Driver/src/stm32f4xx_can.c ****  *
 851:../Libraries/STM32F4xx_StdPeriph_Driver/src/stm32f4xx_can.c **** @verbatim    
 852:../Libraries/STM32F4xx_StdPeriph_Driver/src/stm32f4xx_can.c ****  ===============================================================================
 853:../Libraries/STM32F4xx_StdPeriph_Driver/src/stm32f4xx_can.c ****                       CAN Operation modes functions
 854:../Libraries/STM32F4xx_StdPeriph_Driver/src/stm32f4xx_can.c ****  ===============================================================================  
 855:../Libraries/STM32F4xx_StdPeriph_Driver/src/stm32f4xx_can.c ****   This section provides functions allowing to select the CAN Operation modes
 856:../Libraries/STM32F4xx_StdPeriph_Driver/src/stm32f4xx_can.c ****   - sleep mode
 857:../Libraries/STM32F4xx_StdPeriph_Driver/src/stm32f4xx_can.c ****   - normal mode 
 858:../Libraries/STM32F4xx_StdPeriph_Driver/src/stm32f4xx_can.c ****   - initialization mode
 859:../Libraries/STM32F4xx_StdPeriph_Driver/src/stm32f4xx_can.c ****    
 860:../Libraries/STM32F4xx_StdPeriph_Driver/src/stm32f4xx_can.c **** @endverbatim
 861:../Libraries/STM32F4xx_StdPeriph_Driver/src/stm32f4xx_can.c ****   * @{
 862:../Libraries/STM32F4xx_StdPeriph_Driver/src/stm32f4xx_can.c ****   */
 863:../Libraries/STM32F4xx_StdPeriph_Driver/src/stm32f4xx_can.c ****   
 864:../Libraries/STM32F4xx_StdPeriph_Driver/src/stm32f4xx_can.c ****   
 865:../Libraries/STM32F4xx_StdPeriph_Driver/src/stm32f4xx_can.c **** /**
 866:../Libraries/STM32F4xx_StdPeriph_Driver/src/stm32f4xx_can.c ****   * @brief  Selects the CAN Operation mode.
 867:../Libraries/STM32F4xx_StdPeriph_Driver/src/stm32f4xx_can.c ****   * @param  CAN_OperatingMode: CAN Operating Mode.
 868:../Libraries/STM32F4xx_StdPeriph_Driver/src/stm32f4xx_can.c ****   *         This parameter can be one of @ref CAN_OperatingMode_TypeDef enumeration.
 869:../Libraries/STM32F4xx_StdPeriph_Driver/src/stm32f4xx_can.c ****   * @retval status of the requested mode which can be 
 870:../Libraries/STM32F4xx_StdPeriph_Driver/src/stm32f4xx_can.c ****   *         - CAN_ModeStatus_Failed:  CAN failed entering the specific mode 
 871:../Libraries/STM32F4xx_StdPeriph_Driver/src/stm32f4xx_can.c ****   *         - CAN_ModeStatus_Success: CAN Succeed entering the specific mode 
 872:../Libraries/STM32F4xx_StdPeriph_Driver/src/stm32f4xx_can.c ****   */
 873:../Libraries/STM32F4xx_StdPeriph_Driver/src/stm32f4xx_can.c **** uint8_t CAN_OperatingModeRequest(CAN_TypeDef* CANx, uint8_t CAN_OperatingMode)
 874:../Libraries/STM32F4xx_StdPeriph_Driver/src/stm32f4xx_can.c **** {
 26284              		.loc 1 874 0
 26285              		.cfi_startproc
 26286              		@ args = 0, pretend = 0, frame = 16
 26287              		@ frame_needed = 1, uses_anonymous_args = 0
 26288              		@ link register save eliminated.
 26289 0aac 80B4     		push	{r7}
 26290              	.LCFI39:
 26291              		.cfi_def_cfa_offset 4
 26292 0aae 85B0     		sub	sp, sp, #20
 26293              	.LCFI40:
 26294              		.cfi_def_cfa_offset 24
 26295 0ab0 00AF     		add	r7, sp, #0
 26296              		.cfi_offset 7, -4
 26297              	.LCFI41:
 26298              		.cfi_def_cfa_register 7
 26299 0ab2 7860     		str	r0, [r7, #4]
 26300 0ab4 0B46     		mov	r3, r1
 26301 0ab6 FB70     		strb	r3, [r7, #3]
 875:../Libraries/STM32F4xx_StdPeriph_Driver/src/stm32f4xx_can.c ****   uint8_t status = CAN_ModeStatus_Failed;
 26302              		.loc 1 875 0
 26303 0ab8 4FF00003 		mov	r3, #0
 26304 0abc FB73     		strb	r3, [r7, #15]
 876:../Libraries/STM32F4xx_StdPeriph_Driver/src/stm32f4xx_can.c ****   
 877:../Libraries/STM32F4xx_StdPeriph_Driver/src/stm32f4xx_can.c ****   /* Timeout for INAK or also for SLAK bits*/
 878:../Libraries/STM32F4xx_StdPeriph_Driver/src/stm32f4xx_can.c ****   uint32_t timeout = INAK_TIMEOUT; 
 26305              		.loc 1 878 0
 26306 0abe 4FF6FF73 		movw	r3, #65535
 26307 0ac2 BB60     		str	r3, [r7, #8]
 879:../Libraries/STM32F4xx_StdPeriph_Driver/src/stm32f4xx_can.c **** 
 880:../Libraries/STM32F4xx_StdPeriph_Driver/src/stm32f4xx_can.c ****   /* Check the parameters */
 881:../Libraries/STM32F4xx_StdPeriph_Driver/src/stm32f4xx_can.c ****   assert_param(IS_CAN_ALL_PERIPH(CANx));
 882:../Libraries/STM32F4xx_StdPeriph_Driver/src/stm32f4xx_can.c ****   assert_param(IS_CAN_OPERATING_MODE(CAN_OperatingMode));
 883:../Libraries/STM32F4xx_StdPeriph_Driver/src/stm32f4xx_can.c **** 
 884:../Libraries/STM32F4xx_StdPeriph_Driver/src/stm32f4xx_can.c ****   if (CAN_OperatingMode == CAN_OperatingMode_Initialization)
 26308              		.loc 1 884 0
 26309 0ac4 FB78     		ldrb	r3, [r7, #3]	@ zero_extendqisi2
 26310 0ac6 002B     		cmp	r3, #0
 26311 0ac8 23D1     		bne	.L95
 885:../Libraries/STM32F4xx_StdPeriph_Driver/src/stm32f4xx_can.c ****   {
 886:../Libraries/STM32F4xx_StdPeriph_Driver/src/stm32f4xx_can.c ****     /* Request initialisation */
 887:../Libraries/STM32F4xx_StdPeriph_Driver/src/stm32f4xx_can.c ****     CANx->MCR = (uint32_t)((CANx->MCR & (uint32_t)(~(uint32_t)CAN_MCR_SLEEP)) | CAN_MCR_INRQ);
 26312              		.loc 1 887 0
 26313 0aca 7B68     		ldr	r3, [r7, #4]
 26314 0acc 1B68     		ldr	r3, [r3, #0]
 26315 0ace 23F00303 		bic	r3, r3, #3
 26316 0ad2 43F00102 		orr	r2, r3, #1
 26317 0ad6 7B68     		ldr	r3, [r7, #4]
 26318 0ad8 1A60     		str	r2, [r3, #0]
 888:../Libraries/STM32F4xx_StdPeriph_Driver/src/stm32f4xx_can.c **** 
 889:../Libraries/STM32F4xx_StdPeriph_Driver/src/stm32f4xx_can.c ****     /* Wait the acknowledge */
 890:../Libraries/STM32F4xx_StdPeriph_Driver/src/stm32f4xx_can.c ****     while (((CANx->MSR & CAN_MODE_MASK) != CAN_MSR_INAK) && (timeout != 0))
 26319              		.loc 1 890 0
 26320 0ada 03E0     		b	.L96
 26321              	.L98:
 891:../Libraries/STM32F4xx_StdPeriph_Driver/src/stm32f4xx_can.c ****     {
 892:../Libraries/STM32F4xx_StdPeriph_Driver/src/stm32f4xx_can.c ****       timeout--;
 26322              		.loc 1 892 0
 26323 0adc BB68     		ldr	r3, [r7, #8]
 26324 0ade 03F1FF33 		add	r3, r3, #-1
 26325 0ae2 BB60     		str	r3, [r7, #8]
 26326              	.L96:
 890:../Libraries/STM32F4xx_StdPeriph_Driver/src/stm32f4xx_can.c ****     while (((CANx->MSR & CAN_MODE_MASK) != CAN_MSR_INAK) && (timeout != 0))
 26327              		.loc 1 890 0 discriminator 1
 26328 0ae4 7B68     		ldr	r3, [r7, #4]
 26329 0ae6 5B68     		ldr	r3, [r3, #4]
 26330 0ae8 03F00303 		and	r3, r3, #3
 26331 0aec 012B     		cmp	r3, #1
 26332 0aee 02D0     		beq	.L97
 890:../Libraries/STM32F4xx_StdPeriph_Driver/src/stm32f4xx_can.c ****     while (((CANx->MSR & CAN_MODE_MASK) != CAN_MSR_INAK) && (timeout != 0))
 26333              		.loc 1 890 0 is_stmt 0 discriminator 2
 26334 0af0 BB68     		ldr	r3, [r7, #8]
 26335 0af2 002B     		cmp	r3, #0
 26336 0af4 F2D1     		bne	.L98
 26337              	.L97:
 893:../Libraries/STM32F4xx_StdPeriph_Driver/src/stm32f4xx_can.c ****     }
 894:../Libraries/STM32F4xx_StdPeriph_Driver/src/stm32f4xx_can.c ****     if ((CANx->MSR & CAN_MODE_MASK) != CAN_MSR_INAK)
 26338              		.loc 1 894 0 is_stmt 1
 26339 0af6 7B68     		ldr	r3, [r7, #4]
 26340 0af8 5B68     		ldr	r3, [r3, #4]
 26341 0afa 03F00303 		and	r3, r3, #3
 26342 0afe 012B     		cmp	r3, #1
 26343 0b00 03D0     		beq	.L99
 895:../Libraries/STM32F4xx_StdPeriph_Driver/src/stm32f4xx_can.c ****     {
 896:../Libraries/STM32F4xx_StdPeriph_Driver/src/stm32f4xx_can.c ****       status = CAN_ModeStatus_Failed;
 26344              		.loc 1 896 0
 26345 0b02 4FF00003 		mov	r3, #0
 26346 0b06 FB73     		strb	r3, [r7, #15]
 26347 0b08 52E0     		b	.L100
 26348              	.L99:
 897:../Libraries/STM32F4xx_StdPeriph_Driver/src/stm32f4xx_can.c ****     }
 898:../Libraries/STM32F4xx_StdPeriph_Driver/src/stm32f4xx_can.c ****     else
 899:../Libraries/STM32F4xx_StdPeriph_Driver/src/stm32f4xx_can.c ****     {
 900:../Libraries/STM32F4xx_StdPeriph_Driver/src/stm32f4xx_can.c ****       status = CAN_ModeStatus_Success;
 26349              		.loc 1 900 0
 26350 0b0a 4FF00103 		mov	r3, #1
 26351 0b0e FB73     		strb	r3, [r7, #15]
 26352 0b10 4EE0     		b	.L100
 26353              	.L95:
 901:../Libraries/STM32F4xx_StdPeriph_Driver/src/stm32f4xx_can.c ****     }
 902:../Libraries/STM32F4xx_StdPeriph_Driver/src/stm32f4xx_can.c ****   }
 903:../Libraries/STM32F4xx_StdPeriph_Driver/src/stm32f4xx_can.c ****   else  if (CAN_OperatingMode == CAN_OperatingMode_Normal)
 26354              		.loc 1 903 0
 26355 0b12 FB78     		ldrb	r3, [r7, #3]	@ zero_extendqisi2
 26356 0b14 012B     		cmp	r3, #1
 26357 0b16 21D1     		bne	.L101
 904:../Libraries/STM32F4xx_StdPeriph_Driver/src/stm32f4xx_can.c ****   {
 905:../Libraries/STM32F4xx_StdPeriph_Driver/src/stm32f4xx_can.c ****     /* Request leave initialisation and sleep mode  and enter Normal mode */
 906:../Libraries/STM32F4xx_StdPeriph_Driver/src/stm32f4xx_can.c ****     CANx->MCR &= (uint32_t)(~(CAN_MCR_SLEEP|CAN_MCR_INRQ));
 26358              		.loc 1 906 0
 26359 0b18 7B68     		ldr	r3, [r7, #4]
 26360 0b1a 1B68     		ldr	r3, [r3, #0]
 26361 0b1c 23F00302 		bic	r2, r3, #3
 26362 0b20 7B68     		ldr	r3, [r7, #4]
 26363 0b22 1A60     		str	r2, [r3, #0]
 907:../Libraries/STM32F4xx_StdPeriph_Driver/src/stm32f4xx_can.c **** 
 908:../Libraries/STM32F4xx_StdPeriph_Driver/src/stm32f4xx_can.c ****     /* Wait the acknowledge */
 909:../Libraries/STM32F4xx_StdPeriph_Driver/src/stm32f4xx_can.c ****     while (((CANx->MSR & CAN_MODE_MASK) != 0) && (timeout!=0))
 26364              		.loc 1 909 0
 26365 0b24 03E0     		b	.L102
 26366              	.L104:
 910:../Libraries/STM32F4xx_StdPeriph_Driver/src/stm32f4xx_can.c ****     {
 911:../Libraries/STM32F4xx_StdPeriph_Driver/src/stm32f4xx_can.c ****       timeout--;
 26367              		.loc 1 911 0
 26368 0b26 BB68     		ldr	r3, [r7, #8]
 26369 0b28 03F1FF33 		add	r3, r3, #-1
 26370 0b2c BB60     		str	r3, [r7, #8]
 26371              	.L102:
 909:../Libraries/STM32F4xx_StdPeriph_Driver/src/stm32f4xx_can.c ****     while (((CANx->MSR & CAN_MODE_MASK) != 0) && (timeout!=0))
 26372              		.loc 1 909 0 discriminator 1
 26373 0b2e 7B68     		ldr	r3, [r7, #4]
 26374 0b30 5B68     		ldr	r3, [r3, #4]
 26375 0b32 03F00303 		and	r3, r3, #3
 26376 0b36 002B     		cmp	r3, #0
 26377 0b38 02D0     		beq	.L103
 909:../Libraries/STM32F4xx_StdPeriph_Driver/src/stm32f4xx_can.c ****     while (((CANx->MSR & CAN_MODE_MASK) != 0) && (timeout!=0))
 26378              		.loc 1 909 0 is_stmt 0 discriminator 2
 26379 0b3a BB68     		ldr	r3, [r7, #8]
 26380 0b3c 002B     		cmp	r3, #0
 26381 0b3e F2D1     		bne	.L104
 26382              	.L103:
 912:../Libraries/STM32F4xx_StdPeriph_Driver/src/stm32f4xx_can.c ****     }
 913:../Libraries/STM32F4xx_StdPeriph_Driver/src/stm32f4xx_can.c ****     if ((CANx->MSR & CAN_MODE_MASK) != 0)
 26383              		.loc 1 913 0 is_stmt 1
 26384 0b40 7B68     		ldr	r3, [r7, #4]
 26385 0b42 5B68     		ldr	r3, [r3, #4]
 26386 0b44 03F00303 		and	r3, r3, #3
 26387 0b48 002B     		cmp	r3, #0
 26388 0b4a 03D0     		beq	.L105
 914:../Libraries/STM32F4xx_StdPeriph_Driver/src/stm32f4xx_can.c ****     {
 915:../Libraries/STM32F4xx_StdPeriph_Driver/src/stm32f4xx_can.c ****       status = CAN_ModeStatus_Failed;
 26389              		.loc 1 915 0
 26390 0b4c 4FF00003 		mov	r3, #0
 26391 0b50 FB73     		strb	r3, [r7, #15]
 26392 0b52 2DE0     		b	.L100
 26393              	.L105:
 916:../Libraries/STM32F4xx_StdPeriph_Driver/src/stm32f4xx_can.c ****     }
 917:../Libraries/STM32F4xx_StdPeriph_Driver/src/stm32f4xx_can.c ****     else
 918:../Libraries/STM32F4xx_StdPeriph_Driver/src/stm32f4xx_can.c ****     {
 919:../Libraries/STM32F4xx_StdPeriph_Driver/src/stm32f4xx_can.c ****       status = CAN_ModeStatus_Success;
 26394              		.loc 1 919 0
 26395 0b54 4FF00103 		mov	r3, #1
 26396 0b58 FB73     		strb	r3, [r7, #15]
 26397 0b5a 29E0     		b	.L100
 26398              	.L101:
 920:../Libraries/STM32F4xx_StdPeriph_Driver/src/stm32f4xx_can.c ****     }
 921:../Libraries/STM32F4xx_StdPeriph_Driver/src/stm32f4xx_can.c ****   }
 922:../Libraries/STM32F4xx_StdPeriph_Driver/src/stm32f4xx_can.c ****   else  if (CAN_OperatingMode == CAN_OperatingMode_Sleep)
 26399              		.loc 1 922 0
 26400 0b5c FB78     		ldrb	r3, [r7, #3]	@ zero_extendqisi2
 26401 0b5e 022B     		cmp	r3, #2
 26402 0b60 23D1     		bne	.L106
 923:../Libraries/STM32F4xx_StdPeriph_Driver/src/stm32f4xx_can.c ****   {
 924:../Libraries/STM32F4xx_StdPeriph_Driver/src/stm32f4xx_can.c ****     /* Request Sleep mode */
 925:../Libraries/STM32F4xx_StdPeriph_Driver/src/stm32f4xx_can.c ****     CANx->MCR = (uint32_t)((CANx->MCR & (uint32_t)(~(uint32_t)CAN_MCR_INRQ)) | CAN_MCR_SLEEP);
 26403              		.loc 1 925 0
 26404 0b62 7B68     		ldr	r3, [r7, #4]
 26405 0b64 1B68     		ldr	r3, [r3, #0]
 26406 0b66 23F00303 		bic	r3, r3, #3
 26407 0b6a 43F00202 		orr	r2, r3, #2
 26408 0b6e 7B68     		ldr	r3, [r7, #4]
 26409 0b70 1A60     		str	r2, [r3, #0]
 926:../Libraries/STM32F4xx_StdPeriph_Driver/src/stm32f4xx_can.c **** 
 927:../Libraries/STM32F4xx_StdPeriph_Driver/src/stm32f4xx_can.c ****     /* Wait the acknowledge */
 928:../Libraries/STM32F4xx_StdPeriph_Driver/src/stm32f4xx_can.c ****     while (((CANx->MSR & CAN_MODE_MASK) != CAN_MSR_SLAK) && (timeout!=0))
 26410              		.loc 1 928 0
 26411 0b72 03E0     		b	.L107
 26412              	.L109:
 929:../Libraries/STM32F4xx_StdPeriph_Driver/src/stm32f4xx_can.c ****     {
 930:../Libraries/STM32F4xx_StdPeriph_Driver/src/stm32f4xx_can.c ****       timeout--;
 26413              		.loc 1 930 0
 26414 0b74 BB68     		ldr	r3, [r7, #8]
 26415 0b76 03F1FF33 		add	r3, r3, #-1
 26416 0b7a BB60     		str	r3, [r7, #8]
 26417              	.L107:
 928:../Libraries/STM32F4xx_StdPeriph_Driver/src/stm32f4xx_can.c ****     while (((CANx->MSR & CAN_MODE_MASK) != CAN_MSR_SLAK) && (timeout!=0))
 26418              		.loc 1 928 0 discriminator 1
 26419 0b7c 7B68     		ldr	r3, [r7, #4]
 26420 0b7e 5B68     		ldr	r3, [r3, #4]
 26421 0b80 03F00303 		and	r3, r3, #3
 26422 0b84 022B     		cmp	r3, #2
 26423 0b86 02D0     		beq	.L108
 928:../Libraries/STM32F4xx_StdPeriph_Driver/src/stm32f4xx_can.c ****     while (((CANx->MSR & CAN_MODE_MASK) != CAN_MSR_SLAK) && (timeout!=0))
 26424              		.loc 1 928 0 is_stmt 0 discriminator 2
 26425 0b88 BB68     		ldr	r3, [r7, #8]
 26426 0b8a 002B     		cmp	r3, #0
 26427 0b8c F2D1     		bne	.L109
 26428              	.L108:
 931:../Libraries/STM32F4xx_StdPeriph_Driver/src/stm32f4xx_can.c ****     }
 932:../Libraries/STM32F4xx_StdPeriph_Driver/src/stm32f4xx_can.c ****     if ((CANx->MSR & CAN_MODE_MASK) != CAN_MSR_SLAK)
 26429              		.loc 1 932 0 is_stmt 1
 26430 0b8e 7B68     		ldr	r3, [r7, #4]
 26431 0b90 5B68     		ldr	r3, [r3, #4]
 26432 0b92 03F00303 		and	r3, r3, #3
 26433 0b96 022B     		cmp	r3, #2
 26434 0b98 03D0     		beq	.L110
 933:../Libraries/STM32F4xx_StdPeriph_Driver/src/stm32f4xx_can.c ****     {
 934:../Libraries/STM32F4xx_StdPeriph_Driver/src/stm32f4xx_can.c ****       status = CAN_ModeStatus_Failed;
 26435              		.loc 1 934 0
 26436 0b9a 4FF00003 		mov	r3, #0
 26437 0b9e FB73     		strb	r3, [r7, #15]
 26438 0ba0 06E0     		b	.L100
 26439              	.L110:
 935:../Libraries/STM32F4xx_StdPeriph_Driver/src/stm32f4xx_can.c ****     }
 936:../Libraries/STM32F4xx_StdPeriph_Driver/src/stm32f4xx_can.c ****     else
 937:../Libraries/STM32F4xx_StdPeriph_Driver/src/stm32f4xx_can.c ****     {
 938:../Libraries/STM32F4xx_StdPeriph_Driver/src/stm32f4xx_can.c ****       status = CAN_ModeStatus_Success;
 26440              		.loc 1 938 0
 26441 0ba2 4FF00103 		mov	r3, #1
 26442 0ba6 FB73     		strb	r3, [r7, #15]
 26443 0ba8 02E0     		b	.L100
 26444              	.L106:
 939:../Libraries/STM32F4xx_StdPeriph_Driver/src/stm32f4xx_can.c ****     }
 940:../Libraries/STM32F4xx_StdPeriph_Driver/src/stm32f4xx_can.c ****   }
 941:../Libraries/STM32F4xx_StdPeriph_Driver/src/stm32f4xx_can.c ****   else
 942:../Libraries/STM32F4xx_StdPeriph_Driver/src/stm32f4xx_can.c ****   {
 943:../Libraries/STM32F4xx_StdPeriph_Driver/src/stm32f4xx_can.c ****     status = CAN_ModeStatus_Failed;
 26445              		.loc 1 943 0
 26446 0baa 4FF00003 		mov	r3, #0
 26447 0bae FB73     		strb	r3, [r7, #15]
 26448              	.L100:
 944:../Libraries/STM32F4xx_StdPeriph_Driver/src/stm32f4xx_can.c ****   }
 945:../Libraries/STM32F4xx_StdPeriph_Driver/src/stm32f4xx_can.c **** 
 946:../Libraries/STM32F4xx_StdPeriph_Driver/src/stm32f4xx_can.c ****   return  (uint8_t) status;
 26449              		.loc 1 946 0
 26450 0bb0 FB7B     		ldrb	r3, [r7, #15]	@ zero_extendqisi2
 947:../Libraries/STM32F4xx_StdPeriph_Driver/src/stm32f4xx_can.c **** }
 26451              		.loc 1 947 0
 26452 0bb2 1846     		mov	r0, r3
 26453 0bb4 07F11407 		add	r7, r7, #20
 26454 0bb8 BD46     		mov	sp, r7
 26455 0bba 80BC     		pop	{r7}
 26456 0bbc 7047     		bx	lr
 26457              		.cfi_endproc
 26458              	.LFE123:
 26460 0bbe 00BF     		.align	2
 26461              		.global	CAN_Sleep
 26462              		.thumb
 26463              		.thumb_func
 26465              	CAN_Sleep:
 26466              	.LFB124:
 948:../Libraries/STM32F4xx_StdPeriph_Driver/src/stm32f4xx_can.c **** 
 949:../Libraries/STM32F4xx_StdPeriph_Driver/src/stm32f4xx_can.c **** /**
 950:../Libraries/STM32F4xx_StdPeriph_Driver/src/stm32f4xx_can.c ****   * @brief  Enters the Sleep (low power) mode.
 951:../Libraries/STM32F4xx_StdPeriph_Driver/src/stm32f4xx_can.c ****   * @param  CANx: where x can be 1 or 2 to select the CAN peripheral.
 952:../Libraries/STM32F4xx_StdPeriph_Driver/src/stm32f4xx_can.c ****   * @retval CAN_Sleep_Ok if sleep entered, CAN_Sleep_Failed otherwise.
 953:../Libraries/STM32F4xx_StdPeriph_Driver/src/stm32f4xx_can.c ****   */
 954:../Libraries/STM32F4xx_StdPeriph_Driver/src/stm32f4xx_can.c **** uint8_t CAN_Sleep(CAN_TypeDef* CANx)
 955:../Libraries/STM32F4xx_StdPeriph_Driver/src/stm32f4xx_can.c **** {
 26467              		.loc 1 955 0
 26468              		.cfi_startproc
 26469              		@ args = 0, pretend = 0, frame = 16
 26470              		@ frame_needed = 1, uses_anonymous_args = 0
 26471              		@ link register save eliminated.
 26472 0bc0 80B4     		push	{r7}
 26473              	.LCFI42:
 26474              		.cfi_def_cfa_offset 4
 26475 0bc2 85B0     		sub	sp, sp, #20
 26476              	.LCFI43:
 26477              		.cfi_def_cfa_offset 24
 26478 0bc4 00AF     		add	r7, sp, #0
 26479              		.cfi_offset 7, -4
 26480              	.LCFI44:
 26481              		.cfi_def_cfa_register 7
 26482 0bc6 7860     		str	r0, [r7, #4]
 956:../Libraries/STM32F4xx_StdPeriph_Driver/src/stm32f4xx_can.c ****   uint8_t sleepstatus = CAN_Sleep_Failed;
 26483              		.loc 1 956 0
 26484 0bc8 4FF00003 		mov	r3, #0
 26485 0bcc FB73     		strb	r3, [r7, #15]
 957:../Libraries/STM32F4xx_StdPeriph_Driver/src/stm32f4xx_can.c ****   
 958:../Libraries/STM32F4xx_StdPeriph_Driver/src/stm32f4xx_can.c ****   /* Check the parameters */
 959:../Libraries/STM32F4xx_StdPeriph_Driver/src/stm32f4xx_can.c ****   assert_param(IS_CAN_ALL_PERIPH(CANx));
 960:../Libraries/STM32F4xx_StdPeriph_Driver/src/stm32f4xx_can.c ****     
 961:../Libraries/STM32F4xx_StdPeriph_Driver/src/stm32f4xx_can.c ****   /* Request Sleep mode */
 962:../Libraries/STM32F4xx_StdPeriph_Driver/src/stm32f4xx_can.c ****    CANx->MCR = (((CANx->MCR) & (uint32_t)(~(uint32_t)CAN_MCR_INRQ)) | CAN_MCR_SLEEP);
 26486              		.loc 1 962 0
 26487 0bce 7B68     		ldr	r3, [r7, #4]
 26488 0bd0 1B68     		ldr	r3, [r3, #0]
 26489 0bd2 23F00303 		bic	r3, r3, #3
 26490 0bd6 43F00202 		orr	r2, r3, #2
 26491 0bda 7B68     		ldr	r3, [r7, #4]
 26492 0bdc 1A60     		str	r2, [r3, #0]
 963:../Libraries/STM32F4xx_StdPeriph_Driver/src/stm32f4xx_can.c ****    
 964:../Libraries/STM32F4xx_StdPeriph_Driver/src/stm32f4xx_can.c ****   /* Sleep mode status */
 965:../Libraries/STM32F4xx_StdPeriph_Driver/src/stm32f4xx_can.c ****   if ((CANx->MSR & (CAN_MSR_SLAK|CAN_MSR_INAK)) == CAN_MSR_SLAK)
 26493              		.loc 1 965 0
 26494 0bde 7B68     		ldr	r3, [r7, #4]
 26495 0be0 5B68     		ldr	r3, [r3, #4]
 26496 0be2 03F00303 		and	r3, r3, #3
 26497 0be6 022B     		cmp	r3, #2
 26498 0be8 02D1     		bne	.L112
 966:../Libraries/STM32F4xx_StdPeriph_Driver/src/stm32f4xx_can.c ****   {
 967:../Libraries/STM32F4xx_StdPeriph_Driver/src/stm32f4xx_can.c ****     /* Sleep mode not entered */
 968:../Libraries/STM32F4xx_StdPeriph_Driver/src/stm32f4xx_can.c ****     sleepstatus =  CAN_Sleep_Ok;
 26499              		.loc 1 968 0
 26500 0bea 4FF00103 		mov	r3, #1
 26501 0bee FB73     		strb	r3, [r7, #15]
 26502              	.L112:
 969:../Libraries/STM32F4xx_StdPeriph_Driver/src/stm32f4xx_can.c ****   }
 970:../Libraries/STM32F4xx_StdPeriph_Driver/src/stm32f4xx_can.c ****   /* return sleep mode status */
 971:../Libraries/STM32F4xx_StdPeriph_Driver/src/stm32f4xx_can.c ****    return (uint8_t)sleepstatus;
 26503              		.loc 1 971 0
 26504 0bf0 FB7B     		ldrb	r3, [r7, #15]	@ zero_extendqisi2
 972:../Libraries/STM32F4xx_StdPeriph_Driver/src/stm32f4xx_can.c **** }
 26505              		.loc 1 972 0
 26506 0bf2 1846     		mov	r0, r3
 26507 0bf4 07F11407 		add	r7, r7, #20
 26508 0bf8 BD46     		mov	sp, r7
 26509 0bfa 80BC     		pop	{r7}
 26510 0bfc 7047     		bx	lr
 26511              		.cfi_endproc
 26512              	.LFE124:
 26514 0bfe 00BF     		.align	2
 26515              		.global	CAN_WakeUp
 26516              		.thumb
 26517              		.thumb_func
 26519              	CAN_WakeUp:
 26520              	.LFB125:
 973:../Libraries/STM32F4xx_StdPeriph_Driver/src/stm32f4xx_can.c **** 
 974:../Libraries/STM32F4xx_StdPeriph_Driver/src/stm32f4xx_can.c **** /**
 975:../Libraries/STM32F4xx_StdPeriph_Driver/src/stm32f4xx_can.c ****   * @brief  Wakes up the CAN peripheral from sleep mode .
 976:../Libraries/STM32F4xx_StdPeriph_Driver/src/stm32f4xx_can.c ****   * @param  CANx: where x can be 1 or 2 to select the CAN peripheral.
 977:../Libraries/STM32F4xx_StdPeriph_Driver/src/stm32f4xx_can.c ****   * @retval CAN_WakeUp_Ok if sleep mode left, CAN_WakeUp_Failed otherwise.
 978:../Libraries/STM32F4xx_StdPeriph_Driver/src/stm32f4xx_can.c ****   */
 979:../Libraries/STM32F4xx_StdPeriph_Driver/src/stm32f4xx_can.c **** uint8_t CAN_WakeUp(CAN_TypeDef* CANx)
 980:../Libraries/STM32F4xx_StdPeriph_Driver/src/stm32f4xx_can.c **** {
 26521              		.loc 1 980 0
 26522              		.cfi_startproc
 26523              		@ args = 0, pretend = 0, frame = 16
 26524              		@ frame_needed = 1, uses_anonymous_args = 0
 26525              		@ link register save eliminated.
 26526 0c00 80B4     		push	{r7}
 26527              	.LCFI45:
 26528              		.cfi_def_cfa_offset 4
 26529 0c02 85B0     		sub	sp, sp, #20
 26530              	.LCFI46:
 26531              		.cfi_def_cfa_offset 24
 26532 0c04 00AF     		add	r7, sp, #0
 26533              		.cfi_offset 7, -4
 26534              	.LCFI47:
 26535              		.cfi_def_cfa_register 7
 26536 0c06 7860     		str	r0, [r7, #4]
 981:../Libraries/STM32F4xx_StdPeriph_Driver/src/stm32f4xx_can.c ****   uint32_t wait_slak = SLAK_TIMEOUT;
 26537              		.loc 1 981 0
 26538 0c08 4FF6FF73 		movw	r3, #65535
 26539 0c0c FB60     		str	r3, [r7, #12]
 982:../Libraries/STM32F4xx_StdPeriph_Driver/src/stm32f4xx_can.c ****   uint8_t wakeupstatus = CAN_WakeUp_Failed;
 26540              		.loc 1 982 0
 26541 0c0e 4FF00003 		mov	r3, #0
 26542 0c12 FB72     		strb	r3, [r7, #11]
 983:../Libraries/STM32F4xx_StdPeriph_Driver/src/stm32f4xx_can.c ****   
 984:../Libraries/STM32F4xx_StdPeriph_Driver/src/stm32f4xx_can.c ****   /* Check the parameters */
 985:../Libraries/STM32F4xx_StdPeriph_Driver/src/stm32f4xx_can.c ****   assert_param(IS_CAN_ALL_PERIPH(CANx));
 986:../Libraries/STM32F4xx_StdPeriph_Driver/src/stm32f4xx_can.c ****     
 987:../Libraries/STM32F4xx_StdPeriph_Driver/src/stm32f4xx_can.c ****   /* Wake up request */
 988:../Libraries/STM32F4xx_StdPeriph_Driver/src/stm32f4xx_can.c ****   CANx->MCR &= ~(uint32_t)CAN_MCR_SLEEP;
 26543              		.loc 1 988 0
 26544 0c14 7B68     		ldr	r3, [r7, #4]
 26545 0c16 1B68     		ldr	r3, [r3, #0]
 26546 0c18 23F00202 		bic	r2, r3, #2
 26547 0c1c 7B68     		ldr	r3, [r7, #4]
 26548 0c1e 1A60     		str	r2, [r3, #0]
 989:../Libraries/STM32F4xx_StdPeriph_Driver/src/stm32f4xx_can.c ****     
 990:../Libraries/STM32F4xx_StdPeriph_Driver/src/stm32f4xx_can.c ****   /* Sleep mode status */
 991:../Libraries/STM32F4xx_StdPeriph_Driver/src/stm32f4xx_can.c ****   while(((CANx->MSR & CAN_MSR_SLAK) == CAN_MSR_SLAK)&&(wait_slak!=0x00))
 26549              		.loc 1 991 0
 26550 0c20 03E0     		b	.L114
 26551              	.L116:
 992:../Libraries/STM32F4xx_StdPeriph_Driver/src/stm32f4xx_can.c ****   {
 993:../Libraries/STM32F4xx_StdPeriph_Driver/src/stm32f4xx_can.c ****    wait_slak--;
 26552              		.loc 1 993 0
 26553 0c22 FB68     		ldr	r3, [r7, #12]
 26554 0c24 03F1FF33 		add	r3, r3, #-1
 26555 0c28 FB60     		str	r3, [r7, #12]
 26556              	.L114:
 991:../Libraries/STM32F4xx_StdPeriph_Driver/src/stm32f4xx_can.c ****   while(((CANx->MSR & CAN_MSR_SLAK) == CAN_MSR_SLAK)&&(wait_slak!=0x00))
 26557              		.loc 1 991 0 discriminator 1
 26558 0c2a 7B68     		ldr	r3, [r7, #4]
 26559 0c2c 5B68     		ldr	r3, [r3, #4]
 26560 0c2e 03F00203 		and	r3, r3, #2
 26561 0c32 002B     		cmp	r3, #0
 26562 0c34 02D0     		beq	.L115
 991:../Libraries/STM32F4xx_StdPeriph_Driver/src/stm32f4xx_can.c ****   while(((CANx->MSR & CAN_MSR_SLAK) == CAN_MSR_SLAK)&&(wait_slak!=0x00))
 26563              		.loc 1 991 0 is_stmt 0 discriminator 2
 26564 0c36 FB68     		ldr	r3, [r7, #12]
 26565 0c38 002B     		cmp	r3, #0
 26566 0c3a F2D1     		bne	.L116
 26567              	.L115:
 994:../Libraries/STM32F4xx_StdPeriph_Driver/src/stm32f4xx_can.c ****   }
 995:../Libraries/STM32F4xx_StdPeriph_Driver/src/stm32f4xx_can.c ****   if((CANx->MSR & CAN_MSR_SLAK) != CAN_MSR_SLAK)
 26568              		.loc 1 995 0 is_stmt 1
 26569 0c3c 7B68     		ldr	r3, [r7, #4]
 26570 0c3e 5B68     		ldr	r3, [r3, #4]
 26571 0c40 03F00203 		and	r3, r3, #2
 26572 0c44 002B     		cmp	r3, #0
 26573 0c46 02D1     		bne	.L117
 996:../Libraries/STM32F4xx_StdPeriph_Driver/src/stm32f4xx_can.c ****   {
 997:../Libraries/STM32F4xx_StdPeriph_Driver/src/stm32f4xx_can.c ****    /* wake up done : Sleep mode exited */
 998:../Libraries/STM32F4xx_StdPeriph_Driver/src/stm32f4xx_can.c ****     wakeupstatus = CAN_WakeUp_Ok;
 26574              		.loc 1 998 0
 26575 0c48 4FF00103 		mov	r3, #1
 26576 0c4c FB72     		strb	r3, [r7, #11]
 26577              	.L117:
 999:../Libraries/STM32F4xx_StdPeriph_Driver/src/stm32f4xx_can.c ****   }
1000:../Libraries/STM32F4xx_StdPeriph_Driver/src/stm32f4xx_can.c ****   /* return wakeup status */
1001:../Libraries/STM32F4xx_StdPeriph_Driver/src/stm32f4xx_can.c ****   return (uint8_t)wakeupstatus;
 26578              		.loc 1 1001 0
 26579 0c4e FB7A     		ldrb	r3, [r7, #11]	@ zero_extendqisi2
1002:../Libraries/STM32F4xx_StdPeriph_Driver/src/stm32f4xx_can.c **** }
 26580              		.loc 1 1002 0
 26581 0c50 1846     		mov	r0, r3
 26582 0c52 07F11407 		add	r7, r7, #20
 26583 0c56 BD46     		mov	sp, r7
 26584 0c58 80BC     		pop	{r7}
 26585 0c5a 7047     		bx	lr
 26586              		.cfi_endproc
 26587              	.LFE125:
 26589              		.align	2
 26590              		.global	CAN_GetLastErrorCode
 26591              		.thumb
 26592              		.thumb_func
 26594              	CAN_GetLastErrorCode:
 26595              	.LFB126:
1003:../Libraries/STM32F4xx_StdPeriph_Driver/src/stm32f4xx_can.c **** /**
1004:../Libraries/STM32F4xx_StdPeriph_Driver/src/stm32f4xx_can.c ****   * @}
1005:../Libraries/STM32F4xx_StdPeriph_Driver/src/stm32f4xx_can.c ****   */
1006:../Libraries/STM32F4xx_StdPeriph_Driver/src/stm32f4xx_can.c **** 
1007:../Libraries/STM32F4xx_StdPeriph_Driver/src/stm32f4xx_can.c **** 
1008:../Libraries/STM32F4xx_StdPeriph_Driver/src/stm32f4xx_can.c **** /** @defgroup CAN_Group5 CAN Bus Error management functions
1009:../Libraries/STM32F4xx_StdPeriph_Driver/src/stm32f4xx_can.c ****  *  @brief    CAN Bus Error management functions 
1010:../Libraries/STM32F4xx_StdPeriph_Driver/src/stm32f4xx_can.c ****  *
1011:../Libraries/STM32F4xx_StdPeriph_Driver/src/stm32f4xx_can.c **** @verbatim    
1012:../Libraries/STM32F4xx_StdPeriph_Driver/src/stm32f4xx_can.c ****  ===============================================================================
1013:../Libraries/STM32F4xx_StdPeriph_Driver/src/stm32f4xx_can.c ****                       CAN Bus Error management functions
1014:../Libraries/STM32F4xx_StdPeriph_Driver/src/stm32f4xx_can.c ****  ===============================================================================  
1015:../Libraries/STM32F4xx_StdPeriph_Driver/src/stm32f4xx_can.c ****   This section provides functions allowing to 
1016:../Libraries/STM32F4xx_StdPeriph_Driver/src/stm32f4xx_can.c ****    -  Return the CANx's last error code (LEC)
1017:../Libraries/STM32F4xx_StdPeriph_Driver/src/stm32f4xx_can.c ****    -  Return the CANx Receive Error Counter (REC)
1018:../Libraries/STM32F4xx_StdPeriph_Driver/src/stm32f4xx_can.c ****    -  Return the LSB of the 9-bit CANx Transmit Error Counter(TEC).
1019:../Libraries/STM32F4xx_StdPeriph_Driver/src/stm32f4xx_can.c ****    
1020:../Libraries/STM32F4xx_StdPeriph_Driver/src/stm32f4xx_can.c ****    @note If TEC is greater than 255, The CAN is in bus-off state.
1021:../Libraries/STM32F4xx_StdPeriph_Driver/src/stm32f4xx_can.c ****    @note if REC or TEC are greater than 96, an Error warning flag occurs.
1022:../Libraries/STM32F4xx_StdPeriph_Driver/src/stm32f4xx_can.c ****    @note if REC or TEC are greater than 127, an Error Passive Flag occurs.
1023:../Libraries/STM32F4xx_StdPeriph_Driver/src/stm32f4xx_can.c ****                         
1024:../Libraries/STM32F4xx_StdPeriph_Driver/src/stm32f4xx_can.c **** @endverbatim
1025:../Libraries/STM32F4xx_StdPeriph_Driver/src/stm32f4xx_can.c ****   * @{
1026:../Libraries/STM32F4xx_StdPeriph_Driver/src/stm32f4xx_can.c ****   */
1027:../Libraries/STM32F4xx_StdPeriph_Driver/src/stm32f4xx_can.c ****   
1028:../Libraries/STM32F4xx_StdPeriph_Driver/src/stm32f4xx_can.c **** /**
1029:../Libraries/STM32F4xx_StdPeriph_Driver/src/stm32f4xx_can.c ****   * @brief  Returns the CANx's last error code (LEC).
1030:../Libraries/STM32F4xx_StdPeriph_Driver/src/stm32f4xx_can.c ****   * @param  CANx: where x can be 1 or 2 to select the CAN peripheral.
1031:../Libraries/STM32F4xx_StdPeriph_Driver/src/stm32f4xx_can.c ****   * @retval Error code: 
1032:../Libraries/STM32F4xx_StdPeriph_Driver/src/stm32f4xx_can.c ****   *          - CAN_ERRORCODE_NoErr: No Error  
1033:../Libraries/STM32F4xx_StdPeriph_Driver/src/stm32f4xx_can.c ****   *          - CAN_ERRORCODE_StuffErr: Stuff Error
1034:../Libraries/STM32F4xx_StdPeriph_Driver/src/stm32f4xx_can.c ****   *          - CAN_ERRORCODE_FormErr: Form Error
1035:../Libraries/STM32F4xx_StdPeriph_Driver/src/stm32f4xx_can.c ****   *          - CAN_ERRORCODE_ACKErr : Acknowledgment Error
1036:../Libraries/STM32F4xx_StdPeriph_Driver/src/stm32f4xx_can.c ****   *          - CAN_ERRORCODE_BitRecessiveErr: Bit Recessive Error
1037:../Libraries/STM32F4xx_StdPeriph_Driver/src/stm32f4xx_can.c ****   *          - CAN_ERRORCODE_BitDominantErr: Bit Dominant Error
1038:../Libraries/STM32F4xx_StdPeriph_Driver/src/stm32f4xx_can.c ****   *          - CAN_ERRORCODE_CRCErr: CRC Error
1039:../Libraries/STM32F4xx_StdPeriph_Driver/src/stm32f4xx_can.c ****   *          - CAN_ERRORCODE_SoftwareSetErr: Software Set Error  
1040:../Libraries/STM32F4xx_StdPeriph_Driver/src/stm32f4xx_can.c ****   */
1041:../Libraries/STM32F4xx_StdPeriph_Driver/src/stm32f4xx_can.c **** uint8_t CAN_GetLastErrorCode(CAN_TypeDef* CANx)
1042:../Libraries/STM32F4xx_StdPeriph_Driver/src/stm32f4xx_can.c **** {
 26596              		.loc 1 1042 0
 26597              		.cfi_startproc
 26598              		@ args = 0, pretend = 0, frame = 16
 26599              		@ frame_needed = 1, uses_anonymous_args = 0
 26600              		@ link register save eliminated.
 26601 0c5c 80B4     		push	{r7}
 26602              	.LCFI48:
 26603              		.cfi_def_cfa_offset 4
 26604 0c5e 85B0     		sub	sp, sp, #20
 26605              	.LCFI49:
 26606              		.cfi_def_cfa_offset 24
 26607 0c60 00AF     		add	r7, sp, #0
 26608              		.cfi_offset 7, -4
 26609              	.LCFI50:
 26610              		.cfi_def_cfa_register 7
 26611 0c62 7860     		str	r0, [r7, #4]
1043:../Libraries/STM32F4xx_StdPeriph_Driver/src/stm32f4xx_can.c ****   uint8_t errorcode=0;
 26612              		.loc 1 1043 0
 26613 0c64 4FF00003 		mov	r3, #0
 26614 0c68 FB73     		strb	r3, [r7, #15]
1044:../Libraries/STM32F4xx_StdPeriph_Driver/src/stm32f4xx_can.c ****   
1045:../Libraries/STM32F4xx_StdPeriph_Driver/src/stm32f4xx_can.c ****   /* Check the parameters */
1046:../Libraries/STM32F4xx_StdPeriph_Driver/src/stm32f4xx_can.c ****   assert_param(IS_CAN_ALL_PERIPH(CANx));
1047:../Libraries/STM32F4xx_StdPeriph_Driver/src/stm32f4xx_can.c ****   
1048:../Libraries/STM32F4xx_StdPeriph_Driver/src/stm32f4xx_can.c ****   /* Get the error code*/
1049:../Libraries/STM32F4xx_StdPeriph_Driver/src/stm32f4xx_can.c ****   errorcode = (((uint8_t)CANx->ESR) & (uint8_t)CAN_ESR_LEC);
 26615              		.loc 1 1049 0
 26616 0c6a 7B68     		ldr	r3, [r7, #4]
 26617 0c6c 9B69     		ldr	r3, [r3, #24]
 26618 0c6e DBB2     		uxtb	r3, r3
 26619 0c70 03F07003 		and	r3, r3, #112
 26620 0c74 FB73     		strb	r3, [r7, #15]
1050:../Libraries/STM32F4xx_StdPeriph_Driver/src/stm32f4xx_can.c ****   
1051:../Libraries/STM32F4xx_StdPeriph_Driver/src/stm32f4xx_can.c ****   /* Return the error code*/
1052:../Libraries/STM32F4xx_StdPeriph_Driver/src/stm32f4xx_can.c ****   return errorcode;
 26621              		.loc 1 1052 0
 26622 0c76 FB7B     		ldrb	r3, [r7, #15]	@ zero_extendqisi2
1053:../Libraries/STM32F4xx_StdPeriph_Driver/src/stm32f4xx_can.c **** }
 26623              		.loc 1 1053 0
 26624 0c78 1846     		mov	r0, r3
 26625 0c7a 07F11407 		add	r7, r7, #20
 26626 0c7e BD46     		mov	sp, r7
 26627 0c80 80BC     		pop	{r7}
 26628 0c82 7047     		bx	lr
 26629              		.cfi_endproc
 26630              	.LFE126:
 26632              		.align	2
 26633              		.global	CAN_GetReceiveErrorCounter
 26634              		.thumb
 26635              		.thumb_func
 26637              	CAN_GetReceiveErrorCounter:
 26638              	.LFB127:
1054:../Libraries/STM32F4xx_StdPeriph_Driver/src/stm32f4xx_can.c **** 
1055:../Libraries/STM32F4xx_StdPeriph_Driver/src/stm32f4xx_can.c **** /**
1056:../Libraries/STM32F4xx_StdPeriph_Driver/src/stm32f4xx_can.c ****   * @brief  Returns the CANx Receive Error Counter (REC).
1057:../Libraries/STM32F4xx_StdPeriph_Driver/src/stm32f4xx_can.c ****   * @note   In case of an error during reception, this counter is incremented 
1058:../Libraries/STM32F4xx_StdPeriph_Driver/src/stm32f4xx_can.c ****   *         by 1 or by 8 depending on the error condition as defined by the CAN 
1059:../Libraries/STM32F4xx_StdPeriph_Driver/src/stm32f4xx_can.c ****   *         standard. After every successful reception, the counter is 
1060:../Libraries/STM32F4xx_StdPeriph_Driver/src/stm32f4xx_can.c ****   *         decremented by 1 or reset to 120 if its value was higher than 128. 
1061:../Libraries/STM32F4xx_StdPeriph_Driver/src/stm32f4xx_can.c ****   *         When the counter value exceeds 127, the CAN controller enters the 
1062:../Libraries/STM32F4xx_StdPeriph_Driver/src/stm32f4xx_can.c ****   *         error passive state.  
1063:../Libraries/STM32F4xx_StdPeriph_Driver/src/stm32f4xx_can.c ****   * @param  CANx: where x can be 1 or 2 to to select the CAN peripheral.  
1064:../Libraries/STM32F4xx_StdPeriph_Driver/src/stm32f4xx_can.c ****   * @retval CAN Receive Error Counter. 
1065:../Libraries/STM32F4xx_StdPeriph_Driver/src/stm32f4xx_can.c ****   */
1066:../Libraries/STM32F4xx_StdPeriph_Driver/src/stm32f4xx_can.c **** uint8_t CAN_GetReceiveErrorCounter(CAN_TypeDef* CANx)
1067:../Libraries/STM32F4xx_StdPeriph_Driver/src/stm32f4xx_can.c **** {
 26639              		.loc 1 1067 0
 26640              		.cfi_startproc
 26641              		@ args = 0, pretend = 0, frame = 16
 26642              		@ frame_needed = 1, uses_anonymous_args = 0
 26643              		@ link register save eliminated.
 26644 0c84 80B4     		push	{r7}
 26645              	.LCFI51:
 26646              		.cfi_def_cfa_offset 4
 26647 0c86 85B0     		sub	sp, sp, #20
 26648              	.LCFI52:
 26649              		.cfi_def_cfa_offset 24
 26650 0c88 00AF     		add	r7, sp, #0
 26651              		.cfi_offset 7, -4
 26652              	.LCFI53:
 26653              		.cfi_def_cfa_register 7
 26654 0c8a 7860     		str	r0, [r7, #4]
1068:../Libraries/STM32F4xx_StdPeriph_Driver/src/stm32f4xx_can.c ****   uint8_t counter=0;
 26655              		.loc 1 1068 0
 26656 0c8c 4FF00003 		mov	r3, #0
 26657 0c90 FB73     		strb	r3, [r7, #15]
1069:../Libraries/STM32F4xx_StdPeriph_Driver/src/stm32f4xx_can.c ****   
1070:../Libraries/STM32F4xx_StdPeriph_Driver/src/stm32f4xx_can.c ****   /* Check the parameters */
1071:../Libraries/STM32F4xx_StdPeriph_Driver/src/stm32f4xx_can.c ****   assert_param(IS_CAN_ALL_PERIPH(CANx));
1072:../Libraries/STM32F4xx_StdPeriph_Driver/src/stm32f4xx_can.c ****   
1073:../Libraries/STM32F4xx_StdPeriph_Driver/src/stm32f4xx_can.c ****   /* Get the Receive Error Counter*/
1074:../Libraries/STM32F4xx_StdPeriph_Driver/src/stm32f4xx_can.c ****   counter = (uint8_t)((CANx->ESR & CAN_ESR_REC)>> 24);
 26658              		.loc 1 1074 0
 26659 0c92 7B68     		ldr	r3, [r7, #4]
 26660 0c94 9B69     		ldr	r3, [r3, #24]
 26661 0c96 4FEA1363 		lsr	r3, r3, #24
 26662 0c9a FB73     		strb	r3, [r7, #15]
1075:../Libraries/STM32F4xx_StdPeriph_Driver/src/stm32f4xx_can.c ****   
1076:../Libraries/STM32F4xx_StdPeriph_Driver/src/stm32f4xx_can.c ****   /* Return the Receive Error Counter*/
1077:../Libraries/STM32F4xx_StdPeriph_Driver/src/stm32f4xx_can.c ****   return counter;
 26663              		.loc 1 1077 0
 26664 0c9c FB7B     		ldrb	r3, [r7, #15]	@ zero_extendqisi2
1078:../Libraries/STM32F4xx_StdPeriph_Driver/src/stm32f4xx_can.c **** }
 26665              		.loc 1 1078 0
 26666 0c9e 1846     		mov	r0, r3
 26667 0ca0 07F11407 		add	r7, r7, #20
 26668 0ca4 BD46     		mov	sp, r7
 26669 0ca6 80BC     		pop	{r7}
 26670 0ca8 7047     		bx	lr
 26671              		.cfi_endproc
 26672              	.LFE127:
 26674 0caa 00BF     		.align	2
 26675              		.global	CAN_GetLSBTransmitErrorCounter
 26676              		.thumb
 26677              		.thumb_func
 26679              	CAN_GetLSBTransmitErrorCounter:
 26680              	.LFB128:
1079:../Libraries/STM32F4xx_StdPeriph_Driver/src/stm32f4xx_can.c **** 
1080:../Libraries/STM32F4xx_StdPeriph_Driver/src/stm32f4xx_can.c **** 
1081:../Libraries/STM32F4xx_StdPeriph_Driver/src/stm32f4xx_can.c **** /**
1082:../Libraries/STM32F4xx_StdPeriph_Driver/src/stm32f4xx_can.c ****   * @brief  Returns the LSB of the 9-bit CANx Transmit Error Counter(TEC).
1083:../Libraries/STM32F4xx_StdPeriph_Driver/src/stm32f4xx_can.c ****   * @param  CANx: where x can be 1 or 2 to to select the CAN peripheral.
1084:../Libraries/STM32F4xx_StdPeriph_Driver/src/stm32f4xx_can.c ****   * @retval LSB of the 9-bit CAN Transmit Error Counter. 
1085:../Libraries/STM32F4xx_StdPeriph_Driver/src/stm32f4xx_can.c ****   */
1086:../Libraries/STM32F4xx_StdPeriph_Driver/src/stm32f4xx_can.c **** uint8_t CAN_GetLSBTransmitErrorCounter(CAN_TypeDef* CANx)
1087:../Libraries/STM32F4xx_StdPeriph_Driver/src/stm32f4xx_can.c **** {
 26681              		.loc 1 1087 0
 26682              		.cfi_startproc
 26683              		@ args = 0, pretend = 0, frame = 16
 26684              		@ frame_needed = 1, uses_anonymous_args = 0
 26685              		@ link register save eliminated.
 26686 0cac 80B4     		push	{r7}
 26687              	.LCFI54:
 26688              		.cfi_def_cfa_offset 4
 26689 0cae 85B0     		sub	sp, sp, #20
 26690              	.LCFI55:
 26691              		.cfi_def_cfa_offset 24
 26692 0cb0 00AF     		add	r7, sp, #0
 26693              		.cfi_offset 7, -4
 26694              	.LCFI56:
 26695              		.cfi_def_cfa_register 7
 26696 0cb2 7860     		str	r0, [r7, #4]
1088:../Libraries/STM32F4xx_StdPeriph_Driver/src/stm32f4xx_can.c ****   uint8_t counter=0;
 26697              		.loc 1 1088 0
 26698 0cb4 4FF00003 		mov	r3, #0
 26699 0cb8 FB73     		strb	r3, [r7, #15]
1089:../Libraries/STM32F4xx_StdPeriph_Driver/src/stm32f4xx_can.c ****   
1090:../Libraries/STM32F4xx_StdPeriph_Driver/src/stm32f4xx_can.c ****   /* Check the parameters */
1091:../Libraries/STM32F4xx_StdPeriph_Driver/src/stm32f4xx_can.c ****   assert_param(IS_CAN_ALL_PERIPH(CANx));
1092:../Libraries/STM32F4xx_StdPeriph_Driver/src/stm32f4xx_can.c ****   
1093:../Libraries/STM32F4xx_StdPeriph_Driver/src/stm32f4xx_can.c ****   /* Get the LSB of the 9-bit CANx Transmit Error Counter(TEC) */
1094:../Libraries/STM32F4xx_StdPeriph_Driver/src/stm32f4xx_can.c ****   counter = (uint8_t)((CANx->ESR & CAN_ESR_TEC)>> 16);
 26700              		.loc 1 1094 0
 26701 0cba 7B68     		ldr	r3, [r7, #4]
 26702 0cbc 9B69     		ldr	r3, [r3, #24]
 26703 0cbe 03F47F03 		and	r3, r3, #16711680
 26704 0cc2 4FEA1343 		lsr	r3, r3, #16
 26705 0cc6 FB73     		strb	r3, [r7, #15]
1095:../Libraries/STM32F4xx_StdPeriph_Driver/src/stm32f4xx_can.c ****   
1096:../Libraries/STM32F4xx_StdPeriph_Driver/src/stm32f4xx_can.c ****   /* Return the LSB of the 9-bit CANx Transmit Error Counter(TEC) */
1097:../Libraries/STM32F4xx_StdPeriph_Driver/src/stm32f4xx_can.c ****   return counter;
 26706              		.loc 1 1097 0
 26707 0cc8 FB7B     		ldrb	r3, [r7, #15]	@ zero_extendqisi2
1098:../Libraries/STM32F4xx_StdPeriph_Driver/src/stm32f4xx_can.c **** }
 26708              		.loc 1 1098 0
 26709 0cca 1846     		mov	r0, r3
 26710 0ccc 07F11407 		add	r7, r7, #20
 26711 0cd0 BD46     		mov	sp, r7
 26712 0cd2 80BC     		pop	{r7}
 26713 0cd4 7047     		bx	lr
 26714              		.cfi_endproc
 26715              	.LFE128:
 26717 0cd6 00BF     		.align	2
 26718              		.global	CAN_ITConfig
 26719              		.thumb
 26720              		.thumb_func
 26722              	CAN_ITConfig:
 26723              	.LFB129:
1099:../Libraries/STM32F4xx_StdPeriph_Driver/src/stm32f4xx_can.c **** /**
1100:../Libraries/STM32F4xx_StdPeriph_Driver/src/stm32f4xx_can.c ****   * @}
1101:../Libraries/STM32F4xx_StdPeriph_Driver/src/stm32f4xx_can.c ****   */
1102:../Libraries/STM32F4xx_StdPeriph_Driver/src/stm32f4xx_can.c **** 
1103:../Libraries/STM32F4xx_StdPeriph_Driver/src/stm32f4xx_can.c **** /** @defgroup CAN_Group6 Interrupts and flags management functions
1104:../Libraries/STM32F4xx_StdPeriph_Driver/src/stm32f4xx_can.c ****  *  @brief   Interrupts and flags management functions
1105:../Libraries/STM32F4xx_StdPeriph_Driver/src/stm32f4xx_can.c ****  *
1106:../Libraries/STM32F4xx_StdPeriph_Driver/src/stm32f4xx_can.c **** @verbatim   
1107:../Libraries/STM32F4xx_StdPeriph_Driver/src/stm32f4xx_can.c ****  ===============================================================================
1108:../Libraries/STM32F4xx_StdPeriph_Driver/src/stm32f4xx_can.c ****                    Interrupts and flags management functions
1109:../Libraries/STM32F4xx_StdPeriph_Driver/src/stm32f4xx_can.c ****  ===============================================================================  
1110:../Libraries/STM32F4xx_StdPeriph_Driver/src/stm32f4xx_can.c **** 
1111:../Libraries/STM32F4xx_StdPeriph_Driver/src/stm32f4xx_can.c ****   This section provides functions allowing to configure the CAN Interrupts and 
1112:../Libraries/STM32F4xx_StdPeriph_Driver/src/stm32f4xx_can.c ****   to get the status and clear flags and Interrupts pending bits.
1113:../Libraries/STM32F4xx_StdPeriph_Driver/src/stm32f4xx_can.c ****   
1114:../Libraries/STM32F4xx_StdPeriph_Driver/src/stm32f4xx_can.c ****   The CAN provides 14 Interrupts sources and 15 Flags:
1115:../Libraries/STM32F4xx_StdPeriph_Driver/src/stm32f4xx_can.c **** 
1116:../Libraries/STM32F4xx_StdPeriph_Driver/src/stm32f4xx_can.c ****   ===============  
1117:../Libraries/STM32F4xx_StdPeriph_Driver/src/stm32f4xx_can.c ****       Flags :
1118:../Libraries/STM32F4xx_StdPeriph_Driver/src/stm32f4xx_can.c ****   ===============
1119:../Libraries/STM32F4xx_StdPeriph_Driver/src/stm32f4xx_can.c ****   The 15 flags can be divided on 4 groups: 
1120:../Libraries/STM32F4xx_StdPeriph_Driver/src/stm32f4xx_can.c **** 
1121:../Libraries/STM32F4xx_StdPeriph_Driver/src/stm32f4xx_can.c ****    A. Transmit Flags
1122:../Libraries/STM32F4xx_StdPeriph_Driver/src/stm32f4xx_can.c ****   -----------------------
1123:../Libraries/STM32F4xx_StdPeriph_Driver/src/stm32f4xx_can.c ****         CAN_FLAG_RQCP0, 
1124:../Libraries/STM32F4xx_StdPeriph_Driver/src/stm32f4xx_can.c ****         CAN_FLAG_RQCP1, 
1125:../Libraries/STM32F4xx_StdPeriph_Driver/src/stm32f4xx_can.c ****         CAN_FLAG_RQCP2  : Request completed MailBoxes 0, 1 and 2  Flags
1126:../Libraries/STM32F4xx_StdPeriph_Driver/src/stm32f4xx_can.c ****                           Set when when the last request (transmit or abort) has 
1127:../Libraries/STM32F4xx_StdPeriph_Driver/src/stm32f4xx_can.c ****                           been performed. 
1128:../Libraries/STM32F4xx_StdPeriph_Driver/src/stm32f4xx_can.c **** 
1129:../Libraries/STM32F4xx_StdPeriph_Driver/src/stm32f4xx_can.c ****   B. Receive Flags
1130:../Libraries/STM32F4xx_StdPeriph_Driver/src/stm32f4xx_can.c ****   -----------------------
1131:../Libraries/STM32F4xx_StdPeriph_Driver/src/stm32f4xx_can.c **** 
1132:../Libraries/STM32F4xx_StdPeriph_Driver/src/stm32f4xx_can.c ****         CAN_FLAG_FMP0,
1133:../Libraries/STM32F4xx_StdPeriph_Driver/src/stm32f4xx_can.c ****         CAN_FLAG_FMP1   : FIFO 0 and 1 Message Pending Flags 
1134:../Libraries/STM32F4xx_StdPeriph_Driver/src/stm32f4xx_can.c ****                           set to signal that messages are pending in the receive 
1135:../Libraries/STM32F4xx_StdPeriph_Driver/src/stm32f4xx_can.c ****                           FIFO.
1136:../Libraries/STM32F4xx_StdPeriph_Driver/src/stm32f4xx_can.c ****                           These Flags are cleared only by hardware. 
1137:../Libraries/STM32F4xx_StdPeriph_Driver/src/stm32f4xx_can.c **** 
1138:../Libraries/STM32F4xx_StdPeriph_Driver/src/stm32f4xx_can.c ****         CAN_FLAG_FF0,
1139:../Libraries/STM32F4xx_StdPeriph_Driver/src/stm32f4xx_can.c ****         CAN_FLAG_FF1    : FIFO 0 and 1 Full Flags
1140:../Libraries/STM32F4xx_StdPeriph_Driver/src/stm32f4xx_can.c ****                           set when three messages are stored in the selected 
1141:../Libraries/STM32F4xx_StdPeriph_Driver/src/stm32f4xx_can.c ****                           FIFO.                        
1142:../Libraries/STM32F4xx_StdPeriph_Driver/src/stm32f4xx_can.c **** 
1143:../Libraries/STM32F4xx_StdPeriph_Driver/src/stm32f4xx_can.c ****         CAN_FLAG_FOV0              
1144:../Libraries/STM32F4xx_StdPeriph_Driver/src/stm32f4xx_can.c ****         CAN_FLAG_FOV1   : FIFO 0 and 1 Overrun Flags
1145:../Libraries/STM32F4xx_StdPeriph_Driver/src/stm32f4xx_can.c ****                           set when a new message has been received and passed 
1146:../Libraries/STM32F4xx_StdPeriph_Driver/src/stm32f4xx_can.c ****                           the filter while the FIFO was full.         
1147:../Libraries/STM32F4xx_StdPeriph_Driver/src/stm32f4xx_can.c **** 
1148:../Libraries/STM32F4xx_StdPeriph_Driver/src/stm32f4xx_can.c ****   C. Operating Mode Flags
1149:../Libraries/STM32F4xx_StdPeriph_Driver/src/stm32f4xx_can.c ****   ----------------------- 
1150:../Libraries/STM32F4xx_StdPeriph_Driver/src/stm32f4xx_can.c ****         CAN_FLAG_WKU    : Wake up Flag
1151:../Libraries/STM32F4xx_StdPeriph_Driver/src/stm32f4xx_can.c ****                           set to signal that a SOF bit has been detected while 
1152:../Libraries/STM32F4xx_StdPeriph_Driver/src/stm32f4xx_can.c ****                           the CAN hardware was in Sleep mode. 
1153:../Libraries/STM32F4xx_StdPeriph_Driver/src/stm32f4xx_can.c ****         
1154:../Libraries/STM32F4xx_StdPeriph_Driver/src/stm32f4xx_can.c ****         CAN_FLAG_SLAK   : Sleep acknowledge Flag
1155:../Libraries/STM32F4xx_StdPeriph_Driver/src/stm32f4xx_can.c ****                           Set to signal that the CAN has entered Sleep Mode. 
1156:../Libraries/STM32F4xx_StdPeriph_Driver/src/stm32f4xx_can.c ****     
1157:../Libraries/STM32F4xx_StdPeriph_Driver/src/stm32f4xx_can.c ****   D. Error Flags
1158:../Libraries/STM32F4xx_StdPeriph_Driver/src/stm32f4xx_can.c ****   ----------------------- 
1159:../Libraries/STM32F4xx_StdPeriph_Driver/src/stm32f4xx_can.c ****         CAN_FLAG_EWG    : Error Warning Flag
1160:../Libraries/STM32F4xx_StdPeriph_Driver/src/stm32f4xx_can.c ****                           Set when the warning limit has been reached (Receive 
1161:../Libraries/STM32F4xx_StdPeriph_Driver/src/stm32f4xx_can.c ****                           Error Counter or Transmit Error Counter greater than 96). 
1162:../Libraries/STM32F4xx_StdPeriph_Driver/src/stm32f4xx_can.c ****                           This Flag is cleared only by hardware.
1163:../Libraries/STM32F4xx_StdPeriph_Driver/src/stm32f4xx_can.c ****                             
1164:../Libraries/STM32F4xx_StdPeriph_Driver/src/stm32f4xx_can.c ****         CAN_FLAG_EPV    : Error Passive Flag
1165:../Libraries/STM32F4xx_StdPeriph_Driver/src/stm32f4xx_can.c ****                           Set when the Error Passive limit has been reached 
1166:../Libraries/STM32F4xx_StdPeriph_Driver/src/stm32f4xx_can.c ****                           (Receive Error Counter or Transmit Error Counter 
1167:../Libraries/STM32F4xx_StdPeriph_Driver/src/stm32f4xx_can.c ****                           greater than 127).
1168:../Libraries/STM32F4xx_StdPeriph_Driver/src/stm32f4xx_can.c ****                           This Flag is cleared only by hardware.
1169:../Libraries/STM32F4xx_StdPeriph_Driver/src/stm32f4xx_can.c ****                              
1170:../Libraries/STM32F4xx_StdPeriph_Driver/src/stm32f4xx_can.c ****         CAN_FLAG_BOF    : Bus-Off Flag
1171:../Libraries/STM32F4xx_StdPeriph_Driver/src/stm32f4xx_can.c ****                           set when CAN enters the bus-off state. The bus-off 
1172:../Libraries/STM32F4xx_StdPeriph_Driver/src/stm32f4xx_can.c ****                           state is entered on TEC overflow, greater than 255.
1173:../Libraries/STM32F4xx_StdPeriph_Driver/src/stm32f4xx_can.c ****                           This Flag is cleared only by hardware.
1174:../Libraries/STM32F4xx_StdPeriph_Driver/src/stm32f4xx_can.c ****                                    
1175:../Libraries/STM32F4xx_StdPeriph_Driver/src/stm32f4xx_can.c ****         CAN_FLAG_LEC    : Last error code Flag
1176:../Libraries/STM32F4xx_StdPeriph_Driver/src/stm32f4xx_can.c ****                           set If a message has been transferred (reception or
1177:../Libraries/STM32F4xx_StdPeriph_Driver/src/stm32f4xx_can.c ****                           transmission) with error, and the error code is hold.              
1178:../Libraries/STM32F4xx_StdPeriph_Driver/src/stm32f4xx_can.c ****                           
1179:../Libraries/STM32F4xx_StdPeriph_Driver/src/stm32f4xx_can.c ****   ===============  
1180:../Libraries/STM32F4xx_StdPeriph_Driver/src/stm32f4xx_can.c ****    Interrupts :
1181:../Libraries/STM32F4xx_StdPeriph_Driver/src/stm32f4xx_can.c ****   ===============
1182:../Libraries/STM32F4xx_StdPeriph_Driver/src/stm32f4xx_can.c ****   The 14 interrupts can be divided on 4 groups: 
1183:../Libraries/STM32F4xx_StdPeriph_Driver/src/stm32f4xx_can.c ****   
1184:../Libraries/STM32F4xx_StdPeriph_Driver/src/stm32f4xx_can.c ****    A. Transmit interrupt
1185:../Libraries/STM32F4xx_StdPeriph_Driver/src/stm32f4xx_can.c ****   -----------------------   
1186:../Libraries/STM32F4xx_StdPeriph_Driver/src/stm32f4xx_can.c ****           CAN_IT_TME   :  Transmit mailbox empty Interrupt
1187:../Libraries/STM32F4xx_StdPeriph_Driver/src/stm32f4xx_can.c ****                           if enabled, this interrupt source is pending when 
1188:../Libraries/STM32F4xx_StdPeriph_Driver/src/stm32f4xx_can.c ****                           no transmit request are pending for Tx mailboxes.      
1189:../Libraries/STM32F4xx_StdPeriph_Driver/src/stm32f4xx_can.c **** 
1190:../Libraries/STM32F4xx_StdPeriph_Driver/src/stm32f4xx_can.c ****    B. Receive Interrupts
1191:../Libraries/STM32F4xx_StdPeriph_Driver/src/stm32f4xx_can.c ****   -----------------------          
1192:../Libraries/STM32F4xx_StdPeriph_Driver/src/stm32f4xx_can.c ****         CAN_IT_FMP0,
1193:../Libraries/STM32F4xx_StdPeriph_Driver/src/stm32f4xx_can.c ****         CAN_IT_FMP1    :  FIFO 0 and FIFO1 message pending Interrupts
1194:../Libraries/STM32F4xx_StdPeriph_Driver/src/stm32f4xx_can.c ****                           if enabled, these interrupt sources are pending when 
1195:../Libraries/STM32F4xx_StdPeriph_Driver/src/stm32f4xx_can.c ****                           messages are pending in the receive FIFO.
1196:../Libraries/STM32F4xx_StdPeriph_Driver/src/stm32f4xx_can.c ****                           The corresponding interrupt pending bits are cleared 
1197:../Libraries/STM32F4xx_StdPeriph_Driver/src/stm32f4xx_can.c ****                           only by hardware.
1198:../Libraries/STM32F4xx_StdPeriph_Driver/src/stm32f4xx_can.c ****                 
1199:../Libraries/STM32F4xx_StdPeriph_Driver/src/stm32f4xx_can.c ****         CAN_IT_FF0,              
1200:../Libraries/STM32F4xx_StdPeriph_Driver/src/stm32f4xx_can.c ****         CAN_IT_FF1     :  FIFO 0 and FIFO1 full Interrupts
1201:../Libraries/STM32F4xx_StdPeriph_Driver/src/stm32f4xx_can.c ****                           if enabled, these interrupt sources are pending when
1202:../Libraries/STM32F4xx_StdPeriph_Driver/src/stm32f4xx_can.c ****                           three messages are stored in the selected FIFO.
1203:../Libraries/STM32F4xx_StdPeriph_Driver/src/stm32f4xx_can.c ****         
1204:../Libraries/STM32F4xx_StdPeriph_Driver/src/stm32f4xx_can.c ****         CAN_IT_FOV0,        
1205:../Libraries/STM32F4xx_StdPeriph_Driver/src/stm32f4xx_can.c ****         CAN_IT_FOV1    :  FIFO 0 and FIFO1 overrun Interrupts        
1206:../Libraries/STM32F4xx_StdPeriph_Driver/src/stm32f4xx_can.c ****                           if enabled, these interrupt sources are pending when
1207:../Libraries/STM32F4xx_StdPeriph_Driver/src/stm32f4xx_can.c ****                           a new message has been received and passed the filter
1208:../Libraries/STM32F4xx_StdPeriph_Driver/src/stm32f4xx_can.c ****                           while the FIFO was full.
1209:../Libraries/STM32F4xx_StdPeriph_Driver/src/stm32f4xx_can.c **** 
1210:../Libraries/STM32F4xx_StdPeriph_Driver/src/stm32f4xx_can.c ****    C. Operating Mode Interrupts
1211:../Libraries/STM32F4xx_StdPeriph_Driver/src/stm32f4xx_can.c ****   -------------------------------          
1212:../Libraries/STM32F4xx_StdPeriph_Driver/src/stm32f4xx_can.c ****         CAN_IT_WKU     :  Wake-up Interrupt
1213:../Libraries/STM32F4xx_StdPeriph_Driver/src/stm32f4xx_can.c ****                           if enabled, this interrupt source is pending when 
1214:../Libraries/STM32F4xx_StdPeriph_Driver/src/stm32f4xx_can.c ****                           a SOF bit has been detected while the CAN hardware was 
1215:../Libraries/STM32F4xx_StdPeriph_Driver/src/stm32f4xx_can.c ****                           in Sleep mode.
1216:../Libraries/STM32F4xx_StdPeriph_Driver/src/stm32f4xx_can.c ****                                   
1217:../Libraries/STM32F4xx_StdPeriph_Driver/src/stm32f4xx_can.c ****         CAN_IT_SLK     :  Sleep acknowledge Interrupt
1218:../Libraries/STM32F4xx_StdPeriph_Driver/src/stm32f4xx_can.c ****                           if enabled, this interrupt source is pending when 
1219:../Libraries/STM32F4xx_StdPeriph_Driver/src/stm32f4xx_can.c ****                           the CAN has entered Sleep Mode.       
1220:../Libraries/STM32F4xx_StdPeriph_Driver/src/stm32f4xx_can.c **** 
1221:../Libraries/STM32F4xx_StdPeriph_Driver/src/stm32f4xx_can.c ****    D. Error Interrupts 
1222:../Libraries/STM32F4xx_StdPeriph_Driver/src/stm32f4xx_can.c ****   -----------------------         
1223:../Libraries/STM32F4xx_StdPeriph_Driver/src/stm32f4xx_can.c ****         CAN_IT_EWG     :  Error warning Interrupt 
1224:../Libraries/STM32F4xx_StdPeriph_Driver/src/stm32f4xx_can.c ****                           if enabled, this interrupt source is pending when
1225:../Libraries/STM32F4xx_StdPeriph_Driver/src/stm32f4xx_can.c ****                           the warning limit has been reached (Receive Error 
1226:../Libraries/STM32F4xx_StdPeriph_Driver/src/stm32f4xx_can.c ****                           Counter or Transmit Error Counter=96). 
1227:../Libraries/STM32F4xx_StdPeriph_Driver/src/stm32f4xx_can.c ****                                
1228:../Libraries/STM32F4xx_StdPeriph_Driver/src/stm32f4xx_can.c ****         CAN_IT_EPV     :  Error passive Interrupt        
1229:../Libraries/STM32F4xx_StdPeriph_Driver/src/stm32f4xx_can.c ****                           if enabled, this interrupt source is pending when
1230:../Libraries/STM32F4xx_StdPeriph_Driver/src/stm32f4xx_can.c ****                           the Error Passive limit has been reached (Receive 
1231:../Libraries/STM32F4xx_StdPeriph_Driver/src/stm32f4xx_can.c ****                           Error Counter or Transmit Error Counter>127).
1232:../Libraries/STM32F4xx_StdPeriph_Driver/src/stm32f4xx_can.c ****                           
1233:../Libraries/STM32F4xx_StdPeriph_Driver/src/stm32f4xx_can.c ****         CAN_IT_BOF     :  Bus-off Interrupt
1234:../Libraries/STM32F4xx_StdPeriph_Driver/src/stm32f4xx_can.c ****                           if enabled, this interrupt source is pending when
1235:../Libraries/STM32F4xx_StdPeriph_Driver/src/stm32f4xx_can.c ****                           CAN enters the bus-off state. The bus-off state is 
1236:../Libraries/STM32F4xx_StdPeriph_Driver/src/stm32f4xx_can.c ****                           entered on TEC overflow, greater than 255.
1237:../Libraries/STM32F4xx_StdPeriph_Driver/src/stm32f4xx_can.c ****                           This Flag is cleared only by hardware.
1238:../Libraries/STM32F4xx_StdPeriph_Driver/src/stm32f4xx_can.c ****                                   
1239:../Libraries/STM32F4xx_StdPeriph_Driver/src/stm32f4xx_can.c ****         CAN_IT_LEC     :  Last error code Interrupt        
1240:../Libraries/STM32F4xx_StdPeriph_Driver/src/stm32f4xx_can.c ****                           if enabled, this interrupt source is pending  when
1241:../Libraries/STM32F4xx_StdPeriph_Driver/src/stm32f4xx_can.c ****                           a message has been transferred (reception or
1242:../Libraries/STM32F4xx_StdPeriph_Driver/src/stm32f4xx_can.c ****                           transmission) with error, and the error code is hold.
1243:../Libraries/STM32F4xx_StdPeriph_Driver/src/stm32f4xx_can.c ****                           
1244:../Libraries/STM32F4xx_StdPeriph_Driver/src/stm32f4xx_can.c ****         CAN_IT_ERR     :  Error Interrupt
1245:../Libraries/STM32F4xx_StdPeriph_Driver/src/stm32f4xx_can.c ****                           if enabled, this interrupt source is pending when 
1246:../Libraries/STM32F4xx_StdPeriph_Driver/src/stm32f4xx_can.c ****                           an error condition is pending.      
1247:../Libraries/STM32F4xx_StdPeriph_Driver/src/stm32f4xx_can.c ****                       
1248:../Libraries/STM32F4xx_StdPeriph_Driver/src/stm32f4xx_can.c **** 
1249:../Libraries/STM32F4xx_StdPeriph_Driver/src/stm32f4xx_can.c ****   Managing the CAN controller events :
1250:../Libraries/STM32F4xx_StdPeriph_Driver/src/stm32f4xx_can.c ****   ------------------------------------ 
1251:../Libraries/STM32F4xx_StdPeriph_Driver/src/stm32f4xx_can.c ****   The user should identify which mode will be used in his application to manage 
1252:../Libraries/STM32F4xx_StdPeriph_Driver/src/stm32f4xx_can.c ****   the CAN controller events: Polling mode or Interrupt mode.
1253:../Libraries/STM32F4xx_StdPeriph_Driver/src/stm32f4xx_can.c ****   
1254:../Libraries/STM32F4xx_StdPeriph_Driver/src/stm32f4xx_can.c ****   1.  In the Polling Mode it is advised to use the following functions:
1255:../Libraries/STM32F4xx_StdPeriph_Driver/src/stm32f4xx_can.c ****       - CAN_GetFlagStatus() : to check if flags events occur. 
1256:../Libraries/STM32F4xx_StdPeriph_Driver/src/stm32f4xx_can.c ****       - CAN_ClearFlag()     : to clear the flags events.
1257:../Libraries/STM32F4xx_StdPeriph_Driver/src/stm32f4xx_can.c ****   
1258:../Libraries/STM32F4xx_StdPeriph_Driver/src/stm32f4xx_can.c **** 
1259:../Libraries/STM32F4xx_StdPeriph_Driver/src/stm32f4xx_can.c ****   
1260:../Libraries/STM32F4xx_StdPeriph_Driver/src/stm32f4xx_can.c ****   2.  In the Interrupt Mode it is advised to use the following functions:
1261:../Libraries/STM32F4xx_StdPeriph_Driver/src/stm32f4xx_can.c ****       - CAN_ITConfig()       : to enable or disable the interrupt source.
1262:../Libraries/STM32F4xx_StdPeriph_Driver/src/stm32f4xx_can.c ****       - CAN_GetITStatus()    : to check if Interrupt occurs.
1263:../Libraries/STM32F4xx_StdPeriph_Driver/src/stm32f4xx_can.c ****       - CAN_ClearITPendingBit() : to clear the Interrupt pending Bit (corresponding Flag).
1264:../Libraries/STM32F4xx_StdPeriph_Driver/src/stm32f4xx_can.c ****       @note  This function has no impact on CAN_IT_FMP0 and CAN_IT_FMP1 Interrupts 
1265:../Libraries/STM32F4xx_StdPeriph_Driver/src/stm32f4xx_can.c ****              pending bits since there are cleared only by hardware. 
1266:../Libraries/STM32F4xx_StdPeriph_Driver/src/stm32f4xx_can.c ****   
1267:../Libraries/STM32F4xx_StdPeriph_Driver/src/stm32f4xx_can.c **** @endverbatim
1268:../Libraries/STM32F4xx_StdPeriph_Driver/src/stm32f4xx_can.c ****   * @{
1269:../Libraries/STM32F4xx_StdPeriph_Driver/src/stm32f4xx_can.c ****   */ 
1270:../Libraries/STM32F4xx_StdPeriph_Driver/src/stm32f4xx_can.c **** /**
1271:../Libraries/STM32F4xx_StdPeriph_Driver/src/stm32f4xx_can.c ****   * @brief  Enables or disables the specified CANx interrupts.
1272:../Libraries/STM32F4xx_StdPeriph_Driver/src/stm32f4xx_can.c ****   * @param  CANx: where x can be 1 or 2 to to select the CAN peripheral.
1273:../Libraries/STM32F4xx_StdPeriph_Driver/src/stm32f4xx_can.c ****   * @param  CAN_IT: specifies the CAN interrupt sources to be enabled or disabled.
1274:../Libraries/STM32F4xx_StdPeriph_Driver/src/stm32f4xx_can.c ****   *          This parameter can be: 
1275:../Libraries/STM32F4xx_StdPeriph_Driver/src/stm32f4xx_can.c ****   *            @arg CAN_IT_TME: Transmit mailbox empty Interrupt 
1276:../Libraries/STM32F4xx_StdPeriph_Driver/src/stm32f4xx_can.c ****   *            @arg CAN_IT_FMP0: FIFO 0 message pending Interrupt 
1277:../Libraries/STM32F4xx_StdPeriph_Driver/src/stm32f4xx_can.c ****   *            @arg CAN_IT_FF0: FIFO 0 full Interrupt
1278:../Libraries/STM32F4xx_StdPeriph_Driver/src/stm32f4xx_can.c ****   *            @arg CAN_IT_FOV0: FIFO 0 overrun Interrupt
1279:../Libraries/STM32F4xx_StdPeriph_Driver/src/stm32f4xx_can.c ****   *            @arg CAN_IT_FMP1: FIFO 1 message pending Interrupt 
1280:../Libraries/STM32F4xx_StdPeriph_Driver/src/stm32f4xx_can.c ****   *            @arg CAN_IT_FF1: FIFO 1 full Interrupt
1281:../Libraries/STM32F4xx_StdPeriph_Driver/src/stm32f4xx_can.c ****   *            @arg CAN_IT_FOV1: FIFO 1 overrun Interrupt
1282:../Libraries/STM32F4xx_StdPeriph_Driver/src/stm32f4xx_can.c ****   *            @arg CAN_IT_WKU: Wake-up Interrupt
1283:../Libraries/STM32F4xx_StdPeriph_Driver/src/stm32f4xx_can.c ****   *            @arg CAN_IT_SLK: Sleep acknowledge Interrupt  
1284:../Libraries/STM32F4xx_StdPeriph_Driver/src/stm32f4xx_can.c ****   *            @arg CAN_IT_EWG: Error warning Interrupt
1285:../Libraries/STM32F4xx_StdPeriph_Driver/src/stm32f4xx_can.c ****   *            @arg CAN_IT_EPV: Error passive Interrupt
1286:../Libraries/STM32F4xx_StdPeriph_Driver/src/stm32f4xx_can.c ****   *            @arg CAN_IT_BOF: Bus-off Interrupt  
1287:../Libraries/STM32F4xx_StdPeriph_Driver/src/stm32f4xx_can.c ****   *            @arg CAN_IT_LEC: Last error code Interrupt
1288:../Libraries/STM32F4xx_StdPeriph_Driver/src/stm32f4xx_can.c ****   *            @arg CAN_IT_ERR: Error Interrupt
1289:../Libraries/STM32F4xx_StdPeriph_Driver/src/stm32f4xx_can.c ****   * @param  NewState: new state of the CAN interrupts.
1290:../Libraries/STM32F4xx_StdPeriph_Driver/src/stm32f4xx_can.c ****   *          This parameter can be: ENABLE or DISABLE.
1291:../Libraries/STM32F4xx_StdPeriph_Driver/src/stm32f4xx_can.c ****   * @retval None
1292:../Libraries/STM32F4xx_StdPeriph_Driver/src/stm32f4xx_can.c ****   */
1293:../Libraries/STM32F4xx_StdPeriph_Driver/src/stm32f4xx_can.c **** void CAN_ITConfig(CAN_TypeDef* CANx, uint32_t CAN_IT, FunctionalState NewState)
1294:../Libraries/STM32F4xx_StdPeriph_Driver/src/stm32f4xx_can.c **** {
 26724              		.loc 1 1294 0
 26725              		.cfi_startproc
 26726              		@ args = 0, pretend = 0, frame = 16
 26727              		@ frame_needed = 1, uses_anonymous_args = 0
 26728              		@ link register save eliminated.
 26729 0cd8 80B4     		push	{r7}
 26730              	.LCFI57:
 26731              		.cfi_def_cfa_offset 4
 26732 0cda 85B0     		sub	sp, sp, #20
 26733              	.LCFI58:
 26734              		.cfi_def_cfa_offset 24
 26735 0cdc 00AF     		add	r7, sp, #0
 26736              		.cfi_offset 7, -4
 26737              	.LCFI59:
 26738              		.cfi_def_cfa_register 7
 26739 0cde F860     		str	r0, [r7, #12]
 26740 0ce0 B960     		str	r1, [r7, #8]
 26741 0ce2 1346     		mov	r3, r2
 26742 0ce4 FB71     		strb	r3, [r7, #7]
1295:../Libraries/STM32F4xx_StdPeriph_Driver/src/stm32f4xx_can.c ****   /* Check the parameters */
1296:../Libraries/STM32F4xx_StdPeriph_Driver/src/stm32f4xx_can.c ****   assert_param(IS_CAN_ALL_PERIPH(CANx));
1297:../Libraries/STM32F4xx_StdPeriph_Driver/src/stm32f4xx_can.c ****   assert_param(IS_CAN_IT(CAN_IT));
1298:../Libraries/STM32F4xx_StdPeriph_Driver/src/stm32f4xx_can.c ****   assert_param(IS_FUNCTIONAL_STATE(NewState));
1299:../Libraries/STM32F4xx_StdPeriph_Driver/src/stm32f4xx_can.c **** 
1300:../Libraries/STM32F4xx_StdPeriph_Driver/src/stm32f4xx_can.c ****   if (NewState != DISABLE)
 26743              		.loc 1 1300 0
 26744 0ce6 FB79     		ldrb	r3, [r7, #7]	@ zero_extendqisi2
 26745 0ce8 002B     		cmp	r3, #0
 26746 0cea 06D0     		beq	.L122
1301:../Libraries/STM32F4xx_StdPeriph_Driver/src/stm32f4xx_can.c ****   {
1302:../Libraries/STM32F4xx_StdPeriph_Driver/src/stm32f4xx_can.c ****     /* Enable the selected CANx interrupt */
1303:../Libraries/STM32F4xx_StdPeriph_Driver/src/stm32f4xx_can.c ****     CANx->IER |= CAN_IT;
 26747              		.loc 1 1303 0
 26748 0cec FB68     		ldr	r3, [r7, #12]
 26749 0cee 5A69     		ldr	r2, [r3, #20]
 26750 0cf0 BB68     		ldr	r3, [r7, #8]
 26751 0cf2 1A43     		orrs	r2, r2, r3
 26752 0cf4 FB68     		ldr	r3, [r7, #12]
 26753 0cf6 5A61     		str	r2, [r3, #20]
 26754 0cf8 07E0     		b	.L121
 26755              	.L122:
1304:../Libraries/STM32F4xx_StdPeriph_Driver/src/stm32f4xx_can.c ****   }
1305:../Libraries/STM32F4xx_StdPeriph_Driver/src/stm32f4xx_can.c ****   else
1306:../Libraries/STM32F4xx_StdPeriph_Driver/src/stm32f4xx_can.c ****   {
1307:../Libraries/STM32F4xx_StdPeriph_Driver/src/stm32f4xx_can.c ****     /* Disable the selected CANx interrupt */
1308:../Libraries/STM32F4xx_StdPeriph_Driver/src/stm32f4xx_can.c ****     CANx->IER &= ~CAN_IT;
 26756              		.loc 1 1308 0
 26757 0cfa FB68     		ldr	r3, [r7, #12]
 26758 0cfc 5A69     		ldr	r2, [r3, #20]
 26759 0cfe BB68     		ldr	r3, [r7, #8]
 26760 0d00 6FEA0303 		mvn	r3, r3
 26761 0d04 1A40     		ands	r2, r2, r3
 26762 0d06 FB68     		ldr	r3, [r7, #12]
 26763 0d08 5A61     		str	r2, [r3, #20]
 26764              	.L121:
1309:../Libraries/STM32F4xx_StdPeriph_Driver/src/stm32f4xx_can.c ****   }
1310:../Libraries/STM32F4xx_StdPeriph_Driver/src/stm32f4xx_can.c **** }
 26765              		.loc 1 1310 0
 26766 0d0a 07F11407 		add	r7, r7, #20
 26767 0d0e BD46     		mov	sp, r7
 26768 0d10 80BC     		pop	{r7}
 26769 0d12 7047     		bx	lr
 26770              		.cfi_endproc
 26771              	.LFE129:
 26773              		.align	2
 26774              		.global	CAN_GetFlagStatus
 26775              		.thumb
 26776              		.thumb_func
 26778              	CAN_GetFlagStatus:
 26779              	.LFB130:
1311:../Libraries/STM32F4xx_StdPeriph_Driver/src/stm32f4xx_can.c **** /**
1312:../Libraries/STM32F4xx_StdPeriph_Driver/src/stm32f4xx_can.c ****   * @brief  Checks whether the specified CAN flag is set or not.
1313:../Libraries/STM32F4xx_StdPeriph_Driver/src/stm32f4xx_can.c ****   * @param  CANx: where x can be 1 or 2 to to select the CAN peripheral.
1314:../Libraries/STM32F4xx_StdPeriph_Driver/src/stm32f4xx_can.c ****   * @param  CAN_FLAG: specifies the flag to check.
1315:../Libraries/STM32F4xx_StdPeriph_Driver/src/stm32f4xx_can.c ****   *          This parameter can be one of the following values:
1316:../Libraries/STM32F4xx_StdPeriph_Driver/src/stm32f4xx_can.c ****   *            @arg CAN_FLAG_RQCP0: Request MailBox0 Flag
1317:../Libraries/STM32F4xx_StdPeriph_Driver/src/stm32f4xx_can.c ****   *            @arg CAN_FLAG_RQCP1: Request MailBox1 Flag
1318:../Libraries/STM32F4xx_StdPeriph_Driver/src/stm32f4xx_can.c ****   *            @arg CAN_FLAG_RQCP2: Request MailBox2 Flag
1319:../Libraries/STM32F4xx_StdPeriph_Driver/src/stm32f4xx_can.c ****   *            @arg CAN_FLAG_FMP0: FIFO 0 Message Pending Flag   
1320:../Libraries/STM32F4xx_StdPeriph_Driver/src/stm32f4xx_can.c ****   *            @arg CAN_FLAG_FF0: FIFO 0 Full Flag       
1321:../Libraries/STM32F4xx_StdPeriph_Driver/src/stm32f4xx_can.c ****   *            @arg CAN_FLAG_FOV0: FIFO 0 Overrun Flag 
1322:../Libraries/STM32F4xx_StdPeriph_Driver/src/stm32f4xx_can.c ****   *            @arg CAN_FLAG_FMP1: FIFO 1 Message Pending Flag   
1323:../Libraries/STM32F4xx_StdPeriph_Driver/src/stm32f4xx_can.c ****   *            @arg CAN_FLAG_FF1: FIFO 1 Full Flag        
1324:../Libraries/STM32F4xx_StdPeriph_Driver/src/stm32f4xx_can.c ****   *            @arg CAN_FLAG_FOV1: FIFO 1 Overrun Flag     
1325:../Libraries/STM32F4xx_StdPeriph_Driver/src/stm32f4xx_can.c ****   *            @arg CAN_FLAG_WKU: Wake up Flag
1326:../Libraries/STM32F4xx_StdPeriph_Driver/src/stm32f4xx_can.c ****   *            @arg CAN_FLAG_SLAK: Sleep acknowledge Flag 
1327:../Libraries/STM32F4xx_StdPeriph_Driver/src/stm32f4xx_can.c ****   *            @arg CAN_FLAG_EWG: Error Warning Flag
1328:../Libraries/STM32F4xx_StdPeriph_Driver/src/stm32f4xx_can.c ****   *            @arg CAN_FLAG_EPV: Error Passive Flag  
1329:../Libraries/STM32F4xx_StdPeriph_Driver/src/stm32f4xx_can.c ****   *            @arg CAN_FLAG_BOF: Bus-Off Flag    
1330:../Libraries/STM32F4xx_StdPeriph_Driver/src/stm32f4xx_can.c ****   *            @arg CAN_FLAG_LEC: Last error code Flag      
1331:../Libraries/STM32F4xx_StdPeriph_Driver/src/stm32f4xx_can.c ****   * @retval The new state of CAN_FLAG (SET or RESET).
1332:../Libraries/STM32F4xx_StdPeriph_Driver/src/stm32f4xx_can.c ****   */
1333:../Libraries/STM32F4xx_StdPeriph_Driver/src/stm32f4xx_can.c **** FlagStatus CAN_GetFlagStatus(CAN_TypeDef* CANx, uint32_t CAN_FLAG)
1334:../Libraries/STM32F4xx_StdPeriph_Driver/src/stm32f4xx_can.c **** {
 26780              		.loc 1 1334 0
 26781              		.cfi_startproc
 26782              		@ args = 0, pretend = 0, frame = 16
 26783              		@ frame_needed = 1, uses_anonymous_args = 0
 26784              		@ link register save eliminated.
 26785 0d14 80B4     		push	{r7}
 26786              	.LCFI60:
 26787              		.cfi_def_cfa_offset 4
 26788 0d16 85B0     		sub	sp, sp, #20
 26789              	.LCFI61:
 26790              		.cfi_def_cfa_offset 24
 26791 0d18 00AF     		add	r7, sp, #0
 26792              		.cfi_offset 7, -4
 26793              	.LCFI62:
 26794              		.cfi_def_cfa_register 7
 26795 0d1a 7860     		str	r0, [r7, #4]
 26796 0d1c 3960     		str	r1, [r7, #0]
1335:../Libraries/STM32F4xx_StdPeriph_Driver/src/stm32f4xx_can.c ****   FlagStatus bitstatus = RESET;
 26797              		.loc 1 1335 0
 26798 0d1e 4FF00003 		mov	r3, #0
 26799 0d22 FB73     		strb	r3, [r7, #15]
1336:../Libraries/STM32F4xx_StdPeriph_Driver/src/stm32f4xx_can.c ****   
1337:../Libraries/STM32F4xx_StdPeriph_Driver/src/stm32f4xx_can.c ****   /* Check the parameters */
1338:../Libraries/STM32F4xx_StdPeriph_Driver/src/stm32f4xx_can.c ****   assert_param(IS_CAN_ALL_PERIPH(CANx));
1339:../Libraries/STM32F4xx_StdPeriph_Driver/src/stm32f4xx_can.c ****   assert_param(IS_CAN_GET_FLAG(CAN_FLAG));
1340:../Libraries/STM32F4xx_StdPeriph_Driver/src/stm32f4xx_can.c ****   
1341:../Libraries/STM32F4xx_StdPeriph_Driver/src/stm32f4xx_can.c **** 
1342:../Libraries/STM32F4xx_StdPeriph_Driver/src/stm32f4xx_can.c ****   if((CAN_FLAG & CAN_FLAGS_ESR) != (uint32_t)RESET)
 26800              		.loc 1 1342 0
 26801 0d24 3B68     		ldr	r3, [r7, #0]
 26802 0d26 03F47003 		and	r3, r3, #15728640
 26803 0d2a 002B     		cmp	r3, #0
 26804 0d2c 12D0     		beq	.L125
1343:../Libraries/STM32F4xx_StdPeriph_Driver/src/stm32f4xx_can.c ****   { 
1344:../Libraries/STM32F4xx_StdPeriph_Driver/src/stm32f4xx_can.c ****     /* Check the status of the specified CAN flag */
1345:../Libraries/STM32F4xx_StdPeriph_Driver/src/stm32f4xx_can.c ****     if ((CANx->ESR & (CAN_FLAG & 0x000FFFFF)) != (uint32_t)RESET)
 26805              		.loc 1 1345 0
 26806 0d2e 7B68     		ldr	r3, [r7, #4]
 26807 0d30 9A69     		ldr	r2, [r3, #24]
 26808 0d32 3B68     		ldr	r3, [r7, #0]
 26809 0d34 02EA0303 		and	r3, r2, r3
 26810 0d38 23F07F43 		bic	r3, r3, #-16777216
 26811 0d3c 23F47003 		bic	r3, r3, #15728640
 26812 0d40 002B     		cmp	r3, #0
 26813 0d42 03D0     		beq	.L126
1346:../Libraries/STM32F4xx_StdPeriph_Driver/src/stm32f4xx_can.c ****     { 
1347:../Libraries/STM32F4xx_StdPeriph_Driver/src/stm32f4xx_can.c ****       /* CAN_FLAG is set */
1348:../Libraries/STM32F4xx_StdPeriph_Driver/src/stm32f4xx_can.c ****       bitstatus = SET;
 26814              		.loc 1 1348 0
 26815 0d44 4FF00103 		mov	r3, #1
 26816 0d48 FB73     		strb	r3, [r7, #15]
 26817 0d4a 5DE0     		b	.L127
 26818              	.L126:
1349:../Libraries/STM32F4xx_StdPeriph_Driver/src/stm32f4xx_can.c ****     }
1350:../Libraries/STM32F4xx_StdPeriph_Driver/src/stm32f4xx_can.c ****     else
1351:../Libraries/STM32F4xx_StdPeriph_Driver/src/stm32f4xx_can.c ****     { 
1352:../Libraries/STM32F4xx_StdPeriph_Driver/src/stm32f4xx_can.c ****       /* CAN_FLAG is reset */
1353:../Libraries/STM32F4xx_StdPeriph_Driver/src/stm32f4xx_can.c ****       bitstatus = RESET;
 26819              		.loc 1 1353 0
 26820 0d4c 4FF00003 		mov	r3, #0
 26821 0d50 FB73     		strb	r3, [r7, #15]
 26822 0d52 59E0     		b	.L127
 26823              	.L125:
1354:../Libraries/STM32F4xx_StdPeriph_Driver/src/stm32f4xx_can.c ****     }
1355:../Libraries/STM32F4xx_StdPeriph_Driver/src/stm32f4xx_can.c ****   }
1356:../Libraries/STM32F4xx_StdPeriph_Driver/src/stm32f4xx_can.c ****   else if((CAN_FLAG & CAN_FLAGS_MSR) != (uint32_t)RESET)
 26824              		.loc 1 1356 0
 26825 0d54 3B68     		ldr	r3, [r7, #0]
 26826 0d56 03F08073 		and	r3, r3, #16777216
 26827 0d5a 002B     		cmp	r3, #0
 26828 0d5c 12D0     		beq	.L128
1357:../Libraries/STM32F4xx_StdPeriph_Driver/src/stm32f4xx_can.c ****   { 
1358:../Libraries/STM32F4xx_StdPeriph_Driver/src/stm32f4xx_can.c ****     /* Check the status of the specified CAN flag */
1359:../Libraries/STM32F4xx_StdPeriph_Driver/src/stm32f4xx_can.c ****     if ((CANx->MSR & (CAN_FLAG & 0x000FFFFF)) != (uint32_t)RESET)
 26829              		.loc 1 1359 0
 26830 0d5e 7B68     		ldr	r3, [r7, #4]
 26831 0d60 5A68     		ldr	r2, [r3, #4]
 26832 0d62 3B68     		ldr	r3, [r7, #0]
 26833 0d64 02EA0303 		and	r3, r2, r3
 26834 0d68 23F07F43 		bic	r3, r3, #-16777216
 26835 0d6c 23F47003 		bic	r3, r3, #15728640
 26836 0d70 002B     		cmp	r3, #0
 26837 0d72 03D0     		beq	.L129
1360:../Libraries/STM32F4xx_StdPeriph_Driver/src/stm32f4xx_can.c ****     { 
1361:../Libraries/STM32F4xx_StdPeriph_Driver/src/stm32f4xx_can.c ****       /* CAN_FLAG is set */
1362:../Libraries/STM32F4xx_StdPeriph_Driver/src/stm32f4xx_can.c ****       bitstatus = SET;
 26838              		.loc 1 1362 0
 26839 0d74 4FF00103 		mov	r3, #1
 26840 0d78 FB73     		strb	r3, [r7, #15]
 26841 0d7a 45E0     		b	.L127
 26842              	.L129:
1363:../Libraries/STM32F4xx_StdPeriph_Driver/src/stm32f4xx_can.c ****     }
1364:../Libraries/STM32F4xx_StdPeriph_Driver/src/stm32f4xx_can.c ****     else
1365:../Libraries/STM32F4xx_StdPeriph_Driver/src/stm32f4xx_can.c ****     { 
1366:../Libraries/STM32F4xx_StdPeriph_Driver/src/stm32f4xx_can.c ****       /* CAN_FLAG is reset */
1367:../Libraries/STM32F4xx_StdPeriph_Driver/src/stm32f4xx_can.c ****       bitstatus = RESET;
 26843              		.loc 1 1367 0
 26844 0d7c 4FF00003 		mov	r3, #0
 26845 0d80 FB73     		strb	r3, [r7, #15]
 26846 0d82 41E0     		b	.L127
 26847              	.L128:
1368:../Libraries/STM32F4xx_StdPeriph_Driver/src/stm32f4xx_can.c ****     }
1369:../Libraries/STM32F4xx_StdPeriph_Driver/src/stm32f4xx_can.c ****   }
1370:../Libraries/STM32F4xx_StdPeriph_Driver/src/stm32f4xx_can.c ****   else if((CAN_FLAG & CAN_FLAGS_TSR) != (uint32_t)RESET)
 26848              		.loc 1 1370 0
 26849 0d84 3B68     		ldr	r3, [r7, #0]
 26850 0d86 03F00063 		and	r3, r3, #134217728
 26851 0d8a 002B     		cmp	r3, #0
 26852 0d8c 12D0     		beq	.L130
1371:../Libraries/STM32F4xx_StdPeriph_Driver/src/stm32f4xx_can.c ****   { 
1372:../Libraries/STM32F4xx_StdPeriph_Driver/src/stm32f4xx_can.c ****     /* Check the status of the specified CAN flag */
1373:../Libraries/STM32F4xx_StdPeriph_Driver/src/stm32f4xx_can.c ****     if ((CANx->TSR & (CAN_FLAG & 0x000FFFFF)) != (uint32_t)RESET)
 26853              		.loc 1 1373 0
 26854 0d8e 7B68     		ldr	r3, [r7, #4]
 26855 0d90 9A68     		ldr	r2, [r3, #8]
 26856 0d92 3B68     		ldr	r3, [r7, #0]
 26857 0d94 02EA0303 		and	r3, r2, r3
 26858 0d98 23F07F43 		bic	r3, r3, #-16777216
 26859 0d9c 23F47003 		bic	r3, r3, #15728640
 26860 0da0 002B     		cmp	r3, #0
 26861 0da2 03D0     		beq	.L131
1374:../Libraries/STM32F4xx_StdPeriph_Driver/src/stm32f4xx_can.c ****     { 
1375:../Libraries/STM32F4xx_StdPeriph_Driver/src/stm32f4xx_can.c ****       /* CAN_FLAG is set */
1376:../Libraries/STM32F4xx_StdPeriph_Driver/src/stm32f4xx_can.c ****       bitstatus = SET;
 26862              		.loc 1 1376 0
 26863 0da4 4FF00103 		mov	r3, #1
 26864 0da8 FB73     		strb	r3, [r7, #15]
 26865 0daa 2DE0     		b	.L127
 26866              	.L131:
1377:../Libraries/STM32F4xx_StdPeriph_Driver/src/stm32f4xx_can.c ****     }
1378:../Libraries/STM32F4xx_StdPeriph_Driver/src/stm32f4xx_can.c ****     else
1379:../Libraries/STM32F4xx_StdPeriph_Driver/src/stm32f4xx_can.c ****     { 
1380:../Libraries/STM32F4xx_StdPeriph_Driver/src/stm32f4xx_can.c ****       /* CAN_FLAG is reset */
1381:../Libraries/STM32F4xx_StdPeriph_Driver/src/stm32f4xx_can.c ****       bitstatus = RESET;
 26867              		.loc 1 1381 0
 26868 0dac 4FF00003 		mov	r3, #0
 26869 0db0 FB73     		strb	r3, [r7, #15]
 26870 0db2 29E0     		b	.L127
 26871              	.L130:
1382:../Libraries/STM32F4xx_StdPeriph_Driver/src/stm32f4xx_can.c ****     }
1383:../Libraries/STM32F4xx_StdPeriph_Driver/src/stm32f4xx_can.c ****   }
1384:../Libraries/STM32F4xx_StdPeriph_Driver/src/stm32f4xx_can.c ****   else if((CAN_FLAG & CAN_FLAGS_RF0R) != (uint32_t)RESET)
 26872              		.loc 1 1384 0
 26873 0db4 3B68     		ldr	r3, [r7, #0]
 26874 0db6 03F00073 		and	r3, r3, #33554432
 26875 0dba 002B     		cmp	r3, #0
 26876 0dbc 12D0     		beq	.L132
1385:../Libraries/STM32F4xx_StdPeriph_Driver/src/stm32f4xx_can.c ****   { 
1386:../Libraries/STM32F4xx_StdPeriph_Driver/src/stm32f4xx_can.c ****     /* Check the status of the specified CAN flag */
1387:../Libraries/STM32F4xx_StdPeriph_Driver/src/stm32f4xx_can.c ****     if ((CANx->RF0R & (CAN_FLAG & 0x000FFFFF)) != (uint32_t)RESET)
 26877              		.loc 1 1387 0
 26878 0dbe 7B68     		ldr	r3, [r7, #4]
 26879 0dc0 DA68     		ldr	r2, [r3, #12]
 26880 0dc2 3B68     		ldr	r3, [r7, #0]
 26881 0dc4 02EA0303 		and	r3, r2, r3
 26882 0dc8 23F07F43 		bic	r3, r3, #-16777216
 26883 0dcc 23F47003 		bic	r3, r3, #15728640
 26884 0dd0 002B     		cmp	r3, #0
 26885 0dd2 03D0     		beq	.L133
1388:../Libraries/STM32F4xx_StdPeriph_Driver/src/stm32f4xx_can.c ****     { 
1389:../Libraries/STM32F4xx_StdPeriph_Driver/src/stm32f4xx_can.c ****       /* CAN_FLAG is set */
1390:../Libraries/STM32F4xx_StdPeriph_Driver/src/stm32f4xx_can.c ****       bitstatus = SET;
 26886              		.loc 1 1390 0
 26887 0dd4 4FF00103 		mov	r3, #1
 26888 0dd8 FB73     		strb	r3, [r7, #15]
 26889 0dda 15E0     		b	.L127
 26890              	.L133:
1391:../Libraries/STM32F4xx_StdPeriph_Driver/src/stm32f4xx_can.c ****     }
1392:../Libraries/STM32F4xx_StdPeriph_Driver/src/stm32f4xx_can.c ****     else
1393:../Libraries/STM32F4xx_StdPeriph_Driver/src/stm32f4xx_can.c ****     { 
1394:../Libraries/STM32F4xx_StdPeriph_Driver/src/stm32f4xx_can.c ****       /* CAN_FLAG is reset */
1395:../Libraries/STM32F4xx_StdPeriph_Driver/src/stm32f4xx_can.c ****       bitstatus = RESET;
 26891              		.loc 1 1395 0
 26892 0ddc 4FF00003 		mov	r3, #0
 26893 0de0 FB73     		strb	r3, [r7, #15]
 26894 0de2 11E0     		b	.L127
 26895              	.L132:
1396:../Libraries/STM32F4xx_StdPeriph_Driver/src/stm32f4xx_can.c ****     }
1397:../Libraries/STM32F4xx_StdPeriph_Driver/src/stm32f4xx_can.c ****   }
1398:../Libraries/STM32F4xx_StdPeriph_Driver/src/stm32f4xx_can.c ****   else /* If(CAN_FLAG & CAN_FLAGS_RF1R != (uint32_t)RESET) */
1399:../Libraries/STM32F4xx_StdPeriph_Driver/src/stm32f4xx_can.c ****   { 
1400:../Libraries/STM32F4xx_StdPeriph_Driver/src/stm32f4xx_can.c ****     /* Check the status of the specified CAN flag */
1401:../Libraries/STM32F4xx_StdPeriph_Driver/src/stm32f4xx_can.c ****     if ((uint32_t)(CANx->RF1R & (CAN_FLAG & 0x000FFFFF)) != (uint32_t)RESET)
 26896              		.loc 1 1401 0
 26897 0de4 7B68     		ldr	r3, [r7, #4]
 26898 0de6 1A69     		ldr	r2, [r3, #16]
 26899 0de8 3B68     		ldr	r3, [r7, #0]
 26900 0dea 02EA0303 		and	r3, r2, r3
 26901 0dee 23F07F43 		bic	r3, r3, #-16777216
 26902 0df2 23F47003 		bic	r3, r3, #15728640
 26903 0df6 002B     		cmp	r3, #0
 26904 0df8 03D0     		beq	.L134
1402:../Libraries/STM32F4xx_StdPeriph_Driver/src/stm32f4xx_can.c ****     { 
1403:../Libraries/STM32F4xx_StdPeriph_Driver/src/stm32f4xx_can.c ****       /* CAN_FLAG is set */
1404:../Libraries/STM32F4xx_StdPeriph_Driver/src/stm32f4xx_can.c ****       bitstatus = SET;
 26905              		.loc 1 1404 0
 26906 0dfa 4FF00103 		mov	r3, #1
 26907 0dfe FB73     		strb	r3, [r7, #15]
 26908 0e00 02E0     		b	.L127
 26909              	.L134:
1405:../Libraries/STM32F4xx_StdPeriph_Driver/src/stm32f4xx_can.c ****     }
1406:../Libraries/STM32F4xx_StdPeriph_Driver/src/stm32f4xx_can.c ****     else
1407:../Libraries/STM32F4xx_StdPeriph_Driver/src/stm32f4xx_can.c ****     { 
1408:../Libraries/STM32F4xx_StdPeriph_Driver/src/stm32f4xx_can.c ****       /* CAN_FLAG is reset */
1409:../Libraries/STM32F4xx_StdPeriph_Driver/src/stm32f4xx_can.c ****       bitstatus = RESET;
 26910              		.loc 1 1409 0
 26911 0e02 4FF00003 		mov	r3, #0
 26912 0e06 FB73     		strb	r3, [r7, #15]
 26913              	.L127:
1410:../Libraries/STM32F4xx_StdPeriph_Driver/src/stm32f4xx_can.c ****     }
1411:../Libraries/STM32F4xx_StdPeriph_Driver/src/stm32f4xx_can.c ****   }
1412:../Libraries/STM32F4xx_StdPeriph_Driver/src/stm32f4xx_can.c ****   /* Return the CAN_FLAG status */
1413:../Libraries/STM32F4xx_StdPeriph_Driver/src/stm32f4xx_can.c ****   return  bitstatus;
 26914              		.loc 1 1413 0
 26915 0e08 FB7B     		ldrb	r3, [r7, #15]	@ zero_extendqisi2
1414:../Libraries/STM32F4xx_StdPeriph_Driver/src/stm32f4xx_can.c **** }
 26916              		.loc 1 1414 0
 26917 0e0a 1846     		mov	r0, r3
 26918 0e0c 07F11407 		add	r7, r7, #20
 26919 0e10 BD46     		mov	sp, r7
 26920 0e12 80BC     		pop	{r7}
 26921 0e14 7047     		bx	lr
 26922              		.cfi_endproc
 26923              	.LFE130:
 26925 0e16 00BF     		.align	2
 26926              		.global	CAN_ClearFlag
 26927              		.thumb
 26928              		.thumb_func
 26930              	CAN_ClearFlag:
 26931              	.LFB131:
1415:../Libraries/STM32F4xx_StdPeriph_Driver/src/stm32f4xx_can.c **** 
1416:../Libraries/STM32F4xx_StdPeriph_Driver/src/stm32f4xx_can.c **** /**
1417:../Libraries/STM32F4xx_StdPeriph_Driver/src/stm32f4xx_can.c ****   * @brief  Clears the CAN's pending flags.
1418:../Libraries/STM32F4xx_StdPeriph_Driver/src/stm32f4xx_can.c ****   * @param  CANx: where x can be 1 or 2 to to select the CAN peripheral.
1419:../Libraries/STM32F4xx_StdPeriph_Driver/src/stm32f4xx_can.c ****   * @param  CAN_FLAG: specifies the flag to clear.
1420:../Libraries/STM32F4xx_StdPeriph_Driver/src/stm32f4xx_can.c ****   *          This parameter can be one of the following values:
1421:../Libraries/STM32F4xx_StdPeriph_Driver/src/stm32f4xx_can.c ****   *            @arg CAN_FLAG_RQCP0: Request MailBox0 Flag
1422:../Libraries/STM32F4xx_StdPeriph_Driver/src/stm32f4xx_can.c ****   *            @arg CAN_FLAG_RQCP1: Request MailBox1 Flag
1423:../Libraries/STM32F4xx_StdPeriph_Driver/src/stm32f4xx_can.c ****   *            @arg CAN_FLAG_RQCP2: Request MailBox2 Flag 
1424:../Libraries/STM32F4xx_StdPeriph_Driver/src/stm32f4xx_can.c ****   *            @arg CAN_FLAG_FF0: FIFO 0 Full Flag       
1425:../Libraries/STM32F4xx_StdPeriph_Driver/src/stm32f4xx_can.c ****   *            @arg CAN_FLAG_FOV0: FIFO 0 Overrun Flag  
1426:../Libraries/STM32F4xx_StdPeriph_Driver/src/stm32f4xx_can.c ****   *            @arg CAN_FLAG_FF1: FIFO 1 Full Flag        
1427:../Libraries/STM32F4xx_StdPeriph_Driver/src/stm32f4xx_can.c ****   *            @arg CAN_FLAG_FOV1: FIFO 1 Overrun Flag     
1428:../Libraries/STM32F4xx_StdPeriph_Driver/src/stm32f4xx_can.c ****   *            @arg CAN_FLAG_WKU: Wake up Flag
1429:../Libraries/STM32F4xx_StdPeriph_Driver/src/stm32f4xx_can.c ****   *            @arg CAN_FLAG_SLAK: Sleep acknowledge Flag    
1430:../Libraries/STM32F4xx_StdPeriph_Driver/src/stm32f4xx_can.c ****   *            @arg CAN_FLAG_LEC: Last error code Flag        
1431:../Libraries/STM32F4xx_StdPeriph_Driver/src/stm32f4xx_can.c ****   * @retval None
1432:../Libraries/STM32F4xx_StdPeriph_Driver/src/stm32f4xx_can.c ****   */
1433:../Libraries/STM32F4xx_StdPeriph_Driver/src/stm32f4xx_can.c **** void CAN_ClearFlag(CAN_TypeDef* CANx, uint32_t CAN_FLAG)
1434:../Libraries/STM32F4xx_StdPeriph_Driver/src/stm32f4xx_can.c **** {
 26932              		.loc 1 1434 0
 26933              		.cfi_startproc
 26934              		@ args = 0, pretend = 0, frame = 16
 26935              		@ frame_needed = 1, uses_anonymous_args = 0
 26936              		@ link register save eliminated.
 26937 0e18 80B4     		push	{r7}
 26938              	.LCFI63:
 26939              		.cfi_def_cfa_offset 4
 26940 0e1a 85B0     		sub	sp, sp, #20
 26941              	.LCFI64:
 26942              		.cfi_def_cfa_offset 24
 26943 0e1c 00AF     		add	r7, sp, #0
 26944              		.cfi_offset 7, -4
 26945              	.LCFI65:
 26946              		.cfi_def_cfa_register 7
 26947 0e1e 7860     		str	r0, [r7, #4]
 26948 0e20 3960     		str	r1, [r7, #0]
1435:../Libraries/STM32F4xx_StdPeriph_Driver/src/stm32f4xx_can.c ****   uint32_t flagtmp=0;
 26949              		.loc 1 1435 0
 26950 0e22 4FF00003 		mov	r3, #0
 26951 0e26 FB60     		str	r3, [r7, #12]
1436:../Libraries/STM32F4xx_StdPeriph_Driver/src/stm32f4xx_can.c ****   /* Check the parameters */
1437:../Libraries/STM32F4xx_StdPeriph_Driver/src/stm32f4xx_can.c ****   assert_param(IS_CAN_ALL_PERIPH(CANx));
1438:../Libraries/STM32F4xx_StdPeriph_Driver/src/stm32f4xx_can.c ****   assert_param(IS_CAN_CLEAR_FLAG(CAN_FLAG));
1439:../Libraries/STM32F4xx_StdPeriph_Driver/src/stm32f4xx_can.c ****   
1440:../Libraries/STM32F4xx_StdPeriph_Driver/src/stm32f4xx_can.c ****   if (CAN_FLAG == CAN_FLAG_LEC) /* ESR register */
 26952              		.loc 1 1440 0
 26953 0e28 3A68     		ldr	r2, [r7, #0]
 26954 0e2a 184B     		ldr	r3, .L141
 26955 0e2c 9A42     		cmp	r2, r3
 26956 0e2e 04D1     		bne	.L136
1441:../Libraries/STM32F4xx_StdPeriph_Driver/src/stm32f4xx_can.c ****   {
1442:../Libraries/STM32F4xx_StdPeriph_Driver/src/stm32f4xx_can.c ****     /* Clear the selected CAN flags */
1443:../Libraries/STM32F4xx_StdPeriph_Driver/src/stm32f4xx_can.c ****     CANx->ESR = (uint32_t)RESET;
 26957              		.loc 1 1443 0
 26958 0e30 7B68     		ldr	r3, [r7, #4]
 26959 0e32 4FF00002 		mov	r2, #0
 26960 0e36 9A61     		str	r2, [r3, #24]
 26961 0e38 23E0     		b	.L135
 26962              	.L136:
1444:../Libraries/STM32F4xx_StdPeriph_Driver/src/stm32f4xx_can.c ****   }
1445:../Libraries/STM32F4xx_StdPeriph_Driver/src/stm32f4xx_can.c ****   else /* MSR or TSR or RF0R or RF1R */
1446:../Libraries/STM32F4xx_StdPeriph_Driver/src/stm32f4xx_can.c ****   {
1447:../Libraries/STM32F4xx_StdPeriph_Driver/src/stm32f4xx_can.c ****     flagtmp = CAN_FLAG & 0x000FFFFF;
 26963              		.loc 1 1447 0
 26964 0e3a 3B68     		ldr	r3, [r7, #0]
 26965 0e3c 23F07F43 		bic	r3, r3, #-16777216
 26966 0e40 23F47003 		bic	r3, r3, #15728640
 26967 0e44 FB60     		str	r3, [r7, #12]
1448:../Libraries/STM32F4xx_StdPeriph_Driver/src/stm32f4xx_can.c **** 
1449:../Libraries/STM32F4xx_StdPeriph_Driver/src/stm32f4xx_can.c ****     if ((CAN_FLAG & CAN_FLAGS_RF0R)!=(uint32_t)RESET)
 26968              		.loc 1 1449 0
 26969 0e46 3B68     		ldr	r3, [r7, #0]
 26970 0e48 03F00073 		and	r3, r3, #33554432
 26971 0e4c 002B     		cmp	r3, #0
 26972 0e4e 03D0     		beq	.L138
1450:../Libraries/STM32F4xx_StdPeriph_Driver/src/stm32f4xx_can.c ****     {
1451:../Libraries/STM32F4xx_StdPeriph_Driver/src/stm32f4xx_can.c ****       /* Receive Flags */
1452:../Libraries/STM32F4xx_StdPeriph_Driver/src/stm32f4xx_can.c ****       CANx->RF0R = (uint32_t)(flagtmp);
 26973              		.loc 1 1452 0
 26974 0e50 7B68     		ldr	r3, [r7, #4]
 26975 0e52 FA68     		ldr	r2, [r7, #12]
 26976 0e54 DA60     		str	r2, [r3, #12]
 26977 0e56 14E0     		b	.L135
 26978              	.L138:
1453:../Libraries/STM32F4xx_StdPeriph_Driver/src/stm32f4xx_can.c ****     }
1454:../Libraries/STM32F4xx_StdPeriph_Driver/src/stm32f4xx_can.c ****     else if ((CAN_FLAG & CAN_FLAGS_RF1R)!=(uint32_t)RESET)
 26979              		.loc 1 1454 0
 26980 0e58 3B68     		ldr	r3, [r7, #0]
 26981 0e5a 03F08063 		and	r3, r3, #67108864
 26982 0e5e 002B     		cmp	r3, #0
 26983 0e60 03D0     		beq	.L139
1455:../Libraries/STM32F4xx_StdPeriph_Driver/src/stm32f4xx_can.c ****     {
1456:../Libraries/STM32F4xx_StdPeriph_Driver/src/stm32f4xx_can.c ****       /* Receive Flags */
1457:../Libraries/STM32F4xx_StdPeriph_Driver/src/stm32f4xx_can.c ****       CANx->RF1R = (uint32_t)(flagtmp);
 26984              		.loc 1 1457 0
 26985 0e62 7B68     		ldr	r3, [r7, #4]
 26986 0e64 FA68     		ldr	r2, [r7, #12]
 26987 0e66 1A61     		str	r2, [r3, #16]
 26988 0e68 0BE0     		b	.L135
 26989              	.L139:
1458:../Libraries/STM32F4xx_StdPeriph_Driver/src/stm32f4xx_can.c ****     }
1459:../Libraries/STM32F4xx_StdPeriph_Driver/src/stm32f4xx_can.c ****     else if ((CAN_FLAG & CAN_FLAGS_TSR)!=(uint32_t)RESET)
 26990              		.loc 1 1459 0
 26991 0e6a 3B68     		ldr	r3, [r7, #0]
 26992 0e6c 03F00063 		and	r3, r3, #134217728
 26993 0e70 002B     		cmp	r3, #0
 26994 0e72 03D0     		beq	.L140
1460:../Libraries/STM32F4xx_StdPeriph_Driver/src/stm32f4xx_can.c ****     {
1461:../Libraries/STM32F4xx_StdPeriph_Driver/src/stm32f4xx_can.c ****       /* Transmit Flags */
1462:../Libraries/STM32F4xx_StdPeriph_Driver/src/stm32f4xx_can.c ****       CANx->TSR = (uint32_t)(flagtmp);
 26995              		.loc 1 1462 0
 26996 0e74 7B68     		ldr	r3, [r7, #4]
 26997 0e76 FA68     		ldr	r2, [r7, #12]
 26998 0e78 9A60     		str	r2, [r3, #8]
 26999 0e7a 02E0     		b	.L135
 27000              	.L140:
1463:../Libraries/STM32F4xx_StdPeriph_Driver/src/stm32f4xx_can.c ****     }
1464:../Libraries/STM32F4xx_StdPeriph_Driver/src/stm32f4xx_can.c ****     else /* If((CAN_FLAG & CAN_FLAGS_MSR)!=(uint32_t)RESET) */
1465:../Libraries/STM32F4xx_StdPeriph_Driver/src/stm32f4xx_can.c ****     {
1466:../Libraries/STM32F4xx_StdPeriph_Driver/src/stm32f4xx_can.c ****       /* Operating mode Flags */
1467:../Libraries/STM32F4xx_StdPeriph_Driver/src/stm32f4xx_can.c ****       CANx->MSR = (uint32_t)(flagtmp);
 27001              		.loc 1 1467 0
 27002 0e7c 7B68     		ldr	r3, [r7, #4]
 27003 0e7e FA68     		ldr	r2, [r7, #12]
 27004 0e80 5A60     		str	r2, [r3, #4]
 27005              	.L135:
1468:../Libraries/STM32F4xx_StdPeriph_Driver/src/stm32f4xx_can.c ****     }
1469:../Libraries/STM32F4xx_StdPeriph_Driver/src/stm32f4xx_can.c ****   }
1470:../Libraries/STM32F4xx_StdPeriph_Driver/src/stm32f4xx_can.c **** }
 27006              		.loc 1 1470 0
 27007 0e82 07F11407 		add	r7, r7, #20
 27008 0e86 BD46     		mov	sp, r7
 27009 0e88 80BC     		pop	{r7}
