   1              		.syntax unified
   2              		.cpu cortex-m4
   3              		.fpu softvfp
   4              		.eabi_attribute 20, 1
   5              		.eabi_attribute 21, 1
   6              		.eabi_attribute 23, 3
   7              		.eabi_attribute 24, 1
   8              		.eabi_attribute 25, 1
   9              		.eabi_attribute 26, 1
  10              		.eabi_attribute 30, 6
  11              		.eabi_attribute 18, 4
  12              		.thumb
  13              		.file	"stm32f4xx_cryp_aes.c"
  23              	.Ltext0:
  24              		.file 1 "../Libraries/STM32F4xx_StdPeriph_Driver/src/stm32f4xx_cryp_aes.c"
 24566              		.align	2
 24567              		.global	CRYP_AES_ECB
 24568              		.thumb
 24569              		.thumb_func
 24571              	CRYP_AES_ECB:
 24572              	.LFB110:
   1:../Libraries/STM32F4xx_StdPeriph_Driver/src/stm32f4xx_cryp_aes.c **** /**
   2:../Libraries/STM32F4xx_StdPeriph_Driver/src/stm32f4xx_cryp_aes.c ****   ******************************************************************************
   3:../Libraries/STM32F4xx_StdPeriph_Driver/src/stm32f4xx_cryp_aes.c ****   * @file    stm32f4xx_cryp_aes.c
   4:../Libraries/STM32F4xx_StdPeriph_Driver/src/stm32f4xx_cryp_aes.c ****   * @author  MCD Application Team
   5:../Libraries/STM32F4xx_StdPeriph_Driver/src/stm32f4xx_cryp_aes.c ****   * @version V1.0.2
   6:../Libraries/STM32F4xx_StdPeriph_Driver/src/stm32f4xx_cryp_aes.c ****   * @date    05-March-2012
   7:../Libraries/STM32F4xx_StdPeriph_Driver/src/stm32f4xx_cryp_aes.c ****   * @brief   This file provides high level functions to encrypt and decrypt an 
   8:../Libraries/STM32F4xx_StdPeriph_Driver/src/stm32f4xx_cryp_aes.c ****   *          input message using AES in ECB/CBC/CTR modes.
   9:../Libraries/STM32F4xx_StdPeriph_Driver/src/stm32f4xx_cryp_aes.c ****   *          It uses the stm32f4xx_cryp.c/.h drivers to access the STM32F4xx CRYP
  10:../Libraries/STM32F4xx_StdPeriph_Driver/src/stm32f4xx_cryp_aes.c ****   *          peripheral.
  11:../Libraries/STM32F4xx_StdPeriph_Driver/src/stm32f4xx_cryp_aes.c ****   *
  12:../Libraries/STM32F4xx_StdPeriph_Driver/src/stm32f4xx_cryp_aes.c ****   *  @verbatim
  13:../Libraries/STM32F4xx_StdPeriph_Driver/src/stm32f4xx_cryp_aes.c ****   *
  14:../Libraries/STM32F4xx_StdPeriph_Driver/src/stm32f4xx_cryp_aes.c ****   *          ===================================================================
  15:../Libraries/STM32F4xx_StdPeriph_Driver/src/stm32f4xx_cryp_aes.c ****   *                                   How to use this driver
  16:../Libraries/STM32F4xx_StdPeriph_Driver/src/stm32f4xx_cryp_aes.c ****   *          ===================================================================
  17:../Libraries/STM32F4xx_StdPeriph_Driver/src/stm32f4xx_cryp_aes.c ****   *          1. Enable The CRYP controller clock using 
  18:../Libraries/STM32F4xx_StdPeriph_Driver/src/stm32f4xx_cryp_aes.c ****   *            RCC_AHB2PeriphClockCmd(RCC_AHB2Periph_CRYP, ENABLE); function.
  19:../Libraries/STM32F4xx_StdPeriph_Driver/src/stm32f4xx_cryp_aes.c ****   *
  20:../Libraries/STM32F4xx_StdPeriph_Driver/src/stm32f4xx_cryp_aes.c ****   *          2. Encrypt and decrypt using AES in ECB Mode using CRYP_AES_ECB()
  21:../Libraries/STM32F4xx_StdPeriph_Driver/src/stm32f4xx_cryp_aes.c ****   *             function.
  22:../Libraries/STM32F4xx_StdPeriph_Driver/src/stm32f4xx_cryp_aes.c ****   *
  23:../Libraries/STM32F4xx_StdPeriph_Driver/src/stm32f4xx_cryp_aes.c ****   *          3. Encrypt and decrypt using AES in CBC Mode using CRYP_AES_CBC()
  24:../Libraries/STM32F4xx_StdPeriph_Driver/src/stm32f4xx_cryp_aes.c ****   *             function.
  25:../Libraries/STM32F4xx_StdPeriph_Driver/src/stm32f4xx_cryp_aes.c ****   *
  26:../Libraries/STM32F4xx_StdPeriph_Driver/src/stm32f4xx_cryp_aes.c ****   *          4. Encrypt and decrypt using AES in CTR Mode using CRYP_AES_CTR()
  27:../Libraries/STM32F4xx_StdPeriph_Driver/src/stm32f4xx_cryp_aes.c ****   *             function.
  28:../Libraries/STM32F4xx_StdPeriph_Driver/src/stm32f4xx_cryp_aes.c ****   *
  29:../Libraries/STM32F4xx_StdPeriph_Driver/src/stm32f4xx_cryp_aes.c ****   *  @endverbatim
  30:../Libraries/STM32F4xx_StdPeriph_Driver/src/stm32f4xx_cryp_aes.c ****   *
  31:../Libraries/STM32F4xx_StdPeriph_Driver/src/stm32f4xx_cryp_aes.c ****   ******************************************************************************
  32:../Libraries/STM32F4xx_StdPeriph_Driver/src/stm32f4xx_cryp_aes.c ****   * @attention
  33:../Libraries/STM32F4xx_StdPeriph_Driver/src/stm32f4xx_cryp_aes.c ****   *
  34:../Libraries/STM32F4xx_StdPeriph_Driver/src/stm32f4xx_cryp_aes.c ****   * <h2><center>&copy; COPYRIGHT 2012 STMicroelectronics</center></h2>
  35:../Libraries/STM32F4xx_StdPeriph_Driver/src/stm32f4xx_cryp_aes.c ****   *
  36:../Libraries/STM32F4xx_StdPeriph_Driver/src/stm32f4xx_cryp_aes.c ****   * Licensed under MCD-ST Liberty SW License Agreement V2, (the "License");
  37:../Libraries/STM32F4xx_StdPeriph_Driver/src/stm32f4xx_cryp_aes.c ****   * You may not use this file except in compliance with the License.
  38:../Libraries/STM32F4xx_StdPeriph_Driver/src/stm32f4xx_cryp_aes.c ****   * You may obtain a copy of the License at:
  39:../Libraries/STM32F4xx_StdPeriph_Driver/src/stm32f4xx_cryp_aes.c ****   *
  40:../Libraries/STM32F4xx_StdPeriph_Driver/src/stm32f4xx_cryp_aes.c ****   *        http://www.st.com/software_license_agreement_liberty_v2
  41:../Libraries/STM32F4xx_StdPeriph_Driver/src/stm32f4xx_cryp_aes.c ****   *
  42:../Libraries/STM32F4xx_StdPeriph_Driver/src/stm32f4xx_cryp_aes.c ****   * Unless required by applicable law or agreed to in writing, software 
  43:../Libraries/STM32F4xx_StdPeriph_Driver/src/stm32f4xx_cryp_aes.c ****   * distributed under the License is distributed on an "AS IS" BASIS, 
  44:../Libraries/STM32F4xx_StdPeriph_Driver/src/stm32f4xx_cryp_aes.c ****   * WITHOUT WARRANTIES OR CONDITIONS OF ANY KIND, either express or implied.
  45:../Libraries/STM32F4xx_StdPeriph_Driver/src/stm32f4xx_cryp_aes.c ****   * See the License for the specific language governing permissions and
  46:../Libraries/STM32F4xx_StdPeriph_Driver/src/stm32f4xx_cryp_aes.c ****   * limitations under the License.
  47:../Libraries/STM32F4xx_StdPeriph_Driver/src/stm32f4xx_cryp_aes.c ****   *
  48:../Libraries/STM32F4xx_StdPeriph_Driver/src/stm32f4xx_cryp_aes.c ****   ******************************************************************************
  49:../Libraries/STM32F4xx_StdPeriph_Driver/src/stm32f4xx_cryp_aes.c ****   */
  50:../Libraries/STM32F4xx_StdPeriph_Driver/src/stm32f4xx_cryp_aes.c **** 
  51:../Libraries/STM32F4xx_StdPeriph_Driver/src/stm32f4xx_cryp_aes.c **** /* Includes ------------------------------------------------------------------*/
  52:../Libraries/STM32F4xx_StdPeriph_Driver/src/stm32f4xx_cryp_aes.c **** #include "stm32f4xx_cryp.h"
  53:../Libraries/STM32F4xx_StdPeriph_Driver/src/stm32f4xx_cryp_aes.c **** 
  54:../Libraries/STM32F4xx_StdPeriph_Driver/src/stm32f4xx_cryp_aes.c **** /** @addtogroup STM32F4xx_StdPeriph_Driver
  55:../Libraries/STM32F4xx_StdPeriph_Driver/src/stm32f4xx_cryp_aes.c ****   * @{
  56:../Libraries/STM32F4xx_StdPeriph_Driver/src/stm32f4xx_cryp_aes.c ****   */
  57:../Libraries/STM32F4xx_StdPeriph_Driver/src/stm32f4xx_cryp_aes.c **** 
  58:../Libraries/STM32F4xx_StdPeriph_Driver/src/stm32f4xx_cryp_aes.c **** /** @defgroup CRYP 
  59:../Libraries/STM32F4xx_StdPeriph_Driver/src/stm32f4xx_cryp_aes.c ****   * @brief CRYP driver modules
  60:../Libraries/STM32F4xx_StdPeriph_Driver/src/stm32f4xx_cryp_aes.c ****   * @{
  61:../Libraries/STM32F4xx_StdPeriph_Driver/src/stm32f4xx_cryp_aes.c ****   */
  62:../Libraries/STM32F4xx_StdPeriph_Driver/src/stm32f4xx_cryp_aes.c **** 
  63:../Libraries/STM32F4xx_StdPeriph_Driver/src/stm32f4xx_cryp_aes.c **** /* Private typedef -----------------------------------------------------------*/
  64:../Libraries/STM32F4xx_StdPeriph_Driver/src/stm32f4xx_cryp_aes.c **** /* Private define ------------------------------------------------------------*/
  65:../Libraries/STM32F4xx_StdPeriph_Driver/src/stm32f4xx_cryp_aes.c **** #define AESBUSY_TIMEOUT    ((uint32_t) 0x00010000)
  66:../Libraries/STM32F4xx_StdPeriph_Driver/src/stm32f4xx_cryp_aes.c **** 
  67:../Libraries/STM32F4xx_StdPeriph_Driver/src/stm32f4xx_cryp_aes.c **** /* Private macro -------------------------------------------------------------*/
  68:../Libraries/STM32F4xx_StdPeriph_Driver/src/stm32f4xx_cryp_aes.c **** /* Private variables ---------------------------------------------------------*/
  69:../Libraries/STM32F4xx_StdPeriph_Driver/src/stm32f4xx_cryp_aes.c **** /* Private function prototypes -----------------------------------------------*/
  70:../Libraries/STM32F4xx_StdPeriph_Driver/src/stm32f4xx_cryp_aes.c **** /* Private functions ---------------------------------------------------------*/
  71:../Libraries/STM32F4xx_StdPeriph_Driver/src/stm32f4xx_cryp_aes.c **** 
  72:../Libraries/STM32F4xx_StdPeriph_Driver/src/stm32f4xx_cryp_aes.c **** /** @defgroup CRYP_Private_Functions
  73:../Libraries/STM32F4xx_StdPeriph_Driver/src/stm32f4xx_cryp_aes.c ****   * @{
  74:../Libraries/STM32F4xx_StdPeriph_Driver/src/stm32f4xx_cryp_aes.c ****   */ 
  75:../Libraries/STM32F4xx_StdPeriph_Driver/src/stm32f4xx_cryp_aes.c **** 
  76:../Libraries/STM32F4xx_StdPeriph_Driver/src/stm32f4xx_cryp_aes.c **** /** @defgroup CRYP_Group6 High Level AES functions
  77:../Libraries/STM32F4xx_StdPeriph_Driver/src/stm32f4xx_cryp_aes.c ****  *  @brief   High Level AES functions 
  78:../Libraries/STM32F4xx_StdPeriph_Driver/src/stm32f4xx_cryp_aes.c ****  *
  79:../Libraries/STM32F4xx_StdPeriph_Driver/src/stm32f4xx_cryp_aes.c **** @verbatim   
  80:../Libraries/STM32F4xx_StdPeriph_Driver/src/stm32f4xx_cryp_aes.c ****  ===============================================================================
  81:../Libraries/STM32F4xx_StdPeriph_Driver/src/stm32f4xx_cryp_aes.c ****                           High Level AES functions
  82:../Libraries/STM32F4xx_StdPeriph_Driver/src/stm32f4xx_cryp_aes.c ****  ===============================================================================
  83:../Libraries/STM32F4xx_StdPeriph_Driver/src/stm32f4xx_cryp_aes.c **** 
  84:../Libraries/STM32F4xx_StdPeriph_Driver/src/stm32f4xx_cryp_aes.c **** 
  85:../Libraries/STM32F4xx_StdPeriph_Driver/src/stm32f4xx_cryp_aes.c **** @endverbatim
  86:../Libraries/STM32F4xx_StdPeriph_Driver/src/stm32f4xx_cryp_aes.c ****   * @{
  87:../Libraries/STM32F4xx_StdPeriph_Driver/src/stm32f4xx_cryp_aes.c ****   */
  88:../Libraries/STM32F4xx_StdPeriph_Driver/src/stm32f4xx_cryp_aes.c **** 
  89:../Libraries/STM32F4xx_StdPeriph_Driver/src/stm32f4xx_cryp_aes.c **** /**
  90:../Libraries/STM32F4xx_StdPeriph_Driver/src/stm32f4xx_cryp_aes.c ****   * @brief  Encrypt and decrypt using AES in ECB Mode
  91:../Libraries/STM32F4xx_StdPeriph_Driver/src/stm32f4xx_cryp_aes.c ****   * @param  Mode: encryption or decryption Mode.
  92:../Libraries/STM32F4xx_StdPeriph_Driver/src/stm32f4xx_cryp_aes.c ****   *          This parameter can be one of the following values:
  93:../Libraries/STM32F4xx_StdPeriph_Driver/src/stm32f4xx_cryp_aes.c ****   *            @arg MODE_ENCRYPT: Encryption
  94:../Libraries/STM32F4xx_StdPeriph_Driver/src/stm32f4xx_cryp_aes.c ****   *            @arg MODE_DECRYPT: Decryption
  95:../Libraries/STM32F4xx_StdPeriph_Driver/src/stm32f4xx_cryp_aes.c ****   * @param  Key: Key used for AES algorithm.
  96:../Libraries/STM32F4xx_StdPeriph_Driver/src/stm32f4xx_cryp_aes.c ****   * @param  Keysize: length of the Key, must be a 128, 192 or 256.
  97:../Libraries/STM32F4xx_StdPeriph_Driver/src/stm32f4xx_cryp_aes.c ****   * @param  Input: pointer to the Input buffer.
  98:../Libraries/STM32F4xx_StdPeriph_Driver/src/stm32f4xx_cryp_aes.c ****   * @param  Ilength: length of the Input buffer, must be a multiple of 16.
  99:../Libraries/STM32F4xx_StdPeriph_Driver/src/stm32f4xx_cryp_aes.c ****   * @param  Output: pointer to the returned buffer.
 100:../Libraries/STM32F4xx_StdPeriph_Driver/src/stm32f4xx_cryp_aes.c ****   * @retval An ErrorStatus enumeration value:
 101:../Libraries/STM32F4xx_StdPeriph_Driver/src/stm32f4xx_cryp_aes.c ****   *          - SUCCESS: Operation done
 102:../Libraries/STM32F4xx_StdPeriph_Driver/src/stm32f4xx_cryp_aes.c ****   *          - ERROR: Operation failed
 103:../Libraries/STM32F4xx_StdPeriph_Driver/src/stm32f4xx_cryp_aes.c ****   */
 104:../Libraries/STM32F4xx_StdPeriph_Driver/src/stm32f4xx_cryp_aes.c **** ErrorStatus CRYP_AES_ECB(uint8_t Mode, uint8_t* Key, uint16_t Keysize,
 105:../Libraries/STM32F4xx_StdPeriph_Driver/src/stm32f4xx_cryp_aes.c ****                          uint8_t* Input, uint32_t Ilength, uint8_t* Output)
 106:../Libraries/STM32F4xx_StdPeriph_Driver/src/stm32f4xx_cryp_aes.c **** {
 24573              		.loc 1 106 0
 24574              		.cfi_startproc
 24575              		@ args = 8, pretend = 0, frame = 232
 24576              		@ frame_needed = 1, uses_anonymous_args = 0
 24577 0000 90B5     		push	{r4, r7, lr}
 24578              	.LCFI0:
 24579              		.cfi_def_cfa_offset 12
 24580 0002 BBB0     		sub	sp, sp, #236
 24581              	.LCFI1:
 24582              		.cfi_def_cfa_offset 248
 24583 0004 00AF     		add	r7, sp, #0
 24584              		.cfi_offset 14, -4
 24585              		.cfi_offset 7, -8
 24586              		.cfi_offset 4, -12
 24587              	.LCFI2:
 24588              		.cfi_def_cfa_register 7
 24589 0006 B960     		str	r1, [r7, #8]
 24590 0008 3B60     		str	r3, [r7, #0]
 24591 000a 0346     		mov	r3, r0
 24592 000c FB73     		strb	r3, [r7, #15]
 24593 000e 1346     		mov	r3, r2	@ movhi
 24594 0010 FB80     		strh	r3, [r7, #6]	@ movhi
 107:../Libraries/STM32F4xx_StdPeriph_Driver/src/stm32f4xx_cryp_aes.c ****   CRYP_InitTypeDef AES_CRYP_InitStructure;
 108:../Libraries/STM32F4xx_StdPeriph_Driver/src/stm32f4xx_cryp_aes.c ****   CRYP_KeyInitTypeDef AES_CRYP_KeyInitStructure;
 109:../Libraries/STM32F4xx_StdPeriph_Driver/src/stm32f4xx_cryp_aes.c ****   __IO uint32_t counter = 0;
 24595              		.loc 1 109 0
 24596 0012 4FF00003 		mov	r3, #0
 24597 0016 7B61     		str	r3, [r7, #20]
 110:../Libraries/STM32F4xx_StdPeriph_Driver/src/stm32f4xx_cryp_aes.c ****   uint32_t busystatus = 0;
 24598              		.loc 1 110 0
 24599 0018 4FF00003 		mov	r3, #0
 24600 001c C7F8D430 		str	r3, [r7, #212]
 111:../Libraries/STM32F4xx_StdPeriph_Driver/src/stm32f4xx_cryp_aes.c ****   ErrorStatus status = SUCCESS;
 24601              		.loc 1 111 0
 24602 0020 4FF00103 		mov	r3, #1
 24603 0024 87F8E730 		strb	r3, [r7, #231]
 112:../Libraries/STM32F4xx_StdPeriph_Driver/src/stm32f4xx_cryp_aes.c ****   uint32_t keyaddr    = (uint32_t)Key;
 24604              		.loc 1 112 0
 24605 0028 BB68     		ldr	r3, [r7, #8]
 24606 002a C7F8D030 		str	r3, [r7, #208]
 113:../Libraries/STM32F4xx_StdPeriph_Driver/src/stm32f4xx_cryp_aes.c ****   uint32_t inputaddr  = (uint32_t)Input;
 24607              		.loc 1 113 0
 24608 002e 3B68     		ldr	r3, [r7, #0]
 24609 0030 C7F8E030 		str	r3, [r7, #224]
 114:../Libraries/STM32F4xx_StdPeriph_Driver/src/stm32f4xx_cryp_aes.c ****   uint32_t outputaddr = (uint32_t)Output;
 24610              		.loc 1 114 0
 24611 0034 D7F8FC30 		ldr	r3, [r7, #252]
 24612 0038 C7F8DC30 		str	r3, [r7, #220]
 115:../Libraries/STM32F4xx_StdPeriph_Driver/src/stm32f4xx_cryp_aes.c ****   uint32_t i = 0;
 24613              		.loc 1 115 0
 24614 003c 4FF00003 		mov	r3, #0
 24615 0040 C7F8D830 		str	r3, [r7, #216]
 116:../Libraries/STM32F4xx_StdPeriph_Driver/src/stm32f4xx_cryp_aes.c **** 
 117:../Libraries/STM32F4xx_StdPeriph_Driver/src/stm32f4xx_cryp_aes.c ****   /* Crypto structures initialisation*/
 118:../Libraries/STM32F4xx_StdPeriph_Driver/src/stm32f4xx_cryp_aes.c ****   CRYP_KeyStructInit(&AES_CRYP_KeyInitStructure);
 24616              		.loc 1 118 0
 24617 0044 07F11803 		add	r3, r7, #24
 24618 0048 1846     		mov	r0, r3
 24619 004a FFF7FEFF 		bl	CRYP_KeyStructInit
 119:../Libraries/STM32F4xx_StdPeriph_Driver/src/stm32f4xx_cryp_aes.c **** 
 120:../Libraries/STM32F4xx_StdPeriph_Driver/src/stm32f4xx_cryp_aes.c ****   switch(Keysize)
 24620              		.loc 1 120 0
 24621 004e FB88     		ldrh	r3, [r7, #6]
 24622 0050 C02B     		cmp	r3, #192
 24623 0052 50D0     		beq	.L4
 24624 0054 B3F5807F 		cmp	r3, #256
 24625 0058 00F0BD80 		beq	.L5
 24626 005c 802B     		cmp	r3, #128
 24627 005e 40F03081 		bne	.L19
 24628              	.L3:
 121:../Libraries/STM32F4xx_StdPeriph_Driver/src/stm32f4xx_cryp_aes.c ****   {
 122:../Libraries/STM32F4xx_StdPeriph_Driver/src/stm32f4xx_cryp_aes.c ****     case 128:
 123:../Libraries/STM32F4xx_StdPeriph_Driver/src/stm32f4xx_cryp_aes.c ****     AES_CRYP_InitStructure.CRYP_KeySize = CRYP_KeySize_128b;
 24629              		.loc 1 123 0
 24630 0062 4FF00003 		mov	r3, #0
 24631 0066 FB87     		strh	r3, [r7, #62]	@ movhi
 124:../Libraries/STM32F4xx_StdPeriph_Driver/src/stm32f4xx_cryp_aes.c ****     AES_CRYP_KeyInitStructure.CRYP_Key2Left = __REV(*(uint32_t*)(keyaddr));
 24632              		.loc 1 124 0
 24633 0068 D7F8D030 		ldr	r3, [r7, #208]
 24634 006c 1B68     		ldr	r3, [r3, #0]
 24635 006e C7F8CC30 		str	r3, [r7, #204]
 24636              	.LBB126:
 24637              	.LBB127:
   1:/home/junpei/workspace/arm/F4_Discovery_Template/Libraries/CMSIS/Include/core_cmInstr.h **** /**************************************************************************//**
   2:/home/junpei/workspace/arm/F4_Discovery_Template/Libraries/CMSIS/Include/core_cmInstr.h ****  * @file     core_cmInstr.h
   3:/home/junpei/workspace/arm/F4_Discovery_Template/Libraries/CMSIS/Include/core_cmInstr.h ****  * @brief    CMSIS Cortex-M Core Instruction Access Header File
   4:/home/junpei/workspace/arm/F4_Discovery_Template/Libraries/CMSIS/Include/core_cmInstr.h ****  * @version  V2.10
   5:/home/junpei/workspace/arm/F4_Discovery_Template/Libraries/CMSIS/Include/core_cmInstr.h ****  * @date     19. July 2011
   6:/home/junpei/workspace/arm/F4_Discovery_Template/Libraries/CMSIS/Include/core_cmInstr.h ****  *
   7:/home/junpei/workspace/arm/F4_Discovery_Template/Libraries/CMSIS/Include/core_cmInstr.h ****  * @note
   8:/home/junpei/workspace/arm/F4_Discovery_Template/Libraries/CMSIS/Include/core_cmInstr.h ****  * Copyright (C) 2009-2011 ARM Limited. All rights reserved.
   9:/home/junpei/workspace/arm/F4_Discovery_Template/Libraries/CMSIS/Include/core_cmInstr.h ****  *
  10:/home/junpei/workspace/arm/F4_Discovery_Template/Libraries/CMSIS/Include/core_cmInstr.h ****  * @par
  11:/home/junpei/workspace/arm/F4_Discovery_Template/Libraries/CMSIS/Include/core_cmInstr.h ****  * ARM Limited (ARM) is supplying this software for use with Cortex-M 
  12:/home/junpei/workspace/arm/F4_Discovery_Template/Libraries/CMSIS/Include/core_cmInstr.h ****  * processor based microcontrollers.  This file can be freely distributed 
  13:/home/junpei/workspace/arm/F4_Discovery_Template/Libraries/CMSIS/Include/core_cmInstr.h ****  * within development tools that are supporting such ARM based processors. 
  14:/home/junpei/workspace/arm/F4_Discovery_Template/Libraries/CMSIS/Include/core_cmInstr.h ****  *
  15:/home/junpei/workspace/arm/F4_Discovery_Template/Libraries/CMSIS/Include/core_cmInstr.h ****  * @par
  16:/home/junpei/workspace/arm/F4_Discovery_Template/Libraries/CMSIS/Include/core_cmInstr.h ****  * THIS SOFTWARE IS PROVIDED "AS IS".  NO WARRANTIES, WHETHER EXPRESS, IMPLIED
  17:/home/junpei/workspace/arm/F4_Discovery_Template/Libraries/CMSIS/Include/core_cmInstr.h ****  * OR STATUTORY, INCLUDING, BUT NOT LIMITED TO, IMPLIED WARRANTIES OF
  18:/home/junpei/workspace/arm/F4_Discovery_Template/Libraries/CMSIS/Include/core_cmInstr.h ****  * MERCHANTABILITY AND FITNESS FOR A PARTICULAR PURPOSE APPLY TO THIS SOFTWARE.
  19:/home/junpei/workspace/arm/F4_Discovery_Template/Libraries/CMSIS/Include/core_cmInstr.h ****  * ARM SHALL NOT, IN ANY CIRCUMSTANCES, BE LIABLE FOR SPECIAL, INCIDENTAL, OR
  20:/home/junpei/workspace/arm/F4_Discovery_Template/Libraries/CMSIS/Include/core_cmInstr.h ****  * CONSEQUENTIAL DAMAGES, FOR ANY REASON WHATSOEVER.
  21:/home/junpei/workspace/arm/F4_Discovery_Template/Libraries/CMSIS/Include/core_cmInstr.h ****  *
  22:/home/junpei/workspace/arm/F4_Discovery_Template/Libraries/CMSIS/Include/core_cmInstr.h ****  ******************************************************************************/
  23:/home/junpei/workspace/arm/F4_Discovery_Template/Libraries/CMSIS/Include/core_cmInstr.h **** 
  24:/home/junpei/workspace/arm/F4_Discovery_Template/Libraries/CMSIS/Include/core_cmInstr.h **** #ifndef __CORE_CMINSTR_H
  25:/home/junpei/workspace/arm/F4_Discovery_Template/Libraries/CMSIS/Include/core_cmInstr.h **** #define __CORE_CMINSTR_H
  26:/home/junpei/workspace/arm/F4_Discovery_Template/Libraries/CMSIS/Include/core_cmInstr.h **** 
  27:/home/junpei/workspace/arm/F4_Discovery_Template/Libraries/CMSIS/Include/core_cmInstr.h **** 
  28:/home/junpei/workspace/arm/F4_Discovery_Template/Libraries/CMSIS/Include/core_cmInstr.h **** /* ##########################  Core Instruction Access  ######################### */
  29:/home/junpei/workspace/arm/F4_Discovery_Template/Libraries/CMSIS/Include/core_cmInstr.h **** /** \defgroup CMSIS_Core_InstructionInterface CMSIS Core Instruction Interface
  30:/home/junpei/workspace/arm/F4_Discovery_Template/Libraries/CMSIS/Include/core_cmInstr.h ****   Access to dedicated instructions
  31:/home/junpei/workspace/arm/F4_Discovery_Template/Libraries/CMSIS/Include/core_cmInstr.h ****   @{
  32:/home/junpei/workspace/arm/F4_Discovery_Template/Libraries/CMSIS/Include/core_cmInstr.h **** */
  33:/home/junpei/workspace/arm/F4_Discovery_Template/Libraries/CMSIS/Include/core_cmInstr.h **** 
  34:/home/junpei/workspace/arm/F4_Discovery_Template/Libraries/CMSIS/Include/core_cmInstr.h **** #if   defined ( __CC_ARM ) /*------------------RealView Compiler -----------------*/
  35:/home/junpei/workspace/arm/F4_Discovery_Template/Libraries/CMSIS/Include/core_cmInstr.h **** /* ARM armcc specific functions */
  36:/home/junpei/workspace/arm/F4_Discovery_Template/Libraries/CMSIS/Include/core_cmInstr.h **** 
  37:/home/junpei/workspace/arm/F4_Discovery_Template/Libraries/CMSIS/Include/core_cmInstr.h **** #if (__ARMCC_VERSION < 400677)
  38:/home/junpei/workspace/arm/F4_Discovery_Template/Libraries/CMSIS/Include/core_cmInstr.h ****   #error "Please use ARM Compiler Toolchain V4.0.677 or later!"
  39:/home/junpei/workspace/arm/F4_Discovery_Template/Libraries/CMSIS/Include/core_cmInstr.h **** #endif
  40:/home/junpei/workspace/arm/F4_Discovery_Template/Libraries/CMSIS/Include/core_cmInstr.h **** 
  41:/home/junpei/workspace/arm/F4_Discovery_Template/Libraries/CMSIS/Include/core_cmInstr.h **** 
  42:/home/junpei/workspace/arm/F4_Discovery_Template/Libraries/CMSIS/Include/core_cmInstr.h **** /** \brief  No Operation
  43:/home/junpei/workspace/arm/F4_Discovery_Template/Libraries/CMSIS/Include/core_cmInstr.h **** 
  44:/home/junpei/workspace/arm/F4_Discovery_Template/Libraries/CMSIS/Include/core_cmInstr.h ****     No Operation does nothing. This instruction can be used for code alignment purposes.
  45:/home/junpei/workspace/arm/F4_Discovery_Template/Libraries/CMSIS/Include/core_cmInstr.h ****  */
  46:/home/junpei/workspace/arm/F4_Discovery_Template/Libraries/CMSIS/Include/core_cmInstr.h **** #define __NOP                             __nop
  47:/home/junpei/workspace/arm/F4_Discovery_Template/Libraries/CMSIS/Include/core_cmInstr.h **** 
  48:/home/junpei/workspace/arm/F4_Discovery_Template/Libraries/CMSIS/Include/core_cmInstr.h **** 
  49:/home/junpei/workspace/arm/F4_Discovery_Template/Libraries/CMSIS/Include/core_cmInstr.h **** /** \brief  Wait For Interrupt
  50:/home/junpei/workspace/arm/F4_Discovery_Template/Libraries/CMSIS/Include/core_cmInstr.h **** 
  51:/home/junpei/workspace/arm/F4_Discovery_Template/Libraries/CMSIS/Include/core_cmInstr.h ****     Wait For Interrupt is a hint instruction that suspends execution
  52:/home/junpei/workspace/arm/F4_Discovery_Template/Libraries/CMSIS/Include/core_cmInstr.h ****     until one of a number of events occurs.
  53:/home/junpei/workspace/arm/F4_Discovery_Template/Libraries/CMSIS/Include/core_cmInstr.h ****  */
  54:/home/junpei/workspace/arm/F4_Discovery_Template/Libraries/CMSIS/Include/core_cmInstr.h **** #define __WFI                             __wfi
  55:/home/junpei/workspace/arm/F4_Discovery_Template/Libraries/CMSIS/Include/core_cmInstr.h **** 
  56:/home/junpei/workspace/arm/F4_Discovery_Template/Libraries/CMSIS/Include/core_cmInstr.h **** 
  57:/home/junpei/workspace/arm/F4_Discovery_Template/Libraries/CMSIS/Include/core_cmInstr.h **** /** \brief  Wait For Event
  58:/home/junpei/workspace/arm/F4_Discovery_Template/Libraries/CMSIS/Include/core_cmInstr.h **** 
  59:/home/junpei/workspace/arm/F4_Discovery_Template/Libraries/CMSIS/Include/core_cmInstr.h ****     Wait For Event is a hint instruction that permits the processor to enter
  60:/home/junpei/workspace/arm/F4_Discovery_Template/Libraries/CMSIS/Include/core_cmInstr.h ****     a low-power state until one of a number of events occurs.
  61:/home/junpei/workspace/arm/F4_Discovery_Template/Libraries/CMSIS/Include/core_cmInstr.h ****  */
  62:/home/junpei/workspace/arm/F4_Discovery_Template/Libraries/CMSIS/Include/core_cmInstr.h **** #define __WFE                             __wfe
  63:/home/junpei/workspace/arm/F4_Discovery_Template/Libraries/CMSIS/Include/core_cmInstr.h **** 
  64:/home/junpei/workspace/arm/F4_Discovery_Template/Libraries/CMSIS/Include/core_cmInstr.h **** 
  65:/home/junpei/workspace/arm/F4_Discovery_Template/Libraries/CMSIS/Include/core_cmInstr.h **** /** \brief  Send Event
  66:/home/junpei/workspace/arm/F4_Discovery_Template/Libraries/CMSIS/Include/core_cmInstr.h **** 
  67:/home/junpei/workspace/arm/F4_Discovery_Template/Libraries/CMSIS/Include/core_cmInstr.h ****     Send Event is a hint instruction. It causes an event to be signaled to the CPU.
  68:/home/junpei/workspace/arm/F4_Discovery_Template/Libraries/CMSIS/Include/core_cmInstr.h ****  */
  69:/home/junpei/workspace/arm/F4_Discovery_Template/Libraries/CMSIS/Include/core_cmInstr.h **** #define __SEV                             __sev
  70:/home/junpei/workspace/arm/F4_Discovery_Template/Libraries/CMSIS/Include/core_cmInstr.h **** 
  71:/home/junpei/workspace/arm/F4_Discovery_Template/Libraries/CMSIS/Include/core_cmInstr.h **** 
  72:/home/junpei/workspace/arm/F4_Discovery_Template/Libraries/CMSIS/Include/core_cmInstr.h **** /** \brief  Instruction Synchronization Barrier
  73:/home/junpei/workspace/arm/F4_Discovery_Template/Libraries/CMSIS/Include/core_cmInstr.h **** 
  74:/home/junpei/workspace/arm/F4_Discovery_Template/Libraries/CMSIS/Include/core_cmInstr.h ****     Instruction Synchronization Barrier flushes the pipeline in the processor, 
  75:/home/junpei/workspace/arm/F4_Discovery_Template/Libraries/CMSIS/Include/core_cmInstr.h ****     so that all instructions following the ISB are fetched from cache or 
  76:/home/junpei/workspace/arm/F4_Discovery_Template/Libraries/CMSIS/Include/core_cmInstr.h ****     memory, after the instruction has been completed.
  77:/home/junpei/workspace/arm/F4_Discovery_Template/Libraries/CMSIS/Include/core_cmInstr.h ****  */
  78:/home/junpei/workspace/arm/F4_Discovery_Template/Libraries/CMSIS/Include/core_cmInstr.h **** #define __ISB()                           __isb(0xF)
  79:/home/junpei/workspace/arm/F4_Discovery_Template/Libraries/CMSIS/Include/core_cmInstr.h **** 
  80:/home/junpei/workspace/arm/F4_Discovery_Template/Libraries/CMSIS/Include/core_cmInstr.h **** 
  81:/home/junpei/workspace/arm/F4_Discovery_Template/Libraries/CMSIS/Include/core_cmInstr.h **** /** \brief  Data Synchronization Barrier
  82:/home/junpei/workspace/arm/F4_Discovery_Template/Libraries/CMSIS/Include/core_cmInstr.h **** 
  83:/home/junpei/workspace/arm/F4_Discovery_Template/Libraries/CMSIS/Include/core_cmInstr.h ****     This function acts as a special kind of Data Memory Barrier. 
  84:/home/junpei/workspace/arm/F4_Discovery_Template/Libraries/CMSIS/Include/core_cmInstr.h ****     It completes when all explicit memory accesses before this instruction complete.
  85:/home/junpei/workspace/arm/F4_Discovery_Template/Libraries/CMSIS/Include/core_cmInstr.h ****  */
  86:/home/junpei/workspace/arm/F4_Discovery_Template/Libraries/CMSIS/Include/core_cmInstr.h **** #define __DSB()                           __dsb(0xF)
  87:/home/junpei/workspace/arm/F4_Discovery_Template/Libraries/CMSIS/Include/core_cmInstr.h **** 
  88:/home/junpei/workspace/arm/F4_Discovery_Template/Libraries/CMSIS/Include/core_cmInstr.h **** 
  89:/home/junpei/workspace/arm/F4_Discovery_Template/Libraries/CMSIS/Include/core_cmInstr.h **** /** \brief  Data Memory Barrier
  90:/home/junpei/workspace/arm/F4_Discovery_Template/Libraries/CMSIS/Include/core_cmInstr.h **** 
  91:/home/junpei/workspace/arm/F4_Discovery_Template/Libraries/CMSIS/Include/core_cmInstr.h ****     This function ensures the apparent order of the explicit memory operations before 
  92:/home/junpei/workspace/arm/F4_Discovery_Template/Libraries/CMSIS/Include/core_cmInstr.h ****     and after the instruction, without ensuring their completion.
  93:/home/junpei/workspace/arm/F4_Discovery_Template/Libraries/CMSIS/Include/core_cmInstr.h ****  */
  94:/home/junpei/workspace/arm/F4_Discovery_Template/Libraries/CMSIS/Include/core_cmInstr.h **** #define __DMB()                           __dmb(0xF)
  95:/home/junpei/workspace/arm/F4_Discovery_Template/Libraries/CMSIS/Include/core_cmInstr.h **** 
  96:/home/junpei/workspace/arm/F4_Discovery_Template/Libraries/CMSIS/Include/core_cmInstr.h **** 
  97:/home/junpei/workspace/arm/F4_Discovery_Template/Libraries/CMSIS/Include/core_cmInstr.h **** /** \brief  Reverse byte order (32 bit)
  98:/home/junpei/workspace/arm/F4_Discovery_Template/Libraries/CMSIS/Include/core_cmInstr.h **** 
  99:/home/junpei/workspace/arm/F4_Discovery_Template/Libraries/CMSIS/Include/core_cmInstr.h ****     This function reverses the byte order in integer value.
 100:/home/junpei/workspace/arm/F4_Discovery_Template/Libraries/CMSIS/Include/core_cmInstr.h **** 
 101:/home/junpei/workspace/arm/F4_Discovery_Template/Libraries/CMSIS/Include/core_cmInstr.h ****     \param [in]    value  Value to reverse
 102:/home/junpei/workspace/arm/F4_Discovery_Template/Libraries/CMSIS/Include/core_cmInstr.h ****     \return               Reversed value
 103:/home/junpei/workspace/arm/F4_Discovery_Template/Libraries/CMSIS/Include/core_cmInstr.h ****  */
 104:/home/junpei/workspace/arm/F4_Discovery_Template/Libraries/CMSIS/Include/core_cmInstr.h **** #define __REV                             __rev
 105:/home/junpei/workspace/arm/F4_Discovery_Template/Libraries/CMSIS/Include/core_cmInstr.h **** 
 106:/home/junpei/workspace/arm/F4_Discovery_Template/Libraries/CMSIS/Include/core_cmInstr.h **** 
 107:/home/junpei/workspace/arm/F4_Discovery_Template/Libraries/CMSIS/Include/core_cmInstr.h **** /** \brief  Reverse byte order (16 bit)
 108:/home/junpei/workspace/arm/F4_Discovery_Template/Libraries/CMSIS/Include/core_cmInstr.h **** 
 109:/home/junpei/workspace/arm/F4_Discovery_Template/Libraries/CMSIS/Include/core_cmInstr.h ****     This function reverses the byte order in two unsigned short values.
 110:/home/junpei/workspace/arm/F4_Discovery_Template/Libraries/CMSIS/Include/core_cmInstr.h **** 
 111:/home/junpei/workspace/arm/F4_Discovery_Template/Libraries/CMSIS/Include/core_cmInstr.h ****     \param [in]    value  Value to reverse
 112:/home/junpei/workspace/arm/F4_Discovery_Template/Libraries/CMSIS/Include/core_cmInstr.h ****     \return               Reversed value
 113:/home/junpei/workspace/arm/F4_Discovery_Template/Libraries/CMSIS/Include/core_cmInstr.h ****  */
 114:/home/junpei/workspace/arm/F4_Discovery_Template/Libraries/CMSIS/Include/core_cmInstr.h **** static __INLINE __ASM uint32_t __REV16(uint32_t value)
 115:/home/junpei/workspace/arm/F4_Discovery_Template/Libraries/CMSIS/Include/core_cmInstr.h **** {
 116:/home/junpei/workspace/arm/F4_Discovery_Template/Libraries/CMSIS/Include/core_cmInstr.h ****   rev16 r0, r0
 117:/home/junpei/workspace/arm/F4_Discovery_Template/Libraries/CMSIS/Include/core_cmInstr.h ****   bx lr
 118:/home/junpei/workspace/arm/F4_Discovery_Template/Libraries/CMSIS/Include/core_cmInstr.h **** }
 119:/home/junpei/workspace/arm/F4_Discovery_Template/Libraries/CMSIS/Include/core_cmInstr.h **** 
 120:/home/junpei/workspace/arm/F4_Discovery_Template/Libraries/CMSIS/Include/core_cmInstr.h **** 
 121:/home/junpei/workspace/arm/F4_Discovery_Template/Libraries/CMSIS/Include/core_cmInstr.h **** /** \brief  Reverse byte order in signed short value
 122:/home/junpei/workspace/arm/F4_Discovery_Template/Libraries/CMSIS/Include/core_cmInstr.h **** 
 123:/home/junpei/workspace/arm/F4_Discovery_Template/Libraries/CMSIS/Include/core_cmInstr.h ****     This function reverses the byte order in a signed short value with sign extension to integer.
 124:/home/junpei/workspace/arm/F4_Discovery_Template/Libraries/CMSIS/Include/core_cmInstr.h **** 
 125:/home/junpei/workspace/arm/F4_Discovery_Template/Libraries/CMSIS/Include/core_cmInstr.h ****     \param [in]    value  Value to reverse
 126:/home/junpei/workspace/arm/F4_Discovery_Template/Libraries/CMSIS/Include/core_cmInstr.h ****     \return               Reversed value
 127:/home/junpei/workspace/arm/F4_Discovery_Template/Libraries/CMSIS/Include/core_cmInstr.h ****  */
 128:/home/junpei/workspace/arm/F4_Discovery_Template/Libraries/CMSIS/Include/core_cmInstr.h **** static __INLINE __ASM int32_t __REVSH(int32_t value)
 129:/home/junpei/workspace/arm/F4_Discovery_Template/Libraries/CMSIS/Include/core_cmInstr.h **** {
 130:/home/junpei/workspace/arm/F4_Discovery_Template/Libraries/CMSIS/Include/core_cmInstr.h ****   revsh r0, r0
 131:/home/junpei/workspace/arm/F4_Discovery_Template/Libraries/CMSIS/Include/core_cmInstr.h ****   bx lr
 132:/home/junpei/workspace/arm/F4_Discovery_Template/Libraries/CMSIS/Include/core_cmInstr.h **** }
 133:/home/junpei/workspace/arm/F4_Discovery_Template/Libraries/CMSIS/Include/core_cmInstr.h **** 
 134:/home/junpei/workspace/arm/F4_Discovery_Template/Libraries/CMSIS/Include/core_cmInstr.h **** 
 135:/home/junpei/workspace/arm/F4_Discovery_Template/Libraries/CMSIS/Include/core_cmInstr.h **** #if       (__CORTEX_M >= 0x03)
 136:/home/junpei/workspace/arm/F4_Discovery_Template/Libraries/CMSIS/Include/core_cmInstr.h **** 
 137:/home/junpei/workspace/arm/F4_Discovery_Template/Libraries/CMSIS/Include/core_cmInstr.h **** /** \brief  Reverse bit order of value
 138:/home/junpei/workspace/arm/F4_Discovery_Template/Libraries/CMSIS/Include/core_cmInstr.h **** 
 139:/home/junpei/workspace/arm/F4_Discovery_Template/Libraries/CMSIS/Include/core_cmInstr.h ****     This function reverses the bit order of the given value.
 140:/home/junpei/workspace/arm/F4_Discovery_Template/Libraries/CMSIS/Include/core_cmInstr.h **** 
 141:/home/junpei/workspace/arm/F4_Discovery_Template/Libraries/CMSIS/Include/core_cmInstr.h ****     \param [in]    value  Value to reverse
 142:/home/junpei/workspace/arm/F4_Discovery_Template/Libraries/CMSIS/Include/core_cmInstr.h ****     \return               Reversed value
 143:/home/junpei/workspace/arm/F4_Discovery_Template/Libraries/CMSIS/Include/core_cmInstr.h ****  */
 144:/home/junpei/workspace/arm/F4_Discovery_Template/Libraries/CMSIS/Include/core_cmInstr.h **** #define __RBIT                            __rbit
 145:/home/junpei/workspace/arm/F4_Discovery_Template/Libraries/CMSIS/Include/core_cmInstr.h **** 
 146:/home/junpei/workspace/arm/F4_Discovery_Template/Libraries/CMSIS/Include/core_cmInstr.h **** 
 147:/home/junpei/workspace/arm/F4_Discovery_Template/Libraries/CMSIS/Include/core_cmInstr.h **** /** \brief  LDR Exclusive (8 bit)
 148:/home/junpei/workspace/arm/F4_Discovery_Template/Libraries/CMSIS/Include/core_cmInstr.h **** 
 149:/home/junpei/workspace/arm/F4_Discovery_Template/Libraries/CMSIS/Include/core_cmInstr.h ****     This function performs a exclusive LDR command for 8 bit value.
 150:/home/junpei/workspace/arm/F4_Discovery_Template/Libraries/CMSIS/Include/core_cmInstr.h **** 
 151:/home/junpei/workspace/arm/F4_Discovery_Template/Libraries/CMSIS/Include/core_cmInstr.h ****     \param [in]    ptr  Pointer to data
 152:/home/junpei/workspace/arm/F4_Discovery_Template/Libraries/CMSIS/Include/core_cmInstr.h ****     \return             value of type uint8_t at (*ptr)
 153:/home/junpei/workspace/arm/F4_Discovery_Template/Libraries/CMSIS/Include/core_cmInstr.h ****  */
 154:/home/junpei/workspace/arm/F4_Discovery_Template/Libraries/CMSIS/Include/core_cmInstr.h **** #define __LDREXB(ptr)                     ((uint8_t ) __ldrex(ptr))
 155:/home/junpei/workspace/arm/F4_Discovery_Template/Libraries/CMSIS/Include/core_cmInstr.h **** 
 156:/home/junpei/workspace/arm/F4_Discovery_Template/Libraries/CMSIS/Include/core_cmInstr.h **** 
 157:/home/junpei/workspace/arm/F4_Discovery_Template/Libraries/CMSIS/Include/core_cmInstr.h **** /** \brief  LDR Exclusive (16 bit)
 158:/home/junpei/workspace/arm/F4_Discovery_Template/Libraries/CMSIS/Include/core_cmInstr.h **** 
 159:/home/junpei/workspace/arm/F4_Discovery_Template/Libraries/CMSIS/Include/core_cmInstr.h ****     This function performs a exclusive LDR command for 16 bit values.
 160:/home/junpei/workspace/arm/F4_Discovery_Template/Libraries/CMSIS/Include/core_cmInstr.h **** 
 161:/home/junpei/workspace/arm/F4_Discovery_Template/Libraries/CMSIS/Include/core_cmInstr.h ****     \param [in]    ptr  Pointer to data
 162:/home/junpei/workspace/arm/F4_Discovery_Template/Libraries/CMSIS/Include/core_cmInstr.h ****     \return        value of type uint16_t at (*ptr)
 163:/home/junpei/workspace/arm/F4_Discovery_Template/Libraries/CMSIS/Include/core_cmInstr.h ****  */
 164:/home/junpei/workspace/arm/F4_Discovery_Template/Libraries/CMSIS/Include/core_cmInstr.h **** #define __LDREXH(ptr)                     ((uint16_t) __ldrex(ptr))
 165:/home/junpei/workspace/arm/F4_Discovery_Template/Libraries/CMSIS/Include/core_cmInstr.h **** 
 166:/home/junpei/workspace/arm/F4_Discovery_Template/Libraries/CMSIS/Include/core_cmInstr.h **** 
 167:/home/junpei/workspace/arm/F4_Discovery_Template/Libraries/CMSIS/Include/core_cmInstr.h **** /** \brief  LDR Exclusive (32 bit)
 168:/home/junpei/workspace/arm/F4_Discovery_Template/Libraries/CMSIS/Include/core_cmInstr.h **** 
 169:/home/junpei/workspace/arm/F4_Discovery_Template/Libraries/CMSIS/Include/core_cmInstr.h ****     This function performs a exclusive LDR command for 32 bit values.
 170:/home/junpei/workspace/arm/F4_Discovery_Template/Libraries/CMSIS/Include/core_cmInstr.h **** 
 171:/home/junpei/workspace/arm/F4_Discovery_Template/Libraries/CMSIS/Include/core_cmInstr.h ****     \param [in]    ptr  Pointer to data
 172:/home/junpei/workspace/arm/F4_Discovery_Template/Libraries/CMSIS/Include/core_cmInstr.h ****     \return        value of type uint32_t at (*ptr)
 173:/home/junpei/workspace/arm/F4_Discovery_Template/Libraries/CMSIS/Include/core_cmInstr.h ****  */
 174:/home/junpei/workspace/arm/F4_Discovery_Template/Libraries/CMSIS/Include/core_cmInstr.h **** #define __LDREXW(ptr)                     ((uint32_t ) __ldrex(ptr))
 175:/home/junpei/workspace/arm/F4_Discovery_Template/Libraries/CMSIS/Include/core_cmInstr.h **** 
 176:/home/junpei/workspace/arm/F4_Discovery_Template/Libraries/CMSIS/Include/core_cmInstr.h **** 
 177:/home/junpei/workspace/arm/F4_Discovery_Template/Libraries/CMSIS/Include/core_cmInstr.h **** /** \brief  STR Exclusive (8 bit)
 178:/home/junpei/workspace/arm/F4_Discovery_Template/Libraries/CMSIS/Include/core_cmInstr.h **** 
 179:/home/junpei/workspace/arm/F4_Discovery_Template/Libraries/CMSIS/Include/core_cmInstr.h ****     This function performs a exclusive STR command for 8 bit values.
 180:/home/junpei/workspace/arm/F4_Discovery_Template/Libraries/CMSIS/Include/core_cmInstr.h **** 
 181:/home/junpei/workspace/arm/F4_Discovery_Template/Libraries/CMSIS/Include/core_cmInstr.h ****     \param [in]  value  Value to store
 182:/home/junpei/workspace/arm/F4_Discovery_Template/Libraries/CMSIS/Include/core_cmInstr.h ****     \param [in]    ptr  Pointer to location
 183:/home/junpei/workspace/arm/F4_Discovery_Template/Libraries/CMSIS/Include/core_cmInstr.h ****     \return          0  Function succeeded
 184:/home/junpei/workspace/arm/F4_Discovery_Template/Libraries/CMSIS/Include/core_cmInstr.h ****     \return          1  Function failed
 185:/home/junpei/workspace/arm/F4_Discovery_Template/Libraries/CMSIS/Include/core_cmInstr.h ****  */
 186:/home/junpei/workspace/arm/F4_Discovery_Template/Libraries/CMSIS/Include/core_cmInstr.h **** #define __STREXB(value, ptr)              __strex(value, ptr)
 187:/home/junpei/workspace/arm/F4_Discovery_Template/Libraries/CMSIS/Include/core_cmInstr.h **** 
 188:/home/junpei/workspace/arm/F4_Discovery_Template/Libraries/CMSIS/Include/core_cmInstr.h **** 
 189:/home/junpei/workspace/arm/F4_Discovery_Template/Libraries/CMSIS/Include/core_cmInstr.h **** /** \brief  STR Exclusive (16 bit)
 190:/home/junpei/workspace/arm/F4_Discovery_Template/Libraries/CMSIS/Include/core_cmInstr.h **** 
 191:/home/junpei/workspace/arm/F4_Discovery_Template/Libraries/CMSIS/Include/core_cmInstr.h ****     This function performs a exclusive STR command for 16 bit values.
 192:/home/junpei/workspace/arm/F4_Discovery_Template/Libraries/CMSIS/Include/core_cmInstr.h **** 
 193:/home/junpei/workspace/arm/F4_Discovery_Template/Libraries/CMSIS/Include/core_cmInstr.h ****     \param [in]  value  Value to store
 194:/home/junpei/workspace/arm/F4_Discovery_Template/Libraries/CMSIS/Include/core_cmInstr.h ****     \param [in]    ptr  Pointer to location
 195:/home/junpei/workspace/arm/F4_Discovery_Template/Libraries/CMSIS/Include/core_cmInstr.h ****     \return          0  Function succeeded
 196:/home/junpei/workspace/arm/F4_Discovery_Template/Libraries/CMSIS/Include/core_cmInstr.h ****     \return          1  Function failed
 197:/home/junpei/workspace/arm/F4_Discovery_Template/Libraries/CMSIS/Include/core_cmInstr.h ****  */
 198:/home/junpei/workspace/arm/F4_Discovery_Template/Libraries/CMSIS/Include/core_cmInstr.h **** #define __STREXH(value, ptr)              __strex(value, ptr)
 199:/home/junpei/workspace/arm/F4_Discovery_Template/Libraries/CMSIS/Include/core_cmInstr.h **** 
 200:/home/junpei/workspace/arm/F4_Discovery_Template/Libraries/CMSIS/Include/core_cmInstr.h **** 
 201:/home/junpei/workspace/arm/F4_Discovery_Template/Libraries/CMSIS/Include/core_cmInstr.h **** /** \brief  STR Exclusive (32 bit)
 202:/home/junpei/workspace/arm/F4_Discovery_Template/Libraries/CMSIS/Include/core_cmInstr.h **** 
 203:/home/junpei/workspace/arm/F4_Discovery_Template/Libraries/CMSIS/Include/core_cmInstr.h ****     This function performs a exclusive STR command for 32 bit values.
 204:/home/junpei/workspace/arm/F4_Discovery_Template/Libraries/CMSIS/Include/core_cmInstr.h **** 
 205:/home/junpei/workspace/arm/F4_Discovery_Template/Libraries/CMSIS/Include/core_cmInstr.h ****     \param [in]  value  Value to store
 206:/home/junpei/workspace/arm/F4_Discovery_Template/Libraries/CMSIS/Include/core_cmInstr.h ****     \param [in]    ptr  Pointer to location
 207:/home/junpei/workspace/arm/F4_Discovery_Template/Libraries/CMSIS/Include/core_cmInstr.h ****     \return          0  Function succeeded
 208:/home/junpei/workspace/arm/F4_Discovery_Template/Libraries/CMSIS/Include/core_cmInstr.h ****     \return          1  Function failed
 209:/home/junpei/workspace/arm/F4_Discovery_Template/Libraries/CMSIS/Include/core_cmInstr.h ****  */
 210:/home/junpei/workspace/arm/F4_Discovery_Template/Libraries/CMSIS/Include/core_cmInstr.h **** #define __STREXW(value, ptr)              __strex(value, ptr)
 211:/home/junpei/workspace/arm/F4_Discovery_Template/Libraries/CMSIS/Include/core_cmInstr.h **** 
 212:/home/junpei/workspace/arm/F4_Discovery_Template/Libraries/CMSIS/Include/core_cmInstr.h **** 
 213:/home/junpei/workspace/arm/F4_Discovery_Template/Libraries/CMSIS/Include/core_cmInstr.h **** /** \brief  Remove the exclusive lock
 214:/home/junpei/workspace/arm/F4_Discovery_Template/Libraries/CMSIS/Include/core_cmInstr.h **** 
 215:/home/junpei/workspace/arm/F4_Discovery_Template/Libraries/CMSIS/Include/core_cmInstr.h ****     This function removes the exclusive lock which is created by LDREX.
 216:/home/junpei/workspace/arm/F4_Discovery_Template/Libraries/CMSIS/Include/core_cmInstr.h **** 
 217:/home/junpei/workspace/arm/F4_Discovery_Template/Libraries/CMSIS/Include/core_cmInstr.h ****  */
 218:/home/junpei/workspace/arm/F4_Discovery_Template/Libraries/CMSIS/Include/core_cmInstr.h **** #define __CLREX                           __clrex
 219:/home/junpei/workspace/arm/F4_Discovery_Template/Libraries/CMSIS/Include/core_cmInstr.h **** 
 220:/home/junpei/workspace/arm/F4_Discovery_Template/Libraries/CMSIS/Include/core_cmInstr.h **** 
 221:/home/junpei/workspace/arm/F4_Discovery_Template/Libraries/CMSIS/Include/core_cmInstr.h **** /** \brief  Signed Saturate
 222:/home/junpei/workspace/arm/F4_Discovery_Template/Libraries/CMSIS/Include/core_cmInstr.h **** 
 223:/home/junpei/workspace/arm/F4_Discovery_Template/Libraries/CMSIS/Include/core_cmInstr.h ****     This function saturates a signed value.
 224:/home/junpei/workspace/arm/F4_Discovery_Template/Libraries/CMSIS/Include/core_cmInstr.h **** 
 225:/home/junpei/workspace/arm/F4_Discovery_Template/Libraries/CMSIS/Include/core_cmInstr.h ****     \param [in]  value  Value to be saturated
 226:/home/junpei/workspace/arm/F4_Discovery_Template/Libraries/CMSIS/Include/core_cmInstr.h ****     \param [in]    sat  Bit position to saturate to (1..32)
 227:/home/junpei/workspace/arm/F4_Discovery_Template/Libraries/CMSIS/Include/core_cmInstr.h ****     \return             Saturated value
 228:/home/junpei/workspace/arm/F4_Discovery_Template/Libraries/CMSIS/Include/core_cmInstr.h ****  */
 229:/home/junpei/workspace/arm/F4_Discovery_Template/Libraries/CMSIS/Include/core_cmInstr.h **** #define __SSAT                            __ssat
 230:/home/junpei/workspace/arm/F4_Discovery_Template/Libraries/CMSIS/Include/core_cmInstr.h **** 
 231:/home/junpei/workspace/arm/F4_Discovery_Template/Libraries/CMSIS/Include/core_cmInstr.h **** 
 232:/home/junpei/workspace/arm/F4_Discovery_Template/Libraries/CMSIS/Include/core_cmInstr.h **** /** \brief  Unsigned Saturate
 233:/home/junpei/workspace/arm/F4_Discovery_Template/Libraries/CMSIS/Include/core_cmInstr.h **** 
 234:/home/junpei/workspace/arm/F4_Discovery_Template/Libraries/CMSIS/Include/core_cmInstr.h ****     This function saturates an unsigned value.
 235:/home/junpei/workspace/arm/F4_Discovery_Template/Libraries/CMSIS/Include/core_cmInstr.h **** 
 236:/home/junpei/workspace/arm/F4_Discovery_Template/Libraries/CMSIS/Include/core_cmInstr.h ****     \param [in]  value  Value to be saturated
 237:/home/junpei/workspace/arm/F4_Discovery_Template/Libraries/CMSIS/Include/core_cmInstr.h ****     \param [in]    sat  Bit position to saturate to (0..31)
 238:/home/junpei/workspace/arm/F4_Discovery_Template/Libraries/CMSIS/Include/core_cmInstr.h ****     \return             Saturated value
 239:/home/junpei/workspace/arm/F4_Discovery_Template/Libraries/CMSIS/Include/core_cmInstr.h ****  */
 240:/home/junpei/workspace/arm/F4_Discovery_Template/Libraries/CMSIS/Include/core_cmInstr.h **** #define __USAT                            __usat
 241:/home/junpei/workspace/arm/F4_Discovery_Template/Libraries/CMSIS/Include/core_cmInstr.h **** 
 242:/home/junpei/workspace/arm/F4_Discovery_Template/Libraries/CMSIS/Include/core_cmInstr.h **** 
 243:/home/junpei/workspace/arm/F4_Discovery_Template/Libraries/CMSIS/Include/core_cmInstr.h **** /** \brief  Count leading zeros
 244:/home/junpei/workspace/arm/F4_Discovery_Template/Libraries/CMSIS/Include/core_cmInstr.h **** 
 245:/home/junpei/workspace/arm/F4_Discovery_Template/Libraries/CMSIS/Include/core_cmInstr.h ****     This function counts the number of leading zeros of a data value.
 246:/home/junpei/workspace/arm/F4_Discovery_Template/Libraries/CMSIS/Include/core_cmInstr.h **** 
 247:/home/junpei/workspace/arm/F4_Discovery_Template/Libraries/CMSIS/Include/core_cmInstr.h ****     \param [in]  value  Value to count the leading zeros
 248:/home/junpei/workspace/arm/F4_Discovery_Template/Libraries/CMSIS/Include/core_cmInstr.h ****     \return             number of leading zeros in value
 249:/home/junpei/workspace/arm/F4_Discovery_Template/Libraries/CMSIS/Include/core_cmInstr.h ****  */
 250:/home/junpei/workspace/arm/F4_Discovery_Template/Libraries/CMSIS/Include/core_cmInstr.h **** #define __CLZ                             __clz 
 251:/home/junpei/workspace/arm/F4_Discovery_Template/Libraries/CMSIS/Include/core_cmInstr.h **** 
 252:/home/junpei/workspace/arm/F4_Discovery_Template/Libraries/CMSIS/Include/core_cmInstr.h **** #endif /* (__CORTEX_M >= 0x03) */
 253:/home/junpei/workspace/arm/F4_Discovery_Template/Libraries/CMSIS/Include/core_cmInstr.h **** 
 254:/home/junpei/workspace/arm/F4_Discovery_Template/Libraries/CMSIS/Include/core_cmInstr.h **** 
 255:/home/junpei/workspace/arm/F4_Discovery_Template/Libraries/CMSIS/Include/core_cmInstr.h **** 
 256:/home/junpei/workspace/arm/F4_Discovery_Template/Libraries/CMSIS/Include/core_cmInstr.h **** #elif defined ( __ICCARM__ ) /*------------------ ICC Compiler -------------------*/
 257:/home/junpei/workspace/arm/F4_Discovery_Template/Libraries/CMSIS/Include/core_cmInstr.h **** /* IAR iccarm specific functions */
 258:/home/junpei/workspace/arm/F4_Discovery_Template/Libraries/CMSIS/Include/core_cmInstr.h **** 
 259:/home/junpei/workspace/arm/F4_Discovery_Template/Libraries/CMSIS/Include/core_cmInstr.h **** #include <cmsis_iar.h>
 260:/home/junpei/workspace/arm/F4_Discovery_Template/Libraries/CMSIS/Include/core_cmInstr.h **** 
 261:/home/junpei/workspace/arm/F4_Discovery_Template/Libraries/CMSIS/Include/core_cmInstr.h **** 
 262:/home/junpei/workspace/arm/F4_Discovery_Template/Libraries/CMSIS/Include/core_cmInstr.h **** #elif defined ( __GNUC__ ) /*------------------ GNU Compiler ---------------------*/
 263:/home/junpei/workspace/arm/F4_Discovery_Template/Libraries/CMSIS/Include/core_cmInstr.h **** /* GNU gcc specific functions */
 264:/home/junpei/workspace/arm/F4_Discovery_Template/Libraries/CMSIS/Include/core_cmInstr.h **** 
 265:/home/junpei/workspace/arm/F4_Discovery_Template/Libraries/CMSIS/Include/core_cmInstr.h **** /** \brief  No Operation
 266:/home/junpei/workspace/arm/F4_Discovery_Template/Libraries/CMSIS/Include/core_cmInstr.h **** 
 267:/home/junpei/workspace/arm/F4_Discovery_Template/Libraries/CMSIS/Include/core_cmInstr.h ****     No Operation does nothing. This instruction can be used for code alignment purposes.
 268:/home/junpei/workspace/arm/F4_Discovery_Template/Libraries/CMSIS/Include/core_cmInstr.h ****  */
 269:/home/junpei/workspace/arm/F4_Discovery_Template/Libraries/CMSIS/Include/core_cmInstr.h **** __attribute__( ( always_inline ) ) static __INLINE void __NOP(void)
 270:/home/junpei/workspace/arm/F4_Discovery_Template/Libraries/CMSIS/Include/core_cmInstr.h **** {
 271:/home/junpei/workspace/arm/F4_Discovery_Template/Libraries/CMSIS/Include/core_cmInstr.h ****   __ASM volatile ("nop");
 272:/home/junpei/workspace/arm/F4_Discovery_Template/Libraries/CMSIS/Include/core_cmInstr.h **** }
 273:/home/junpei/workspace/arm/F4_Discovery_Template/Libraries/CMSIS/Include/core_cmInstr.h **** 
 274:/home/junpei/workspace/arm/F4_Discovery_Template/Libraries/CMSIS/Include/core_cmInstr.h **** 
 275:/home/junpei/workspace/arm/F4_Discovery_Template/Libraries/CMSIS/Include/core_cmInstr.h **** /** \brief  Wait For Interrupt
 276:/home/junpei/workspace/arm/F4_Discovery_Template/Libraries/CMSIS/Include/core_cmInstr.h **** 
 277:/home/junpei/workspace/arm/F4_Discovery_Template/Libraries/CMSIS/Include/core_cmInstr.h ****     Wait For Interrupt is a hint instruction that suspends execution
 278:/home/junpei/workspace/arm/F4_Discovery_Template/Libraries/CMSIS/Include/core_cmInstr.h ****     until one of a number of events occurs.
 279:/home/junpei/workspace/arm/F4_Discovery_Template/Libraries/CMSIS/Include/core_cmInstr.h ****  */
 280:/home/junpei/workspace/arm/F4_Discovery_Template/Libraries/CMSIS/Include/core_cmInstr.h **** __attribute__( ( always_inline ) ) static __INLINE void __WFI(void)
 281:/home/junpei/workspace/arm/F4_Discovery_Template/Libraries/CMSIS/Include/core_cmInstr.h **** {
 282:/home/junpei/workspace/arm/F4_Discovery_Template/Libraries/CMSIS/Include/core_cmInstr.h ****   __ASM volatile ("wfi");
 283:/home/junpei/workspace/arm/F4_Discovery_Template/Libraries/CMSIS/Include/core_cmInstr.h **** }
 284:/home/junpei/workspace/arm/F4_Discovery_Template/Libraries/CMSIS/Include/core_cmInstr.h **** 
 285:/home/junpei/workspace/arm/F4_Discovery_Template/Libraries/CMSIS/Include/core_cmInstr.h **** 
 286:/home/junpei/workspace/arm/F4_Discovery_Template/Libraries/CMSIS/Include/core_cmInstr.h **** /** \brief  Wait For Event
 287:/home/junpei/workspace/arm/F4_Discovery_Template/Libraries/CMSIS/Include/core_cmInstr.h **** 
 288:/home/junpei/workspace/arm/F4_Discovery_Template/Libraries/CMSIS/Include/core_cmInstr.h ****     Wait For Event is a hint instruction that permits the processor to enter
 289:/home/junpei/workspace/arm/F4_Discovery_Template/Libraries/CMSIS/Include/core_cmInstr.h ****     a low-power state until one of a number of events occurs.
 290:/home/junpei/workspace/arm/F4_Discovery_Template/Libraries/CMSIS/Include/core_cmInstr.h ****  */
 291:/home/junpei/workspace/arm/F4_Discovery_Template/Libraries/CMSIS/Include/core_cmInstr.h **** __attribute__( ( always_inline ) ) static __INLINE void __WFE(void)
 292:/home/junpei/workspace/arm/F4_Discovery_Template/Libraries/CMSIS/Include/core_cmInstr.h **** {
 293:/home/junpei/workspace/arm/F4_Discovery_Template/Libraries/CMSIS/Include/core_cmInstr.h ****   __ASM volatile ("wfe");
 294:/home/junpei/workspace/arm/F4_Discovery_Template/Libraries/CMSIS/Include/core_cmInstr.h **** }
 295:/home/junpei/workspace/arm/F4_Discovery_Template/Libraries/CMSIS/Include/core_cmInstr.h **** 
 296:/home/junpei/workspace/arm/F4_Discovery_Template/Libraries/CMSIS/Include/core_cmInstr.h **** 
 297:/home/junpei/workspace/arm/F4_Discovery_Template/Libraries/CMSIS/Include/core_cmInstr.h **** /** \brief  Send Event
 298:/home/junpei/workspace/arm/F4_Discovery_Template/Libraries/CMSIS/Include/core_cmInstr.h **** 
 299:/home/junpei/workspace/arm/F4_Discovery_Template/Libraries/CMSIS/Include/core_cmInstr.h ****     Send Event is a hint instruction. It causes an event to be signaled to the CPU.
 300:/home/junpei/workspace/arm/F4_Discovery_Template/Libraries/CMSIS/Include/core_cmInstr.h ****  */
 301:/home/junpei/workspace/arm/F4_Discovery_Template/Libraries/CMSIS/Include/core_cmInstr.h **** __attribute__( ( always_inline ) ) static __INLINE void __SEV(void)
 302:/home/junpei/workspace/arm/F4_Discovery_Template/Libraries/CMSIS/Include/core_cmInstr.h **** {
 303:/home/junpei/workspace/arm/F4_Discovery_Template/Libraries/CMSIS/Include/core_cmInstr.h ****   __ASM volatile ("sev");
 304:/home/junpei/workspace/arm/F4_Discovery_Template/Libraries/CMSIS/Include/core_cmInstr.h **** }
 305:/home/junpei/workspace/arm/F4_Discovery_Template/Libraries/CMSIS/Include/core_cmInstr.h **** 
 306:/home/junpei/workspace/arm/F4_Discovery_Template/Libraries/CMSIS/Include/core_cmInstr.h **** 
 307:/home/junpei/workspace/arm/F4_Discovery_Template/Libraries/CMSIS/Include/core_cmInstr.h **** /** \brief  Instruction Synchronization Barrier
 308:/home/junpei/workspace/arm/F4_Discovery_Template/Libraries/CMSIS/Include/core_cmInstr.h **** 
 309:/home/junpei/workspace/arm/F4_Discovery_Template/Libraries/CMSIS/Include/core_cmInstr.h ****     Instruction Synchronization Barrier flushes the pipeline in the processor, 
 310:/home/junpei/workspace/arm/F4_Discovery_Template/Libraries/CMSIS/Include/core_cmInstr.h ****     so that all instructions following the ISB are fetched from cache or 
 311:/home/junpei/workspace/arm/F4_Discovery_Template/Libraries/CMSIS/Include/core_cmInstr.h ****     memory, after the instruction has been completed.
 312:/home/junpei/workspace/arm/F4_Discovery_Template/Libraries/CMSIS/Include/core_cmInstr.h ****  */
 313:/home/junpei/workspace/arm/F4_Discovery_Template/Libraries/CMSIS/Include/core_cmInstr.h **** __attribute__( ( always_inline ) ) static __INLINE void __ISB(void)
 314:/home/junpei/workspace/arm/F4_Discovery_Template/Libraries/CMSIS/Include/core_cmInstr.h **** {
 315:/home/junpei/workspace/arm/F4_Discovery_Template/Libraries/CMSIS/Include/core_cmInstr.h ****   __ASM volatile ("isb");
 316:/home/junpei/workspace/arm/F4_Discovery_Template/Libraries/CMSIS/Include/core_cmInstr.h **** }
 317:/home/junpei/workspace/arm/F4_Discovery_Template/Libraries/CMSIS/Include/core_cmInstr.h **** 
 318:/home/junpei/workspace/arm/F4_Discovery_Template/Libraries/CMSIS/Include/core_cmInstr.h **** 
 319:/home/junpei/workspace/arm/F4_Discovery_Template/Libraries/CMSIS/Include/core_cmInstr.h **** /** \brief  Data Synchronization Barrier
 320:/home/junpei/workspace/arm/F4_Discovery_Template/Libraries/CMSIS/Include/core_cmInstr.h **** 
 321:/home/junpei/workspace/arm/F4_Discovery_Template/Libraries/CMSIS/Include/core_cmInstr.h ****     This function acts as a special kind of Data Memory Barrier. 
 322:/home/junpei/workspace/arm/F4_Discovery_Template/Libraries/CMSIS/Include/core_cmInstr.h ****     It completes when all explicit memory accesses before this instruction complete.
 323:/home/junpei/workspace/arm/F4_Discovery_Template/Libraries/CMSIS/Include/core_cmInstr.h ****  */
 324:/home/junpei/workspace/arm/F4_Discovery_Template/Libraries/CMSIS/Include/core_cmInstr.h **** __attribute__( ( always_inline ) ) static __INLINE void __DSB(void)
 325:/home/junpei/workspace/arm/F4_Discovery_Template/Libraries/CMSIS/Include/core_cmInstr.h **** {
 326:/home/junpei/workspace/arm/F4_Discovery_Template/Libraries/CMSIS/Include/core_cmInstr.h ****   __ASM volatile ("dsb");
 327:/home/junpei/workspace/arm/F4_Discovery_Template/Libraries/CMSIS/Include/core_cmInstr.h **** }
 328:/home/junpei/workspace/arm/F4_Discovery_Template/Libraries/CMSIS/Include/core_cmInstr.h **** 
 329:/home/junpei/workspace/arm/F4_Discovery_Template/Libraries/CMSIS/Include/core_cmInstr.h **** 
 330:/home/junpei/workspace/arm/F4_Discovery_Template/Libraries/CMSIS/Include/core_cmInstr.h **** /** \brief  Data Memory Barrier
 331:/home/junpei/workspace/arm/F4_Discovery_Template/Libraries/CMSIS/Include/core_cmInstr.h **** 
 332:/home/junpei/workspace/arm/F4_Discovery_Template/Libraries/CMSIS/Include/core_cmInstr.h ****     This function ensures the apparent order of the explicit memory operations before 
 333:/home/junpei/workspace/arm/F4_Discovery_Template/Libraries/CMSIS/Include/core_cmInstr.h ****     and after the instruction, without ensuring their completion.
 334:/home/junpei/workspace/arm/F4_Discovery_Template/Libraries/CMSIS/Include/core_cmInstr.h ****  */
 335:/home/junpei/workspace/arm/F4_Discovery_Template/Libraries/CMSIS/Include/core_cmInstr.h **** __attribute__( ( always_inline ) ) static __INLINE void __DMB(void)
 336:/home/junpei/workspace/arm/F4_Discovery_Template/Libraries/CMSIS/Include/core_cmInstr.h **** {
 337:/home/junpei/workspace/arm/F4_Discovery_Template/Libraries/CMSIS/Include/core_cmInstr.h ****   __ASM volatile ("dmb");
 338:/home/junpei/workspace/arm/F4_Discovery_Template/Libraries/CMSIS/Include/core_cmInstr.h **** }
 339:/home/junpei/workspace/arm/F4_Discovery_Template/Libraries/CMSIS/Include/core_cmInstr.h **** 
 340:/home/junpei/workspace/arm/F4_Discovery_Template/Libraries/CMSIS/Include/core_cmInstr.h **** 
 341:/home/junpei/workspace/arm/F4_Discovery_Template/Libraries/CMSIS/Include/core_cmInstr.h **** /** \brief  Reverse byte order (32 bit)
 342:/home/junpei/workspace/arm/F4_Discovery_Template/Libraries/CMSIS/Include/core_cmInstr.h **** 
 343:/home/junpei/workspace/arm/F4_Discovery_Template/Libraries/CMSIS/Include/core_cmInstr.h ****     This function reverses the byte order in integer value.
 344:/home/junpei/workspace/arm/F4_Discovery_Template/Libraries/CMSIS/Include/core_cmInstr.h **** 
 345:/home/junpei/workspace/arm/F4_Discovery_Template/Libraries/CMSIS/Include/core_cmInstr.h ****     \param [in]    value  Value to reverse
 346:/home/junpei/workspace/arm/F4_Discovery_Template/Libraries/CMSIS/Include/core_cmInstr.h ****     \return               Reversed value
 347:/home/junpei/workspace/arm/F4_Discovery_Template/Libraries/CMSIS/Include/core_cmInstr.h ****  */
 348:/home/junpei/workspace/arm/F4_Discovery_Template/Libraries/CMSIS/Include/core_cmInstr.h **** __attribute__( ( always_inline ) ) static __INLINE uint32_t __REV(uint32_t value)
 349:/home/junpei/workspace/arm/F4_Discovery_Template/Libraries/CMSIS/Include/core_cmInstr.h **** {
 350:/home/junpei/workspace/arm/F4_Discovery_Template/Libraries/CMSIS/Include/core_cmInstr.h ****   uint32_t result;
 351:/home/junpei/workspace/arm/F4_Discovery_Template/Libraries/CMSIS/Include/core_cmInstr.h ****   
 352:/home/junpei/workspace/arm/F4_Discovery_Template/Libraries/CMSIS/Include/core_cmInstr.h ****   __ASM volatile ("rev %0, %1" : "=r" (result) : "r" (value) );
 24638              		.loc 7 352 0
 24639 0072 D7F8CC30 		ldr	r3, [r7, #204]
 24640              	@ 352 "/home/junpei/workspace/arm/F4_Discovery_Template/Libraries/CMSIS/Include/core_cmInstr.h" 1
 24641 0076 1CBA     		rev r4, r3
 24642              	@ 0 "" 2
 24643              		.thumb
 24644 0078 C7F8C840 		str	r4, [r7, #200]
 353:/home/junpei/workspace/arm/F4_Discovery_Template/Libraries/CMSIS/Include/core_cmInstr.h ****   return(result);
 24645              		.loc 7 353 0
 24646 007c D7F8C830 		ldr	r3, [r7, #200]
 24647              	.LBE127:
 24648              	.LBE126:
 24649              		.loc 1 124 0
 24650 0080 BB62     		str	r3, [r7, #40]
 125:../Libraries/STM32F4xx_StdPeriph_Driver/src/stm32f4xx_cryp_aes.c ****     keyaddr+=4;
 24651              		.loc 1 125 0
 24652 0082 D7F8D030 		ldr	r3, [r7, #208]
 24653 0086 03F10403 		add	r3, r3, #4
 24654 008a C7F8D030 		str	r3, [r7, #208]
 126:../Libraries/STM32F4xx_StdPeriph_Driver/src/stm32f4xx_cryp_aes.c ****     AES_CRYP_KeyInitStructure.CRYP_Key2Right= __REV(*(uint32_t*)(keyaddr));
 24655              		.loc 1 126 0
 24656 008e D7F8D030 		ldr	r3, [r7, #208]
 24657 0092 1B68     		ldr	r3, [r3, #0]
 24658 0094 C7F8C430 		str	r3, [r7, #196]
 24659              	.LBB128:
 24660              	.LBB129:
 352:/home/junpei/workspace/arm/F4_Discovery_Template/Libraries/CMSIS/Include/core_cmInstr.h ****   __ASM volatile ("rev %0, %1" : "=r" (result) : "r" (value) );
 24661              		.loc 7 352 0
 24662 0098 D7F8C430 		ldr	r3, [r7, #196]
 24663              	@ 352 "/home/junpei/workspace/arm/F4_Discovery_Template/Libraries/CMSIS/Include/core_cmInstr.h" 1
 24664 009c 1CBA     		rev r4, r3
 24665              	@ 0 "" 2
 24666              		.thumb
 24667 009e C7F8C040 		str	r4, [r7, #192]
 24668              		.loc 7 353 0
 24669 00a2 D7F8C030 		ldr	r3, [r7, #192]
 24670              	.LBE129:
 24671              	.LBE128:
 24672              		.loc 1 126 0
 24673 00a6 FB62     		str	r3, [r7, #44]
 127:../Libraries/STM32F4xx_StdPeriph_Driver/src/stm32f4xx_cryp_aes.c ****     keyaddr+=4;
 24674              		.loc 1 127 0
 24675 00a8 D7F8D030 		ldr	r3, [r7, #208]
 24676 00ac 03F10403 		add	r3, r3, #4
 24677 00b0 C7F8D030 		str	r3, [r7, #208]
 128:../Libraries/STM32F4xx_StdPeriph_Driver/src/stm32f4xx_cryp_aes.c ****     AES_CRYP_KeyInitStructure.CRYP_Key3Left = __REV(*(uint32_t*)(keyaddr));
 24678              		.loc 1 128 0
 24679 00b4 D7F8D030 		ldr	r3, [r7, #208]
 24680 00b8 1B68     		ldr	r3, [r3, #0]
 24681 00ba C7F8BC30 		str	r3, [r7, #188]
 24682              	.LBB130:
 24683              	.LBB131:
 352:/home/junpei/workspace/arm/F4_Discovery_Template/Libraries/CMSIS/Include/core_cmInstr.h ****   __ASM volatile ("rev %0, %1" : "=r" (result) : "r" (value) );
 24684              		.loc 7 352 0
 24685 00be D7F8BC30 		ldr	r3, [r7, #188]
 24686              	@ 352 "/home/junpei/workspace/arm/F4_Discovery_Template/Libraries/CMSIS/Include/core_cmInstr.h" 1
 24687 00c2 1CBA     		rev r4, r3
 24688              	@ 0 "" 2
 24689              		.thumb
 24690 00c4 C7F8B840 		str	r4, [r7, #184]
 24691              		.loc 7 353 0
 24692 00c8 D7F8B830 		ldr	r3, [r7, #184]
 24693              	.LBE131:
 24694              	.LBE130:
 24695              		.loc 1 128 0
 24696 00cc 3B63     		str	r3, [r7, #48]
 129:../Libraries/STM32F4xx_StdPeriph_Driver/src/stm32f4xx_cryp_aes.c ****     keyaddr+=4;
 24697              		.loc 1 129 0
 24698 00ce D7F8D030 		ldr	r3, [r7, #208]
 24699 00d2 03F10403 		add	r3, r3, #4
 24700 00d6 C7F8D030 		str	r3, [r7, #208]
 130:../Libraries/STM32F4xx_StdPeriph_Driver/src/stm32f4xx_cryp_aes.c ****     AES_CRYP_KeyInitStructure.CRYP_Key3Right= __REV(*(uint32_t*)(keyaddr));
 24701              		.loc 1 130 0
 24702 00da D7F8D030 		ldr	r3, [r7, #208]
 24703 00de 1B68     		ldr	r3, [r3, #0]
 24704 00e0 C7F8B430 		str	r3, [r7, #180]
 24705              	.LBB132:
 24706              	.LBB133:
 352:/home/junpei/workspace/arm/F4_Discovery_Template/Libraries/CMSIS/Include/core_cmInstr.h ****   __ASM volatile ("rev %0, %1" : "=r" (result) : "r" (value) );
 24707              		.loc 7 352 0
 24708 00e4 D7F8B430 		ldr	r3, [r7, #180]
 24709              	@ 352 "/home/junpei/workspace/arm/F4_Discovery_Template/Libraries/CMSIS/Include/core_cmInstr.h" 1
 24710 00e8 1CBA     		rev r4, r3
 24711              	@ 0 "" 2
 24712              		.thumb
 24713 00ea C7F8B040 		str	r4, [r7, #176]
 24714              		.loc 7 353 0
 24715 00ee D7F8B030 		ldr	r3, [r7, #176]
 24716              	.LBE133:
 24717              	.LBE132:
 24718              		.loc 1 130 0
 24719 00f2 7B63     		str	r3, [r7, #52]
 131:../Libraries/STM32F4xx_StdPeriph_Driver/src/stm32f4xx_cryp_aes.c ****     break;
 24720              		.loc 1 131 0
 24721 00f4 E6E0     		b	.L6
 24722              	.L4:
 132:../Libraries/STM32F4xx_StdPeriph_Driver/src/stm32f4xx_cryp_aes.c ****     case 192:
 133:../Libraries/STM32F4xx_StdPeriph_Driver/src/stm32f4xx_cryp_aes.c ****     AES_CRYP_InitStructure.CRYP_KeySize  = CRYP_KeySize_192b;
 24723              		.loc 1 133 0
 24724 00f6 4FF48073 		mov	r3, #256
 24725 00fa FB87     		strh	r3, [r7, #62]	@ movhi
 134:../Libraries/STM32F4xx_StdPeriph_Driver/src/stm32f4xx_cryp_aes.c ****     AES_CRYP_KeyInitStructure.CRYP_Key1Left = __REV(*(uint32_t*)(keyaddr));
 24726              		.loc 1 134 0
 24727 00fc D7F8D030 		ldr	r3, [r7, #208]
 24728 0100 1B68     		ldr	r3, [r3, #0]
 24729 0102 C7F8AC30 		str	r3, [r7, #172]
 24730              	.LBB134:
 24731              	.LBB135:
 352:/home/junpei/workspace/arm/F4_Discovery_Template/Libraries/CMSIS/Include/core_cmInstr.h ****   __ASM volatile ("rev %0, %1" : "=r" (result) : "r" (value) );
 24732              		.loc 7 352 0
 24733 0106 D7F8AC30 		ldr	r3, [r7, #172]
 24734              	@ 352 "/home/junpei/workspace/arm/F4_Discovery_Template/Libraries/CMSIS/Include/core_cmInstr.h" 1
 24735 010a 1CBA     		rev r4, r3
 24736              	@ 0 "" 2
 24737              		.thumb
 24738 010c C7F8A840 		str	r4, [r7, #168]
 24739              		.loc 7 353 0
 24740 0110 D7F8A830 		ldr	r3, [r7, #168]
 24741              	.LBE135:
 24742              	.LBE134:
 24743              		.loc 1 134 0
 24744 0114 3B62     		str	r3, [r7, #32]
 135:../Libraries/STM32F4xx_StdPeriph_Driver/src/stm32f4xx_cryp_aes.c ****     keyaddr+=4;
 24745              		.loc 1 135 0
 24746 0116 D7F8D030 		ldr	r3, [r7, #208]
 24747 011a 03F10403 		add	r3, r3, #4
 24748 011e C7F8D030 		str	r3, [r7, #208]
 136:../Libraries/STM32F4xx_StdPeriph_Driver/src/stm32f4xx_cryp_aes.c ****     AES_CRYP_KeyInitStructure.CRYP_Key1Right= __REV(*(uint32_t*)(keyaddr));
 24749              		.loc 1 136 0
 24750 0122 D7F8D030 		ldr	r3, [r7, #208]
 24751 0126 1B68     		ldr	r3, [r3, #0]
 24752 0128 C7F8A430 		str	r3, [r7, #164]
 24753              	.LBB136:
 24754              	.LBB137:
 352:/home/junpei/workspace/arm/F4_Discovery_Template/Libraries/CMSIS/Include/core_cmInstr.h ****   __ASM volatile ("rev %0, %1" : "=r" (result) : "r" (value) );
 24755              		.loc 7 352 0
 24756 012c D7F8A430 		ldr	r3, [r7, #164]
 24757              	@ 352 "/home/junpei/workspace/arm/F4_Discovery_Template/Libraries/CMSIS/Include/core_cmInstr.h" 1
 24758 0130 1CBA     		rev r4, r3
 24759              	@ 0 "" 2
 24760              		.thumb
 24761 0132 C7F8A040 		str	r4, [r7, #160]
 24762              		.loc 7 353 0
 24763 0136 D7F8A030 		ldr	r3, [r7, #160]
 24764              	.LBE137:
 24765              	.LBE136:
 24766              		.loc 1 136 0
 24767 013a 7B62     		str	r3, [r7, #36]
 137:../Libraries/STM32F4xx_StdPeriph_Driver/src/stm32f4xx_cryp_aes.c ****     keyaddr+=4;
 24768              		.loc 1 137 0
 24769 013c D7F8D030 		ldr	r3, [r7, #208]
 24770 0140 03F10403 		add	r3, r3, #4
 24771 0144 C7F8D030 		str	r3, [r7, #208]
 138:../Libraries/STM32F4xx_StdPeriph_Driver/src/stm32f4xx_cryp_aes.c ****     AES_CRYP_KeyInitStructure.CRYP_Key2Left = __REV(*(uint32_t*)(keyaddr));
 24772              		.loc 1 138 0
 24773 0148 D7F8D030 		ldr	r3, [r7, #208]
 24774 014c 1B68     		ldr	r3, [r3, #0]
 24775 014e C7F89C30 		str	r3, [r7, #156]
 24776              	.LBB138:
 24777              	.LBB139:
 352:/home/junpei/workspace/arm/F4_Discovery_Template/Libraries/CMSIS/Include/core_cmInstr.h ****   __ASM volatile ("rev %0, %1" : "=r" (result) : "r" (value) );
 24778              		.loc 7 352 0
 24779 0152 D7F89C30 		ldr	r3, [r7, #156]
 24780              	@ 352 "/home/junpei/workspace/arm/F4_Discovery_Template/Libraries/CMSIS/Include/core_cmInstr.h" 1
 24781 0156 1CBA     		rev r4, r3
 24782              	@ 0 "" 2
 24783              		.thumb
 24784 0158 C7F89840 		str	r4, [r7, #152]
 24785              		.loc 7 353 0
 24786 015c D7F89830 		ldr	r3, [r7, #152]
 24787              	.LBE139:
 24788              	.LBE138:
 24789              		.loc 1 138 0
 24790 0160 BB62     		str	r3, [r7, #40]
 139:../Libraries/STM32F4xx_StdPeriph_Driver/src/stm32f4xx_cryp_aes.c ****     keyaddr+=4;
 24791              		.loc 1 139 0
 24792 0162 D7F8D030 		ldr	r3, [r7, #208]
 24793 0166 03F10403 		add	r3, r3, #4
 24794 016a C7F8D030 		str	r3, [r7, #208]
 140:../Libraries/STM32F4xx_StdPeriph_Driver/src/stm32f4xx_cryp_aes.c ****     AES_CRYP_KeyInitStructure.CRYP_Key2Right= __REV(*(uint32_t*)(keyaddr));
 24795              		.loc 1 140 0
 24796 016e D7F8D030 		ldr	r3, [r7, #208]
 24797 0172 1B68     		ldr	r3, [r3, #0]
 24798 0174 C7F89430 		str	r3, [r7, #148]
 24799              	.LBB140:
 24800              	.LBB141:
 352:/home/junpei/workspace/arm/F4_Discovery_Template/Libraries/CMSIS/Include/core_cmInstr.h ****   __ASM volatile ("rev %0, %1" : "=r" (result) : "r" (value) );
 24801              		.loc 7 352 0
 24802 0178 D7F89430 		ldr	r3, [r7, #148]
 24803              	@ 352 "/home/junpei/workspace/arm/F4_Discovery_Template/Libraries/CMSIS/Include/core_cmInstr.h" 1
 24804 017c 1CBA     		rev r4, r3
 24805              	@ 0 "" 2
 24806              		.thumb
 24807 017e C7F89040 		str	r4, [r7, #144]
 24808              		.loc 7 353 0
 24809 0182 D7F89030 		ldr	r3, [r7, #144]
 24810              	.LBE141:
 24811              	.LBE140:
 24812              		.loc 1 140 0
 24813 0186 FB62     		str	r3, [r7, #44]
 141:../Libraries/STM32F4xx_StdPeriph_Driver/src/stm32f4xx_cryp_aes.c ****     keyaddr+=4;
 24814              		.loc 1 141 0
 24815 0188 D7F8D030 		ldr	r3, [r7, #208]
 24816 018c 03F10403 		add	r3, r3, #4
 24817 0190 C7F8D030 		str	r3, [r7, #208]
 142:../Libraries/STM32F4xx_StdPeriph_Driver/src/stm32f4xx_cryp_aes.c ****     AES_CRYP_KeyInitStructure.CRYP_Key3Left = __REV(*(uint32_t*)(keyaddr));
 24818              		.loc 1 142 0
 24819 0194 D7F8D030 		ldr	r3, [r7, #208]
 24820 0198 1B68     		ldr	r3, [r3, #0]
 24821 019a C7F88C30 		str	r3, [r7, #140]
 24822              	.LBB142:
 24823              	.LBB143:
 352:/home/junpei/workspace/arm/F4_Discovery_Template/Libraries/CMSIS/Include/core_cmInstr.h ****   __ASM volatile ("rev %0, %1" : "=r" (result) : "r" (value) );
 24824              		.loc 7 352 0
 24825 019e D7F88C30 		ldr	r3, [r7, #140]
 24826              	@ 352 "/home/junpei/workspace/arm/F4_Discovery_Template/Libraries/CMSIS/Include/core_cmInstr.h" 1
 24827 01a2 1CBA     		rev r4, r3
 24828              	@ 0 "" 2
 24829              		.thumb
 24830 01a4 C7F88840 		str	r4, [r7, #136]
 24831              		.loc 7 353 0
 24832 01a8 D7F88830 		ldr	r3, [r7, #136]
 24833              	.LBE143:
 24834              	.LBE142:
 24835              		.loc 1 142 0
 24836 01ac 3B63     		str	r3, [r7, #48]
 143:../Libraries/STM32F4xx_StdPeriph_Driver/src/stm32f4xx_cryp_aes.c ****     keyaddr+=4;
 24837              		.loc 1 143 0
 24838 01ae D7F8D030 		ldr	r3, [r7, #208]
 24839 01b2 03F10403 		add	r3, r3, #4
 24840 01b6 C7F8D030 		str	r3, [r7, #208]
 144:../Libraries/STM32F4xx_StdPeriph_Driver/src/stm32f4xx_cryp_aes.c ****     AES_CRYP_KeyInitStructure.CRYP_Key3Right= __REV(*(uint32_t*)(keyaddr));
 24841              		.loc 1 144 0
 24842 01ba D7F8D030 		ldr	r3, [r7, #208]
 24843 01be 1B68     		ldr	r3, [r3, #0]
 24844 01c0 C7F88430 		str	r3, [r7, #132]
 24845              	.LBB144:
 24846              	.LBB145:
 352:/home/junpei/workspace/arm/F4_Discovery_Template/Libraries/CMSIS/Include/core_cmInstr.h ****   __ASM volatile ("rev %0, %1" : "=r" (result) : "r" (value) );
 24847              		.loc 7 352 0
 24848 01c4 D7F88430 		ldr	r3, [r7, #132]
 24849              	@ 352 "/home/junpei/workspace/arm/F4_Discovery_Template/Libraries/CMSIS/Include/core_cmInstr.h" 1
 24850 01c8 1CBA     		rev r4, r3
 24851              	@ 0 "" 2
 24852              		.thumb
 24853 01ca C7F88040 		str	r4, [r7, #128]
 24854              		.loc 7 353 0
 24855 01ce D7F88030 		ldr	r3, [r7, #128]
 24856              	.LBE145:
 24857              	.LBE144:
 24858              		.loc 1 144 0
 24859 01d2 7B63     		str	r3, [r7, #52]
 145:../Libraries/STM32F4xx_StdPeriph_Driver/src/stm32f4xx_cryp_aes.c ****     break;
 24860              		.loc 1 145 0
 24861 01d4 76E0     		b	.L6
 24862              	.L5:
 146:../Libraries/STM32F4xx_StdPeriph_Driver/src/stm32f4xx_cryp_aes.c ****     case 256:
 147:../Libraries/STM32F4xx_StdPeriph_Driver/src/stm32f4xx_cryp_aes.c ****     AES_CRYP_InitStructure.CRYP_KeySize  = CRYP_KeySize_256b;
 24863              		.loc 1 147 0
 24864 01d6 4FF40073 		mov	r3, #512
 24865 01da FB87     		strh	r3, [r7, #62]	@ movhi
 148:../Libraries/STM32F4xx_StdPeriph_Driver/src/stm32f4xx_cryp_aes.c ****     AES_CRYP_KeyInitStructure.CRYP_Key0Left = __REV(*(uint32_t*)(keyaddr));
 24866              		.loc 1 148 0
 24867 01dc D7F8D030 		ldr	r3, [r7, #208]
 24868 01e0 1B68     		ldr	r3, [r3, #0]
 24869 01e2 FB67     		str	r3, [r7, #124]
 24870              	.LBB146:
 24871              	.LBB147:
 352:/home/junpei/workspace/arm/F4_Discovery_Template/Libraries/CMSIS/Include/core_cmInstr.h ****   __ASM volatile ("rev %0, %1" : "=r" (result) : "r" (value) );
 24872              		.loc 7 352 0
 24873 01e4 FB6F     		ldr	r3, [r7, #124]
 24874              	@ 352 "/home/junpei/workspace/arm/F4_Discovery_Template/Libraries/CMSIS/Include/core_cmInstr.h" 1
 24875 01e6 1CBA     		rev r4, r3
 24876              	@ 0 "" 2
 24877              		.thumb
 24878 01e8 BC67     		str	r4, [r7, #120]
 24879              		.loc 7 353 0
 24880 01ea BB6F     		ldr	r3, [r7, #120]
 24881              	.LBE147:
 24882              	.LBE146:
 24883              		.loc 1 148 0
 24884 01ec BB61     		str	r3, [r7, #24]
 149:../Libraries/STM32F4xx_StdPeriph_Driver/src/stm32f4xx_cryp_aes.c ****     keyaddr+=4;
 24885              		.loc 1 149 0
 24886 01ee D7F8D030 		ldr	r3, [r7, #208]
 24887 01f2 03F10403 		add	r3, r3, #4
 24888 01f6 C7F8D030 		str	r3, [r7, #208]
 150:../Libraries/STM32F4xx_StdPeriph_Driver/src/stm32f4xx_cryp_aes.c ****     AES_CRYP_KeyInitStructure.CRYP_Key0Right= __REV(*(uint32_t*)(keyaddr));
 24889              		.loc 1 150 0
 24890 01fa D7F8D030 		ldr	r3, [r7, #208]
 24891 01fe 1B68     		ldr	r3, [r3, #0]
 24892 0200 7B67     		str	r3, [r7, #116]
 24893              	.LBB148:
 24894              	.LBB149:
 352:/home/junpei/workspace/arm/F4_Discovery_Template/Libraries/CMSIS/Include/core_cmInstr.h ****   __ASM volatile ("rev %0, %1" : "=r" (result) : "r" (value) );
 24895              		.loc 7 352 0
 24896 0202 7B6F     		ldr	r3, [r7, #116]
 24897              	@ 352 "/home/junpei/workspace/arm/F4_Discovery_Template/Libraries/CMSIS/Include/core_cmInstr.h" 1
 24898 0204 1CBA     		rev r4, r3
 24899              	@ 0 "" 2
 24900              		.thumb
 24901 0206 3C67     		str	r4, [r7, #112]
 24902              		.loc 7 353 0
 24903 0208 3B6F     		ldr	r3, [r7, #112]
 24904              	.LBE149:
 24905              	.LBE148:
 24906              		.loc 1 150 0
 24907 020a FB61     		str	r3, [r7, #28]
 151:../Libraries/STM32F4xx_StdPeriph_Driver/src/stm32f4xx_cryp_aes.c ****     keyaddr+=4;
 24908              		.loc 1 151 0
 24909 020c D7F8D030 		ldr	r3, [r7, #208]
 24910 0210 03F10403 		add	r3, r3, #4
 24911 0214 C7F8D030 		str	r3, [r7, #208]
 152:../Libraries/STM32F4xx_StdPeriph_Driver/src/stm32f4xx_cryp_aes.c ****     AES_CRYP_KeyInitStructure.CRYP_Key1Left = __REV(*(uint32_t*)(keyaddr));
 24912              		.loc 1 152 0
 24913 0218 D7F8D030 		ldr	r3, [r7, #208]
 24914 021c 1B68     		ldr	r3, [r3, #0]
 24915 021e FB66     		str	r3, [r7, #108]
 24916              	.LBB150:
 24917              	.LBB151:
 352:/home/junpei/workspace/arm/F4_Discovery_Template/Libraries/CMSIS/Include/core_cmInstr.h ****   __ASM volatile ("rev %0, %1" : "=r" (result) : "r" (value) );
 24918              		.loc 7 352 0
 24919 0220 FB6E     		ldr	r3, [r7, #108]
 24920              	@ 352 "/home/junpei/workspace/arm/F4_Discovery_Template/Libraries/CMSIS/Include/core_cmInstr.h" 1
 24921 0222 1CBA     		rev r4, r3
 24922              	@ 0 "" 2
 24923              		.thumb
 24924 0224 BC66     		str	r4, [r7, #104]
 24925              		.loc 7 353 0
 24926 0226 BB6E     		ldr	r3, [r7, #104]
 24927              	.LBE151:
 24928              	.LBE150:
 24929              		.loc 1 152 0
 24930 0228 3B62     		str	r3, [r7, #32]
 153:../Libraries/STM32F4xx_StdPeriph_Driver/src/stm32f4xx_cryp_aes.c ****     keyaddr+=4;
 24931              		.loc 1 153 0
 24932 022a D7F8D030 		ldr	r3, [r7, #208]
 24933 022e 03F10403 		add	r3, r3, #4
 24934 0232 C7F8D030 		str	r3, [r7, #208]
 154:../Libraries/STM32F4xx_StdPeriph_Driver/src/stm32f4xx_cryp_aes.c ****     AES_CRYP_KeyInitStructure.CRYP_Key1Right= __REV(*(uint32_t*)(keyaddr));
 24935              		.loc 1 154 0
 24936 0236 D7F8D030 		ldr	r3, [r7, #208]
 24937 023a 1B68     		ldr	r3, [r3, #0]
 24938 023c 7B66     		str	r3, [r7, #100]
 24939              	.LBB152:
 24940              	.LBB153:
 352:/home/junpei/workspace/arm/F4_Discovery_Template/Libraries/CMSIS/Include/core_cmInstr.h ****   __ASM volatile ("rev %0, %1" : "=r" (result) : "r" (value) );
 24941              		.loc 7 352 0
 24942 023e 7B6E     		ldr	r3, [r7, #100]
 24943              	@ 352 "/home/junpei/workspace/arm/F4_Discovery_Template/Libraries/CMSIS/Include/core_cmInstr.h" 1
 24944 0240 1CBA     		rev r4, r3
 24945              	@ 0 "" 2
 24946              		.thumb
 24947 0242 3C66     		str	r4, [r7, #96]
 24948              		.loc 7 353 0
 24949 0244 3B6E     		ldr	r3, [r7, #96]
 24950              	.LBE153:
 24951              	.LBE152:
 24952              		.loc 1 154 0
 24953 0246 7B62     		str	r3, [r7, #36]
 155:../Libraries/STM32F4xx_StdPeriph_Driver/src/stm32f4xx_cryp_aes.c ****     keyaddr+=4;
 24954              		.loc 1 155 0
 24955 0248 D7F8D030 		ldr	r3, [r7, #208]
 24956 024c 03F10403 		add	r3, r3, #4
 24957 0250 C7F8D030 		str	r3, [r7, #208]
 156:../Libraries/STM32F4xx_StdPeriph_Driver/src/stm32f4xx_cryp_aes.c ****     AES_CRYP_KeyInitStructure.CRYP_Key2Left = __REV(*(uint32_t*)(keyaddr));
 24958              		.loc 1 156 0
 24959 0254 D7F8D030 		ldr	r3, [r7, #208]
 24960 0258 1B68     		ldr	r3, [r3, #0]
 24961 025a FB65     		str	r3, [r7, #92]
 24962              	.LBB154:
 24963              	.LBB155:
 352:/home/junpei/workspace/arm/F4_Discovery_Template/Libraries/CMSIS/Include/core_cmInstr.h ****   __ASM volatile ("rev %0, %1" : "=r" (result) : "r" (value) );
 24964              		.loc 7 352 0
 24965 025c FB6D     		ldr	r3, [r7, #92]
 24966              	@ 352 "/home/junpei/workspace/arm/F4_Discovery_Template/Libraries/CMSIS/Include/core_cmInstr.h" 1
 24967 025e 1CBA     		rev r4, r3
 24968              	@ 0 "" 2
 24969              		.thumb
 24970 0260 BC65     		str	r4, [r7, #88]
 24971              		.loc 7 353 0
 24972 0262 BB6D     		ldr	r3, [r7, #88]
 24973              	.LBE155:
 24974              	.LBE154:
 24975              		.loc 1 156 0
 24976 0264 BB62     		str	r3, [r7, #40]
 157:../Libraries/STM32F4xx_StdPeriph_Driver/src/stm32f4xx_cryp_aes.c ****     keyaddr+=4;
 24977              		.loc 1 157 0
 24978 0266 D7F8D030 		ldr	r3, [r7, #208]
 24979 026a 03F10403 		add	r3, r3, #4
 24980 026e C7F8D030 		str	r3, [r7, #208]
 158:../Libraries/STM32F4xx_StdPeriph_Driver/src/stm32f4xx_cryp_aes.c ****     AES_CRYP_KeyInitStructure.CRYP_Key2Right= __REV(*(uint32_t*)(keyaddr));
 24981              		.loc 1 158 0
 24982 0272 D7F8D030 		ldr	r3, [r7, #208]
 24983 0276 1B68     		ldr	r3, [r3, #0]
 24984 0278 7B65     		str	r3, [r7, #84]
 24985              	.LBB156:
 24986              	.LBB157:
 352:/home/junpei/workspace/arm/F4_Discovery_Template/Libraries/CMSIS/Include/core_cmInstr.h ****   __ASM volatile ("rev %0, %1" : "=r" (result) : "r" (value) );
 24987              		.loc 7 352 0
 24988 027a 7B6D     		ldr	r3, [r7, #84]
 24989              	@ 352 "/home/junpei/workspace/arm/F4_Discovery_Template/Libraries/CMSIS/Include/core_cmInstr.h" 1
 24990 027c 1CBA     		rev r4, r3
 24991              	@ 0 "" 2
 24992              		.thumb
 24993 027e 3C65     		str	r4, [r7, #80]
 24994              		.loc 7 353 0
 24995 0280 3B6D     		ldr	r3, [r7, #80]
 24996              	.LBE157:
 24997              	.LBE156:
 24998              		.loc 1 158 0
 24999 0282 FB62     		str	r3, [r7, #44]
 159:../Libraries/STM32F4xx_StdPeriph_Driver/src/stm32f4xx_cryp_aes.c ****     keyaddr+=4;
 25000              		.loc 1 159 0
 25001 0284 D7F8D030 		ldr	r3, [r7, #208]
 25002 0288 03F10403 		add	r3, r3, #4
 25003 028c C7F8D030 		str	r3, [r7, #208]
 160:../Libraries/STM32F4xx_StdPeriph_Driver/src/stm32f4xx_cryp_aes.c ****     AES_CRYP_KeyInitStructure.CRYP_Key3Left = __REV(*(uint32_t*)(keyaddr));
 25004              		.loc 1 160 0
 25005 0290 D7F8D030 		ldr	r3, [r7, #208]
 25006 0294 1B68     		ldr	r3, [r3, #0]
 25007 0296 FB64     		str	r3, [r7, #76]
 25008              	.LBB158:
 25009              	.LBB159:
 352:/home/junpei/workspace/arm/F4_Discovery_Template/Libraries/CMSIS/Include/core_cmInstr.h ****   __ASM volatile ("rev %0, %1" : "=r" (result) : "r" (value) );
 25010              		.loc 7 352 0
 25011 0298 FB6C     		ldr	r3, [r7, #76]
 25012              	@ 352 "/home/junpei/workspace/arm/F4_Discovery_Template/Libraries/CMSIS/Include/core_cmInstr.h" 1
 25013 029a 1CBA     		rev r4, r3
 25014              	@ 0 "" 2
 25015              		.thumb
 25016 029c BC64     		str	r4, [r7, #72]
 25017              		.loc 7 353 0
 25018 029e BB6C     		ldr	r3, [r7, #72]
 25019              	.LBE159:
 25020              	.LBE158:
 25021              		.loc 1 160 0
 25022 02a0 3B63     		str	r3, [r7, #48]
 161:../Libraries/STM32F4xx_StdPeriph_Driver/src/stm32f4xx_cryp_aes.c ****     keyaddr+=4;
 25023              		.loc 1 161 0
 25024 02a2 D7F8D030 		ldr	r3, [r7, #208]
 25025 02a6 03F10403 		add	r3, r3, #4
 25026 02aa C7F8D030 		str	r3, [r7, #208]
 162:../Libraries/STM32F4xx_StdPeriph_Driver/src/stm32f4xx_cryp_aes.c ****     AES_CRYP_KeyInitStructure.CRYP_Key3Right= __REV(*(uint32_t*)(keyaddr));
 25027              		.loc 1 162 0
 25028 02ae D7F8D030 		ldr	r3, [r7, #208]
 25029 02b2 1B68     		ldr	r3, [r3, #0]
 25030 02b4 7B64     		str	r3, [r7, #68]
 25031              	.LBB160:
 25032              	.LBB161:
 352:/home/junpei/workspace/arm/F4_Discovery_Template/Libraries/CMSIS/Include/core_cmInstr.h ****   __ASM volatile ("rev %0, %1" : "=r" (result) : "r" (value) );
 25033              		.loc 7 352 0
 25034 02b6 7B6C     		ldr	r3, [r7, #68]
 25035              	@ 352 "/home/junpei/workspace/arm/F4_Discovery_Template/Libraries/CMSIS/Include/core_cmInstr.h" 1
 25036 02b8 1CBA     		rev r4, r3
 25037              	@ 0 "" 2
 25038              		.thumb
 25039 02ba 3C64     		str	r4, [r7, #64]
 25040              		.loc 7 353 0
 25041 02bc 3B6C     		ldr	r3, [r7, #64]
 25042              	.LBE161:
 25043              	.LBE160:
 25044              		.loc 1 162 0
 25045 02be 7B63     		str	r3, [r7, #52]
 163:../Libraries/STM32F4xx_StdPeriph_Driver/src/stm32f4xx_cryp_aes.c ****     break;
 25046              		.loc 1 163 0
 25047 02c0 00E0     		b	.L6
 25048              	.L19:
 164:../Libraries/STM32F4xx_StdPeriph_Driver/src/stm32f4xx_cryp_aes.c ****     default:
 165:../Libraries/STM32F4xx_StdPeriph_Driver/src/stm32f4xx_cryp_aes.c ****     break;
 25049              		.loc 1 165 0
 25050 02c2 00BF     		nop
 25051              	.L6:
 166:../Libraries/STM32F4xx_StdPeriph_Driver/src/stm32f4xx_cryp_aes.c ****   }
 167:../Libraries/STM32F4xx_StdPeriph_Driver/src/stm32f4xx_cryp_aes.c **** 
 168:../Libraries/STM32F4xx_StdPeriph_Driver/src/stm32f4xx_cryp_aes.c ****   /*------------------ AES Decryption ------------------*/
 169:../Libraries/STM32F4xx_StdPeriph_Driver/src/stm32f4xx_cryp_aes.c ****   if(Mode == MODE_DECRYPT) /* AES decryption */
 25052              		.loc 1 169 0
 25053 02c4 FB7B     		ldrb	r3, [r7, #15]	@ zero_extendqisi2
 25054 02c6 002B     		cmp	r3, #0
 25055 02c8 38D1     		bne	.L7
 170:../Libraries/STM32F4xx_StdPeriph_Driver/src/stm32f4xx_cryp_aes.c ****   {
 171:../Libraries/STM32F4xx_StdPeriph_Driver/src/stm32f4xx_cryp_aes.c ****     /* Flush IN/OUT FIFOs */
 172:../Libraries/STM32F4xx_StdPeriph_Driver/src/stm32f4xx_cryp_aes.c ****     CRYP_FIFOFlush();
 25056              		.loc 1 172 0
 25057 02ca FFF7FEFF 		bl	CRYP_FIFOFlush
 173:../Libraries/STM32F4xx_StdPeriph_Driver/src/stm32f4xx_cryp_aes.c **** 
 174:../Libraries/STM32F4xx_StdPeriph_Driver/src/stm32f4xx_cryp_aes.c ****     /* Crypto Init for Key preparation for decryption process */
 175:../Libraries/STM32F4xx_StdPeriph_Driver/src/stm32f4xx_cryp_aes.c ****     AES_CRYP_InitStructure.CRYP_AlgoDir = CRYP_AlgoDir_Decrypt;
 25058              		.loc 1 175 0
 25059 02ce 4FF00403 		mov	r3, #4
 25060 02d2 3B87     		strh	r3, [r7, #56]	@ movhi
 176:../Libraries/STM32F4xx_StdPeriph_Driver/src/stm32f4xx_cryp_aes.c ****     AES_CRYP_InitStructure.CRYP_AlgoMode = CRYP_AlgoMode_AES_Key;
 25061              		.loc 1 176 0
 25062 02d4 4FF03803 		mov	r3, #56
 25063 02d8 7B87     		strh	r3, [r7, #58]	@ movhi
 177:../Libraries/STM32F4xx_StdPeriph_Driver/src/stm32f4xx_cryp_aes.c ****     AES_CRYP_InitStructure.CRYP_DataType = CRYP_DataType_32b;
 25064              		.loc 1 177 0
 25065 02da 4FF00003 		mov	r3, #0
 25066 02de BB87     		strh	r3, [r7, #60]	@ movhi
 178:../Libraries/STM32F4xx_StdPeriph_Driver/src/stm32f4xx_cryp_aes.c ****     CRYP_Init(&AES_CRYP_InitStructure);
 25067              		.loc 1 178 0
 25068 02e0 07F13803 		add	r3, r7, #56
 25069 02e4 1846     		mov	r0, r3
 25070 02e6 FFF7FEFF 		bl	CRYP_Init
 179:../Libraries/STM32F4xx_StdPeriph_Driver/src/stm32f4xx_cryp_aes.c **** 
 180:../Libraries/STM32F4xx_StdPeriph_Driver/src/stm32f4xx_cryp_aes.c ****     /* Key Initialisation */
 181:../Libraries/STM32F4xx_StdPeriph_Driver/src/stm32f4xx_cryp_aes.c ****     CRYP_KeyInit(&AES_CRYP_KeyInitStructure);
 25071              		.loc 1 181 0
 25072 02ea 07F11803 		add	r3, r7, #24
 25073 02ee 1846     		mov	r0, r3
 25074 02f0 FFF7FEFF 		bl	CRYP_KeyInit
 182:../Libraries/STM32F4xx_StdPeriph_Driver/src/stm32f4xx_cryp_aes.c **** 
 183:../Libraries/STM32F4xx_StdPeriph_Driver/src/stm32f4xx_cryp_aes.c ****     /* Enable Crypto processor */
 184:../Libraries/STM32F4xx_StdPeriph_Driver/src/stm32f4xx_cryp_aes.c ****     CRYP_Cmd(ENABLE);
 25075              		.loc 1 184 0
 25076 02f4 4FF00100 		mov	r0, #1
 25077 02f8 FFF7FEFF 		bl	CRYP_Cmd
 25078              	.L9:
 185:../Libraries/STM32F4xx_StdPeriph_Driver/src/stm32f4xx_cryp_aes.c **** 
 186:../Libraries/STM32F4xx_StdPeriph_Driver/src/stm32f4xx_cryp_aes.c ****     /* wait until the Busy flag is RESET */
 187:../Libraries/STM32F4xx_StdPeriph_Driver/src/stm32f4xx_cryp_aes.c ****     do
 188:../Libraries/STM32F4xx_StdPeriph_Driver/src/stm32f4xx_cryp_aes.c ****     {
 189:../Libraries/STM32F4xx_StdPeriph_Driver/src/stm32f4xx_cryp_aes.c ****       busystatus = CRYP_GetFlagStatus(CRYP_FLAG_BUSY);
 25079              		.loc 1 189 0 discriminator 1
 25080 02fc 4FF01000 		mov	r0, #16
 25081 0300 FFF7FEFF 		bl	CRYP_GetFlagStatus
 25082 0304 0346     		mov	r3, r0
 25083 0306 C7F8D430 		str	r3, [r7, #212]
 190:../Libraries/STM32F4xx_StdPeriph_Driver/src/stm32f4xx_cryp_aes.c ****       counter++;
 25084              		.loc 1 190 0 discriminator 1
 25085 030a 7B69     		ldr	r3, [r7, #20]
 25086 030c 03F10103 		add	r3, r3, #1
 25087 0310 7B61     		str	r3, [r7, #20]
 191:../Libraries/STM32F4xx_StdPeriph_Driver/src/stm32f4xx_cryp_aes.c ****     }while ((counter != AESBUSY_TIMEOUT) && (busystatus != RESET));
 25088              		.loc 1 191 0 discriminator 1
 25089 0312 7B69     		ldr	r3, [r7, #20]
 25090 0314 B3F5803F 		cmp	r3, #65536
 25091 0318 03D0     		beq	.L8
 25092 031a D7F8D430 		ldr	r3, [r7, #212]
 25093 031e 002B     		cmp	r3, #0
 25094 0320 ECD1     		bne	.L9
 25095              	.L8:
 192:../Libraries/STM32F4xx_StdPeriph_Driver/src/stm32f4xx_cryp_aes.c **** 
 193:../Libraries/STM32F4xx_StdPeriph_Driver/src/stm32f4xx_cryp_aes.c ****     if (busystatus != RESET)
 25096              		.loc 1 193 0
 25097 0322 D7F8D430 		ldr	r3, [r7, #212]
 25098 0326 002B     		cmp	r3, #0
 25099 0328 04D0     		beq	.L10
 194:../Libraries/STM32F4xx_StdPeriph_Driver/src/stm32f4xx_cryp_aes.c ****    {
 195:../Libraries/STM32F4xx_StdPeriph_Driver/src/stm32f4xx_cryp_aes.c ****        status = ERROR;
 25100              		.loc 1 195 0
 25101 032a 4FF00003 		mov	r3, #0
 25102 032e 87F8E730 		strb	r3, [r7, #231]
 25103 0332 0BE0     		b	.L11
 25104              	.L10:
 196:../Libraries/STM32F4xx_StdPeriph_Driver/src/stm32f4xx_cryp_aes.c ****     }
 197:../Libraries/STM32F4xx_StdPeriph_Driver/src/stm32f4xx_cryp_aes.c ****     else
 198:../Libraries/STM32F4xx_StdPeriph_Driver/src/stm32f4xx_cryp_aes.c ****     {
 199:../Libraries/STM32F4xx_StdPeriph_Driver/src/stm32f4xx_cryp_aes.c ****       /* Crypto Init for decryption process */  
 200:../Libraries/STM32F4xx_StdPeriph_Driver/src/stm32f4xx_cryp_aes.c ****       AES_CRYP_InitStructure.CRYP_AlgoDir = CRYP_AlgoDir_Decrypt;
 25105              		.loc 1 200 0
 25106 0334 4FF00403 		mov	r3, #4
 25107 0338 3B87     		strh	r3, [r7, #56]	@ movhi
 25108 033a 07E0     		b	.L11
 25109              	.L7:
 201:../Libraries/STM32F4xx_StdPeriph_Driver/src/stm32f4xx_cryp_aes.c ****     }
 202:../Libraries/STM32F4xx_StdPeriph_Driver/src/stm32f4xx_cryp_aes.c ****   }
 203:../Libraries/STM32F4xx_StdPeriph_Driver/src/stm32f4xx_cryp_aes.c ****   /*------------------ AES Encryption ------------------*/
 204:../Libraries/STM32F4xx_StdPeriph_Driver/src/stm32f4xx_cryp_aes.c ****   else /* AES encryption */
 205:../Libraries/STM32F4xx_StdPeriph_Driver/src/stm32f4xx_cryp_aes.c ****   {
 206:../Libraries/STM32F4xx_StdPeriph_Driver/src/stm32f4xx_cryp_aes.c **** 
 207:../Libraries/STM32F4xx_StdPeriph_Driver/src/stm32f4xx_cryp_aes.c ****     CRYP_KeyInit(&AES_CRYP_KeyInitStructure);
 25110              		.loc 1 207 0
 25111 033c 07F11803 		add	r3, r7, #24
 25112 0340 1846     		mov	r0, r3
 25113 0342 FFF7FEFF 		bl	CRYP_KeyInit
 208:../Libraries/STM32F4xx_StdPeriph_Driver/src/stm32f4xx_cryp_aes.c **** 
 209:../Libraries/STM32F4xx_StdPeriph_Driver/src/stm32f4xx_cryp_aes.c ****     /* Crypto Init for Encryption process */
 210:../Libraries/STM32F4xx_StdPeriph_Driver/src/stm32f4xx_cryp_aes.c ****     AES_CRYP_InitStructure.CRYP_AlgoDir  = CRYP_AlgoDir_Encrypt;
 25114              		.loc 1 210 0
 25115 0346 4FF00003 		mov	r3, #0
 25116 034a 3B87     		strh	r3, [r7, #56]	@ movhi
 25117              	.L11:
 211:../Libraries/STM32F4xx_StdPeriph_Driver/src/stm32f4xx_cryp_aes.c ****   }
 212:../Libraries/STM32F4xx_StdPeriph_Driver/src/stm32f4xx_cryp_aes.c **** 
 213:../Libraries/STM32F4xx_StdPeriph_Driver/src/stm32f4xx_cryp_aes.c ****   AES_CRYP_InitStructure.CRYP_AlgoMode = CRYP_AlgoMode_AES_ECB;
 25118              		.loc 1 213 0
 25119 034c 4FF02003 		mov	r3, #32
 25120 0350 7B87     		strh	r3, [r7, #58]	@ movhi
 214:../Libraries/STM32F4xx_StdPeriph_Driver/src/stm32f4xx_cryp_aes.c ****   AES_CRYP_InitStructure.CRYP_DataType = CRYP_DataType_8b;
 25121              		.loc 1 214 0
 25122 0352 4FF08003 		mov	r3, #128
 25123 0356 BB87     		strh	r3, [r7, #60]	@ movhi
 215:../Libraries/STM32F4xx_StdPeriph_Driver/src/stm32f4xx_cryp_aes.c ****   CRYP_Init(&AES_CRYP_InitStructure);
 25124              		.loc 1 215 0
 25125 0358 07F13803 		add	r3, r7, #56
 25126 035c 1846     		mov	r0, r3
 25127 035e FFF7FEFF 		bl	CRYP_Init
 216:../Libraries/STM32F4xx_StdPeriph_Driver/src/stm32f4xx_cryp_aes.c **** 
 217:../Libraries/STM32F4xx_StdPeriph_Driver/src/stm32f4xx_cryp_aes.c ****   /* Flush IN/OUT FIFOs */
 218:../Libraries/STM32F4xx_StdPeriph_Driver/src/stm32f4xx_cryp_aes.c ****   CRYP_FIFOFlush();
 25128              		.loc 1 218 0
 25129 0362 FFF7FEFF 		bl	CRYP_FIFOFlush
 219:../Libraries/STM32F4xx_StdPeriph_Driver/src/stm32f4xx_cryp_aes.c **** 
 220:../Libraries/STM32F4xx_StdPeriph_Driver/src/stm32f4xx_cryp_aes.c ****   /* Enable Crypto processor */
 221:../Libraries/STM32F4xx_StdPeriph_Driver/src/stm32f4xx_cryp_aes.c ****   CRYP_Cmd(ENABLE);
 25130              		.loc 1 221 0
 25131 0366 4FF00100 		mov	r0, #1
 25132 036a FFF7FEFF 		bl	CRYP_Cmd
 222:../Libraries/STM32F4xx_StdPeriph_Driver/src/stm32f4xx_cryp_aes.c **** 
 223:../Libraries/STM32F4xx_StdPeriph_Driver/src/stm32f4xx_cryp_aes.c ****   for(i=0; ((i<Ilength) && (status != ERROR)); i+=16)
 25133              		.loc 1 223 0
 25134 036e 4FF00003 		mov	r3, #0
 25135 0372 C7F8D830 		str	r3, [r7, #216]
 25136 0376 84E0     		b	.L12
 25137              	.L18:
 224:../Libraries/STM32F4xx_StdPeriph_Driver/src/stm32f4xx_cryp_aes.c ****   {
 225:../Libraries/STM32F4xx_StdPeriph_Driver/src/stm32f4xx_cryp_aes.c **** 
 226:../Libraries/STM32F4xx_StdPeriph_Driver/src/stm32f4xx_cryp_aes.c ****     /* Write the Input block in the IN FIFO */
 227:../Libraries/STM32F4xx_StdPeriph_Driver/src/stm32f4xx_cryp_aes.c ****     CRYP_DataIn(*(uint32_t*)(inputaddr));
 25138              		.loc 1 227 0
 25139 0378 D7F8E030 		ldr	r3, [r7, #224]
 25140 037c 1B68     		ldr	r3, [r3, #0]
 25141 037e 1846     		mov	r0, r3
 25142 0380 FFF7FEFF 		bl	CRYP_DataIn
 228:../Libraries/STM32F4xx_StdPeriph_Driver/src/stm32f4xx_cryp_aes.c ****     inputaddr+=4;
 25143              		.loc 1 228 0
 25144 0384 D7F8E030 		ldr	r3, [r7, #224]
 25145 0388 03F10403 		add	r3, r3, #4
 25146 038c C7F8E030 		str	r3, [r7, #224]
 229:../Libraries/STM32F4xx_StdPeriph_Driver/src/stm32f4xx_cryp_aes.c ****     CRYP_DataIn(*(uint32_t*)(inputaddr));
 25147              		.loc 1 229 0
 25148 0390 D7F8E030 		ldr	r3, [r7, #224]
 25149 0394 1B68     		ldr	r3, [r3, #0]
 25150 0396 1846     		mov	r0, r3
 25151 0398 FFF7FEFF 		bl	CRYP_DataIn
 230:../Libraries/STM32F4xx_StdPeriph_Driver/src/stm32f4xx_cryp_aes.c ****     inputaddr+=4;
 25152              		.loc 1 230 0
 25153 039c D7F8E030 		ldr	r3, [r7, #224]
 25154 03a0 03F10403 		add	r3, r3, #4
 25155 03a4 C7F8E030 		str	r3, [r7, #224]
 231:../Libraries/STM32F4xx_StdPeriph_Driver/src/stm32f4xx_cryp_aes.c ****     CRYP_DataIn(*(uint32_t*)(inputaddr));
 25156              		.loc 1 231 0
 25157 03a8 D7F8E030 		ldr	r3, [r7, #224]
 25158 03ac 1B68     		ldr	r3, [r3, #0]
 25159 03ae 1846     		mov	r0, r3
 25160 03b0 FFF7FEFF 		bl	CRYP_DataIn
 232:../Libraries/STM32F4xx_StdPeriph_Driver/src/stm32f4xx_cryp_aes.c ****     inputaddr+=4;
 25161              		.loc 1 232 0
 25162 03b4 D7F8E030 		ldr	r3, [r7, #224]
 25163 03b8 03F10403 		add	r3, r3, #4
 25164 03bc C7F8E030 		str	r3, [r7, #224]
 233:../Libraries/STM32F4xx_StdPeriph_Driver/src/stm32f4xx_cryp_aes.c ****     CRYP_DataIn(*(uint32_t*)(inputaddr));
 25165              		.loc 1 233 0
 25166 03c0 D7F8E030 		ldr	r3, [r7, #224]
 25167 03c4 1B68     		ldr	r3, [r3, #0]
 25168 03c6 1846     		mov	r0, r3
 25169 03c8 FFF7FEFF 		bl	CRYP_DataIn
 234:../Libraries/STM32F4xx_StdPeriph_Driver/src/stm32f4xx_cryp_aes.c ****     inputaddr+=4;
 25170              		.loc 1 234 0
 25171 03cc D7F8E030 		ldr	r3, [r7, #224]
 25172 03d0 03F10403 		add	r3, r3, #4
 25173 03d4 C7F8E030 		str	r3, [r7, #224]
 235:../Libraries/STM32F4xx_StdPeriph_Driver/src/stm32f4xx_cryp_aes.c **** 
 236:../Libraries/STM32F4xx_StdPeriph_Driver/src/stm32f4xx_cryp_aes.c ****     /* Wait until the complete message has been processed */
 237:../Libraries/STM32F4xx_StdPeriph_Driver/src/stm32f4xx_cryp_aes.c ****     counter = 0;
 25174              		.loc 1 237 0
 25175 03d8 4FF00003 		mov	r3, #0
 25176 03dc 7B61     		str	r3, [r7, #20]
 25177              	.L14:
 238:../Libraries/STM32F4xx_StdPeriph_Driver/src/stm32f4xx_cryp_aes.c ****     do
 239:../Libraries/STM32F4xx_StdPeriph_Driver/src/stm32f4xx_cryp_aes.c ****     {
 240:../Libraries/STM32F4xx_StdPeriph_Driver/src/stm32f4xx_cryp_aes.c ****       busystatus = CRYP_GetFlagStatus(CRYP_FLAG_BUSY);
 25178              		.loc 1 240 0 discriminator 1
 25179 03de 4FF01000 		mov	r0, #16
 25180 03e2 FFF7FEFF 		bl	CRYP_GetFlagStatus
 25181 03e6 0346     		mov	r3, r0
 25182 03e8 C7F8D430 		str	r3, [r7, #212]
 241:../Libraries/STM32F4xx_StdPeriph_Driver/src/stm32f4xx_cryp_aes.c ****       counter++;
 25183              		.loc 1 241 0 discriminator 1
 25184 03ec 7B69     		ldr	r3, [r7, #20]
 25185 03ee 03F10103 		add	r3, r3, #1
 25186 03f2 7B61     		str	r3, [r7, #20]
 242:../Libraries/STM32F4xx_StdPeriph_Driver/src/stm32f4xx_cryp_aes.c ****     }while ((counter != AESBUSY_TIMEOUT) && (busystatus != RESET));
 25187              		.loc 1 242 0 discriminator 1
 25188 03f4 7B69     		ldr	r3, [r7, #20]
 25189 03f6 B3F5803F 		cmp	r3, #65536
 25190 03fa 03D0     		beq	.L13
 25191 03fc D7F8D430 		ldr	r3, [r7, #212]
 25192 0400 002B     		cmp	r3, #0
 25193 0402 ECD1     		bne	.L14
 25194              	.L13:
 243:../Libraries/STM32F4xx_StdPeriph_Driver/src/stm32f4xx_cryp_aes.c **** 
 244:../Libraries/STM32F4xx_StdPeriph_Driver/src/stm32f4xx_cryp_aes.c ****     if (busystatus != RESET)
 25195              		.loc 1 244 0
 25196 0404 D7F8D430 		ldr	r3, [r7, #212]
 25197 0408 002B     		cmp	r3, #0
 25198 040a 04D0     		beq	.L15
 245:../Libraries/STM32F4xx_StdPeriph_Driver/src/stm32f4xx_cryp_aes.c ****    {
 246:../Libraries/STM32F4xx_StdPeriph_Driver/src/stm32f4xx_cryp_aes.c ****        status = ERROR;
 25199              		.loc 1 246 0
 25200 040c 4FF00003 		mov	r3, #0
 25201 0410 87F8E730 		strb	r3, [r7, #231]
 25202 0414 2FE0     		b	.L16
 25203              	.L15:
 247:../Libraries/STM32F4xx_StdPeriph_Driver/src/stm32f4xx_cryp_aes.c ****     }
 248:../Libraries/STM32F4xx_StdPeriph_Driver/src/stm32f4xx_cryp_aes.c ****     else
 249:../Libraries/STM32F4xx_StdPeriph_Driver/src/stm32f4xx_cryp_aes.c ****     {
 250:../Libraries/STM32F4xx_StdPeriph_Driver/src/stm32f4xx_cryp_aes.c **** 
 251:../Libraries/STM32F4xx_StdPeriph_Driver/src/stm32f4xx_cryp_aes.c ****       /* Read the Output block from the Output FIFO */
 252:../Libraries/STM32F4xx_StdPeriph_Driver/src/stm32f4xx_cryp_aes.c ****       *(uint32_t*)(outputaddr) = CRYP_DataOut();
 25204              		.loc 1 252 0
 25205 0416 D7F8DC40 		ldr	r4, [r7, #220]
 25206 041a FFF7FEFF 		bl	CRYP_DataOut
 25207 041e 0346     		mov	r3, r0
 25208 0420 2360     		str	r3, [r4, #0]
 253:../Libraries/STM32F4xx_StdPeriph_Driver/src/stm32f4xx_cryp_aes.c ****       outputaddr+=4;
 25209              		.loc 1 253 0
 25210 0422 D7F8DC30 		ldr	r3, [r7, #220]
 25211 0426 03F10403 		add	r3, r3, #4
 25212 042a C7F8DC30 		str	r3, [r7, #220]
 254:../Libraries/STM32F4xx_StdPeriph_Driver/src/stm32f4xx_cryp_aes.c ****       *(uint32_t*)(outputaddr) = CRYP_DataOut();
 25213              		.loc 1 254 0
 25214 042e D7F8DC40 		ldr	r4, [r7, #220]
 25215 0432 FFF7FEFF 		bl	CRYP_DataOut
 25216 0436 0346     		mov	r3, r0
 25217 0438 2360     		str	r3, [r4, #0]
 255:../Libraries/STM32F4xx_StdPeriph_Driver/src/stm32f4xx_cryp_aes.c ****       outputaddr+=4;
 25218              		.loc 1 255 0
 25219 043a D7F8DC30 		ldr	r3, [r7, #220]
 25220 043e 03F10403 		add	r3, r3, #4
 25221 0442 C7F8DC30 		str	r3, [r7, #220]
 256:../Libraries/STM32F4xx_StdPeriph_Driver/src/stm32f4xx_cryp_aes.c ****       *(uint32_t*)(outputaddr) = CRYP_DataOut();
 25222              		.loc 1 256 0
 25223 0446 D7F8DC40 		ldr	r4, [r7, #220]
 25224 044a FFF7FEFF 		bl	CRYP_DataOut
 25225 044e 0346     		mov	r3, r0
 25226 0450 2360     		str	r3, [r4, #0]
 257:../Libraries/STM32F4xx_StdPeriph_Driver/src/stm32f4xx_cryp_aes.c ****       outputaddr+=4;
 25227              		.loc 1 257 0
 25228 0452 D7F8DC30 		ldr	r3, [r7, #220]
 25229 0456 03F10403 		add	r3, r3, #4
 25230 045a C7F8DC30 		str	r3, [r7, #220]
 258:../Libraries/STM32F4xx_StdPeriph_Driver/src/stm32f4xx_cryp_aes.c ****       *(uint32_t*)(outputaddr) = CRYP_DataOut(); 
 25231              		.loc 1 258 0
 25232 045e D7F8DC40 		ldr	r4, [r7, #220]
 25233 0462 FFF7FEFF 		bl	CRYP_DataOut
 25234 0466 0346     		mov	r3, r0
 25235 0468 2360     		str	r3, [r4, #0]
 259:../Libraries/STM32F4xx_StdPeriph_Driver/src/stm32f4xx_cryp_aes.c ****       outputaddr+=4;
 25236              		.loc 1 259 0
 25237 046a D7F8DC30 		ldr	r3, [r7, #220]
 25238 046e 03F10403 		add	r3, r3, #4
 25239 0472 C7F8DC30 		str	r3, [r7, #220]
 25240              	.L16:
 223:../Libraries/STM32F4xx_StdPeriph_Driver/src/stm32f4xx_cryp_aes.c ****   for(i=0; ((i<Ilength) && (status != ERROR)); i+=16)
 25241              		.loc 1 223 0
 25242 0476 D7F8D830 		ldr	r3, [r7, #216]
 25243 047a 03F11003 		add	r3, r3, #16
 25244 047e C7F8D830 		str	r3, [r7, #216]
 25245              	.L12:
 223:../Libraries/STM32F4xx_StdPeriph_Driver/src/stm32f4xx_cryp_aes.c ****   for(i=0; ((i<Ilength) && (status != ERROR)); i+=16)
 25246              		.loc 1 223 0 is_stmt 0 discriminator 1
 25247 0482 D7F8D820 		ldr	r2, [r7, #216]
 25248 0486 D7F8F830 		ldr	r3, [r7, #248]
 25249 048a 9A42     		cmp	r2, r3
 25250 048c 04D2     		bcs	.L17
 223:../Libraries/STM32F4xx_StdPeriph_Driver/src/stm32f4xx_cryp_aes.c ****   for(i=0; ((i<Ilength) && (status != ERROR)); i+=16)
 25251              		.loc 1 223 0 discriminator 2
 25252 048e 97F8E730 		ldrb	r3, [r7, #231]	@ zero_extendqisi2
 25253 0492 002B     		cmp	r3, #0
 25254 0494 7FF470AF 		bne	.L18
 25255              	.L17:
 260:../Libraries/STM32F4xx_StdPeriph_Driver/src/stm32f4xx_cryp_aes.c ****     }
 261:../Libraries/STM32F4xx_StdPeriph_Driver/src/stm32f4xx_cryp_aes.c ****   }
 262:../Libraries/STM32F4xx_StdPeriph_Driver/src/stm32f4xx_cryp_aes.c **** 
 263:../Libraries/STM32F4xx_StdPeriph_Driver/src/stm32f4xx_cryp_aes.c ****   /* Disable Crypto */
 264:../Libraries/STM32F4xx_StdPeriph_Driver/src/stm32f4xx_cryp_aes.c ****   CRYP_Cmd(DISABLE);
 25256              		.loc 1 264 0 is_stmt 1
 25257 0498 4FF00000 		mov	r0, #0
 25258 049c FFF7FEFF 		bl	CRYP_Cmd
 265:../Libraries/STM32F4xx_StdPeriph_Driver/src/stm32f4xx_cryp_aes.c **** 
 266:../Libraries/STM32F4xx_StdPeriph_Driver/src/stm32f4xx_cryp_aes.c ****   return status; 
 25259              		.loc 1 266 0
 25260 04a0 97F8E730 		ldrb	r3, [r7, #231]	@ zero_extendqisi2
 267:../Libraries/STM32F4xx_StdPeriph_Driver/src/stm32f4xx_cryp_aes.c **** }
 25261              		.loc 1 267 0
 25262 04a4 1846     		mov	r0, r3
 25263 04a6 07F1EC07 		add	r7, r7, #236
 25264 04aa BD46     		mov	sp, r7
 25265 04ac 90BD     		pop	{r4, r7, pc}
 25266              		.cfi_endproc
 25267              	.LFE110:
 25269 04ae 00BF     		.align	2
 25270              		.global	CRYP_AES_CBC
 25271              		.thumb
 25272              		.thumb_func
 25274              	CRYP_AES_CBC:
 25275              	.LFB111:
 268:../Libraries/STM32F4xx_StdPeriph_Driver/src/stm32f4xx_cryp_aes.c **** 
 269:../Libraries/STM32F4xx_StdPeriph_Driver/src/stm32f4xx_cryp_aes.c **** /**
 270:../Libraries/STM32F4xx_StdPeriph_Driver/src/stm32f4xx_cryp_aes.c ****   * @brief  Encrypt and decrypt using AES in CBC Mode
 271:../Libraries/STM32F4xx_StdPeriph_Driver/src/stm32f4xx_cryp_aes.c ****   * @param  Mode: encryption or decryption Mode.
 272:../Libraries/STM32F4xx_StdPeriph_Driver/src/stm32f4xx_cryp_aes.c ****   *          This parameter can be one of the following values:
 273:../Libraries/STM32F4xx_StdPeriph_Driver/src/stm32f4xx_cryp_aes.c ****   *            @arg MODE_ENCRYPT: Encryption
 274:../Libraries/STM32F4xx_StdPeriph_Driver/src/stm32f4xx_cryp_aes.c ****   *            @arg MODE_DECRYPT: Decryption
 275:../Libraries/STM32F4xx_StdPeriph_Driver/src/stm32f4xx_cryp_aes.c ****   * @param  InitVectors: Initialisation Vectors used for AES algorithm.
 276:../Libraries/STM32F4xx_StdPeriph_Driver/src/stm32f4xx_cryp_aes.c ****   * @param  Key: Key used for AES algorithm.
 277:../Libraries/STM32F4xx_StdPeriph_Driver/src/stm32f4xx_cryp_aes.c ****   * @param  Keysize: length of the Key, must be a 128, 192 or 256.
 278:../Libraries/STM32F4xx_StdPeriph_Driver/src/stm32f4xx_cryp_aes.c ****   * @param  Input: pointer to the Input buffer.
 279:../Libraries/STM32F4xx_StdPeriph_Driver/src/stm32f4xx_cryp_aes.c ****   * @param  Ilength: length of the Input buffer, must be a multiple of 16.
 280:../Libraries/STM32F4xx_StdPeriph_Driver/src/stm32f4xx_cryp_aes.c ****   * @param  Output: pointer to the returned buffer.
 281:../Libraries/STM32F4xx_StdPeriph_Driver/src/stm32f4xx_cryp_aes.c ****   * @retval An ErrorStatus enumeration value:
 282:../Libraries/STM32F4xx_StdPeriph_Driver/src/stm32f4xx_cryp_aes.c ****   *          - SUCCESS: Operation done
 283:../Libraries/STM32F4xx_StdPeriph_Driver/src/stm32f4xx_cryp_aes.c ****   *          - ERROR: Operation failed
 284:../Libraries/STM32F4xx_StdPeriph_Driver/src/stm32f4xx_cryp_aes.c ****   */
 285:../Libraries/STM32F4xx_StdPeriph_Driver/src/stm32f4xx_cryp_aes.c **** ErrorStatus CRYP_AES_CBC(uint8_t Mode, uint8_t InitVectors[16], uint8_t *Key,
 286:../Libraries/STM32F4xx_StdPeriph_Driver/src/stm32f4xx_cryp_aes.c ****                          uint16_t Keysize, uint8_t *Input, uint32_t Ilength,
 287:../Libraries/STM32F4xx_StdPeriph_Driver/src/stm32f4xx_cryp_aes.c ****                          uint8_t *Output)
 288:../Libraries/STM32F4xx_StdPeriph_Driver/src/stm32f4xx_cryp_aes.c **** {
 25276              		.loc 1 288 0
 25277              		.cfi_startproc
 25278              		@ args = 12, pretend = 0, frame = 280
 25279              		@ frame_needed = 1, uses_anonymous_args = 0
 25280 04b0 90B5     		push	{r4, r7, lr}
 25281              	.LCFI3:
 25282              		.cfi_def_cfa_offset 12
 25283 04b2 C7B0     		sub	sp, sp, #284
 25284              	.LCFI4:
 25285              		.cfi_def_cfa_offset 296
 25286 04b4 00AF     		add	r7, sp, #0
 25287              		.cfi_offset 14, -4
 25288              		.cfi_offset 7, -8
 25289              		.cfi_offset 4, -12
 25290              	.LCFI5:
 25291              		.cfi_def_cfa_register 7
 25292 04b6 07F10804 		add	r4, r7, #8
 25293 04ba 2160     		str	r1, [r4, #0]
 25294 04bc 07F10401 		add	r1, r7, #4
 25295 04c0 0A60     		str	r2, [r1, #0]
 25296 04c2 1A46     		mov	r2, r3
 25297 04c4 07F11003 		add	r3, r7, #16
 25298 04c8 03F1FF33 		add	r3, r3, #-1
 25299 04cc 0146     		mov	r1, r0
 25300 04ce 1970     		strb	r1, [r3, #0]
 25301 04d0 07F10203 		add	r3, r7, #2
 25302 04d4 1A80     		strh	r2, [r3, #0]	@ movhi
 289:../Libraries/STM32F4xx_StdPeriph_Driver/src/stm32f4xx_cryp_aes.c ****   CRYP_InitTypeDef AES_CRYP_InitStructure;
 290:../Libraries/STM32F4xx_StdPeriph_Driver/src/stm32f4xx_cryp_aes.c ****   CRYP_KeyInitTypeDef AES_CRYP_KeyInitStructure;
 291:../Libraries/STM32F4xx_StdPeriph_Driver/src/stm32f4xx_cryp_aes.c ****   CRYP_IVInitTypeDef AES_CRYP_IVInitStructure;
 292:../Libraries/STM32F4xx_StdPeriph_Driver/src/stm32f4xx_cryp_aes.c ****   __IO uint32_t counter = 0;
 25303              		.loc 1 292 0
 25304 04d6 07F11003 		add	r3, r7, #16
 25305 04da 4FF00002 		mov	r2, #0
 25306 04de 1A60     		str	r2, [r3, #0]
 293:../Libraries/STM32F4xx_StdPeriph_Driver/src/stm32f4xx_cryp_aes.c ****   uint32_t busystatus = 0;
 25307              		.loc 1 293 0
 25308 04e0 4FF00003 		mov	r3, #0
 25309 04e4 C7F80431 		str	r3, [r7, #260]
 294:../Libraries/STM32F4xx_StdPeriph_Driver/src/stm32f4xx_cryp_aes.c ****   ErrorStatus status = SUCCESS;
 25310              		.loc 1 294 0
 25311 04e8 4FF00103 		mov	r3, #1
 25312 04ec 87F81731 		strb	r3, [r7, #279]
 295:../Libraries/STM32F4xx_StdPeriph_Driver/src/stm32f4xx_cryp_aes.c ****   uint32_t keyaddr    = (uint32_t)Key;
 25313              		.loc 1 295 0
 25314 04f0 07F10403 		add	r3, r7, #4
 25315 04f4 1B68     		ldr	r3, [r3, #0]
 25316 04f6 C7F80031 		str	r3, [r7, #256]
 296:../Libraries/STM32F4xx_StdPeriph_Driver/src/stm32f4xx_cryp_aes.c ****   uint32_t inputaddr  = (uint32_t)Input;
 25317              		.loc 1 296 0
 25318 04fa D7F82831 		ldr	r3, [r7, #296]
 25319 04fe C7F81031 		str	r3, [r7, #272]
 297:../Libraries/STM32F4xx_StdPeriph_Driver/src/stm32f4xx_cryp_aes.c ****   uint32_t outputaddr = (uint32_t)Output;
 25320              		.loc 1 297 0
 25321 0502 D7F83031 		ldr	r3, [r7, #304]
 25322 0506 C7F80C31 		str	r3, [r7, #268]
 298:../Libraries/STM32F4xx_StdPeriph_Driver/src/stm32f4xx_cryp_aes.c ****   uint32_t ivaddr     = (uint32_t)InitVectors;
 25323              		.loc 1 298 0
 25324 050a 07F10803 		add	r3, r7, #8
 25325 050e 1B68     		ldr	r3, [r3, #0]
 25326 0510 C7F8FC30 		str	r3, [r7, #252]
 299:../Libraries/STM32F4xx_StdPeriph_Driver/src/stm32f4xx_cryp_aes.c ****   uint32_t i = 0;
 25327              		.loc 1 299 0
 25328 0514 4FF00003 		mov	r3, #0
 25329 0518 C7F80831 		str	r3, [r7, #264]
 300:../Libraries/STM32F4xx_StdPeriph_Driver/src/stm32f4xx_cryp_aes.c **** 
 301:../Libraries/STM32F4xx_StdPeriph_Driver/src/stm32f4xx_cryp_aes.c ****   /* Crypto structures initialisation*/
 302:../Libraries/STM32F4xx_StdPeriph_Driver/src/stm32f4xx_cryp_aes.c ****   CRYP_KeyStructInit(&AES_CRYP_KeyInitStructure);
 25330              		.loc 1 302 0
 25331 051c 07F12403 		add	r3, r7, #36
 25332 0520 1846     		mov	r0, r3
 25333 0522 FFF7FEFF 		bl	CRYP_KeyStructInit
 303:../Libraries/STM32F4xx_StdPeriph_Driver/src/stm32f4xx_cryp_aes.c **** 
 304:../Libraries/STM32F4xx_StdPeriph_Driver/src/stm32f4xx_cryp_aes.c ****   switch(Keysize)
 25334              		.loc 1 304 0
 25335 0526 07F10203 		add	r3, r7, #2
 25336 052a 1B88     		ldrh	r3, [r3, #0]
 25337 052c C02B     		cmp	r3, #192
 25338 052e 51D0     		beq	.L23
 25339 0530 B3F5807F 		cmp	r3, #256
 25340 0534 00F0BF80 		beq	.L24
 25341 0538 802B     		cmp	r3, #128
 25342 053a 40F04981 		bne	.L38
 25343              	.L22:
 305:../Libraries/STM32F4xx_StdPeriph_Driver/src/stm32f4xx_cryp_aes.c ****   {
 306:../Libraries/STM32F4xx_StdPeriph_Driver/src/stm32f4xx_cryp_aes.c ****     case 128:
 307:../Libraries/STM32F4xx_StdPeriph_Driver/src/stm32f4xx_cryp_aes.c ****     AES_CRYP_InitStructure.CRYP_KeySize = CRYP_KeySize_128b;
 25344              		.loc 1 307 0
 25345 053e 4FF00003 		mov	r3, #0
 25346 0542 A7F84A30 		strh	r3, [r7, #74]	@ movhi
 308:../Libraries/STM32F4xx_StdPeriph_Driver/src/stm32f4xx_cryp_aes.c ****     AES_CRYP_KeyInitStructure.CRYP_Key2Left = __REV(*(uint32_t*)(keyaddr));
 25347              		.loc 1 308 0
 25348 0546 D7F80031 		ldr	r3, [r7, #256]
 25349 054a 1B68     		ldr	r3, [r3, #0]
 25350 054c C7F8F830 		str	r3, [r7, #248]
 25351              	.LBB162:
 25352              	.LBB163:
 352:/home/junpei/workspace/arm/F4_Discovery_Template/Libraries/CMSIS/Include/core_cmInstr.h ****   __ASM volatile ("rev %0, %1" : "=r" (result) : "r" (value) );
 25353              		.loc 7 352 0
 25354 0550 D7F8F830 		ldr	r3, [r7, #248]
 25355              	@ 352 "/home/junpei/workspace/arm/F4_Discovery_Template/Libraries/CMSIS/Include/core_cmInstr.h" 1
 25356 0554 1CBA     		rev r4, r3
 25357              	@ 0 "" 2
 25358              		.thumb
 25359 0556 C7F8F440 		str	r4, [r7, #244]
 25360              		.loc 7 353 0
 25361 055a D7F8F430 		ldr	r3, [r7, #244]
 25362              	.LBE163:
 25363              	.LBE162:
 25364              		.loc 1 308 0
 25365 055e 7B63     		str	r3, [r7, #52]
 309:../Libraries/STM32F4xx_StdPeriph_Driver/src/stm32f4xx_cryp_aes.c ****     keyaddr+=4;
 25366              		.loc 1 309 0
 25367 0560 D7F80031 		ldr	r3, [r7, #256]
 25368 0564 03F10403 		add	r3, r3, #4
 25369 0568 C7F80031 		str	r3, [r7, #256]
 310:../Libraries/STM32F4xx_StdPeriph_Driver/src/stm32f4xx_cryp_aes.c ****     AES_CRYP_KeyInitStructure.CRYP_Key2Right= __REV(*(uint32_t*)(keyaddr));
 25370              		.loc 1 310 0
 25371 056c D7F80031 		ldr	r3, [r7, #256]
 25372 0570 1B68     		ldr	r3, [r3, #0]
 25373 0572 C7F8F030 		str	r3, [r7, #240]
 25374              	.LBB164:
 25375              	.LBB165:
 352:/home/junpei/workspace/arm/F4_Discovery_Template/Libraries/CMSIS/Include/core_cmInstr.h ****   __ASM volatile ("rev %0, %1" : "=r" (result) : "r" (value) );
 25376              		.loc 7 352 0
 25377 0576 D7F8F030 		ldr	r3, [r7, #240]
 25378              	@ 352 "/home/junpei/workspace/arm/F4_Discovery_Template/Libraries/CMSIS/Include/core_cmInstr.h" 1
 25379 057a 1CBA     		rev r4, r3
 25380              	@ 0 "" 2
 25381              		.thumb
 25382 057c C7F8EC40 		str	r4, [r7, #236]
 25383              		.loc 7 353 0
 25384 0580 D7F8EC30 		ldr	r3, [r7, #236]
 25385              	.LBE165:
 25386              	.LBE164:
 25387              		.loc 1 310 0
 25388 0584 BB63     		str	r3, [r7, #56]
 311:../Libraries/STM32F4xx_StdPeriph_Driver/src/stm32f4xx_cryp_aes.c ****     keyaddr+=4;
 25389              		.loc 1 311 0
 25390 0586 D7F80031 		ldr	r3, [r7, #256]
 25391 058a 03F10403 		add	r3, r3, #4
 25392 058e C7F80031 		str	r3, [r7, #256]
 312:../Libraries/STM32F4xx_StdPeriph_Driver/src/stm32f4xx_cryp_aes.c ****     AES_CRYP_KeyInitStructure.CRYP_Key3Left = __REV(*(uint32_t*)(keyaddr));
 25393              		.loc 1 312 0
 25394 0592 D7F80031 		ldr	r3, [r7, #256]
 25395 0596 1B68     		ldr	r3, [r3, #0]
 25396 0598 C7F8E830 		str	r3, [r7, #232]
 25397              	.LBB166:
 25398              	.LBB167:
 352:/home/junpei/workspace/arm/F4_Discovery_Template/Libraries/CMSIS/Include/core_cmInstr.h ****   __ASM volatile ("rev %0, %1" : "=r" (result) : "r" (value) );
 25399              		.loc 7 352 0
 25400 059c D7F8E830 		ldr	r3, [r7, #232]
 25401              	@ 352 "/home/junpei/workspace/arm/F4_Discovery_Template/Libraries/CMSIS/Include/core_cmInstr.h" 1
 25402 05a0 1CBA     		rev r4, r3
 25403              	@ 0 "" 2
 25404              		.thumb
 25405 05a2 C7F8E440 		str	r4, [r7, #228]
 25406              		.loc 7 353 0
 25407 05a6 D7F8E430 		ldr	r3, [r7, #228]
 25408              	.LBE167:
 25409              	.LBE166:
 25410              		.loc 1 312 0
 25411 05aa FB63     		str	r3, [r7, #60]
 313:../Libraries/STM32F4xx_StdPeriph_Driver/src/stm32f4xx_cryp_aes.c ****     keyaddr+=4;
 25412              		.loc 1 313 0
 25413 05ac D7F80031 		ldr	r3, [r7, #256]
 25414 05b0 03F10403 		add	r3, r3, #4
 25415 05b4 C7F80031 		str	r3, [r7, #256]
 314:../Libraries/STM32F4xx_StdPeriph_Driver/src/stm32f4xx_cryp_aes.c ****     AES_CRYP_KeyInitStructure.CRYP_Key3Right= __REV(*(uint32_t*)(keyaddr));
 25416              		.loc 1 314 0
 25417 05b8 D7F80031 		ldr	r3, [r7, #256]
 25418 05bc 1B68     		ldr	r3, [r3, #0]
 25419 05be C7F8E030 		str	r3, [r7, #224]
 25420              	.LBB168:
 25421              	.LBB169:
 352:/home/junpei/workspace/arm/F4_Discovery_Template/Libraries/CMSIS/Include/core_cmInstr.h ****   __ASM volatile ("rev %0, %1" : "=r" (result) : "r" (value) );
 25422              		.loc 7 352 0
 25423 05c2 D7F8E030 		ldr	r3, [r7, #224]
 25424              	@ 352 "/home/junpei/workspace/arm/F4_Discovery_Template/Libraries/CMSIS/Include/core_cmInstr.h" 1
 25425 05c6 1CBA     		rev r4, r3
 25426              	@ 0 "" 2
 25427              		.thumb
 25428 05c8 C7F8DC40 		str	r4, [r7, #220]
 25429              		.loc 7 353 0
 25430 05cc D7F8DC30 		ldr	r3, [r7, #220]
 25431              	.LBE169:
 25432              	.LBE168:
 25433              		.loc 1 314 0
 25434 05d0 3B64     		str	r3, [r7, #64]
 315:../Libraries/STM32F4xx_StdPeriph_Driver/src/stm32f4xx_cryp_aes.c ****     break;
 25435              		.loc 1 315 0
 25436 05d2 FEE0     		b	.L25
 25437              	.L23:
 316:../Libraries/STM32F4xx_StdPeriph_Driver/src/stm32f4xx_cryp_aes.c ****     case 192:
 317:../Libraries/STM32F4xx_StdPeriph_Driver/src/stm32f4xx_cryp_aes.c ****     AES_CRYP_InitStructure.CRYP_KeySize  = CRYP_KeySize_192b;
 25438              		.loc 1 317 0
 25439 05d4 4FF48073 		mov	r3, #256
 25440 05d8 A7F84A30 		strh	r3, [r7, #74]	@ movhi
 318:../Libraries/STM32F4xx_StdPeriph_Driver/src/stm32f4xx_cryp_aes.c ****     AES_CRYP_KeyInitStructure.CRYP_Key1Left = __REV(*(uint32_t*)(keyaddr));
 25441              		.loc 1 318 0
 25442 05dc D7F80031 		ldr	r3, [r7, #256]
 25443 05e0 1B68     		ldr	r3, [r3, #0]
 25444 05e2 C7F8D830 		str	r3, [r7, #216]
 25445              	.LBB170:
 25446              	.LBB171:
 352:/home/junpei/workspace/arm/F4_Discovery_Template/Libraries/CMSIS/Include/core_cmInstr.h ****   __ASM volatile ("rev %0, %1" : "=r" (result) : "r" (value) );
 25447              		.loc 7 352 0
 25448 05e6 D7F8D830 		ldr	r3, [r7, #216]
 25449              	@ 352 "/home/junpei/workspace/arm/F4_Discovery_Template/Libraries/CMSIS/Include/core_cmInstr.h" 1
 25450 05ea 1CBA     		rev r4, r3
 25451              	@ 0 "" 2
 25452              		.thumb
 25453 05ec C7F8D440 		str	r4, [r7, #212]
 25454              		.loc 7 353 0
 25455 05f0 D7F8D430 		ldr	r3, [r7, #212]
 25456              	.LBE171:
 25457              	.LBE170:
 25458              		.loc 1 318 0
 25459 05f4 FB62     		str	r3, [r7, #44]
 319:../Libraries/STM32F4xx_StdPeriph_Driver/src/stm32f4xx_cryp_aes.c ****     keyaddr+=4;
 25460              		.loc 1 319 0
 25461 05f6 D7F80031 		ldr	r3, [r7, #256]
 25462 05fa 03F10403 		add	r3, r3, #4
 25463 05fe C7F80031 		str	r3, [r7, #256]
 320:../Libraries/STM32F4xx_StdPeriph_Driver/src/stm32f4xx_cryp_aes.c ****     AES_CRYP_KeyInitStructure.CRYP_Key1Right= __REV(*(uint32_t*)(keyaddr));
 25464              		.loc 1 320 0
 25465 0602 D7F80031 		ldr	r3, [r7, #256]
 25466 0606 1B68     		ldr	r3, [r3, #0]
 25467 0608 C7F8D030 		str	r3, [r7, #208]
 25468              	.LBB172:
 25469              	.LBB173:
 352:/home/junpei/workspace/arm/F4_Discovery_Template/Libraries/CMSIS/Include/core_cmInstr.h ****   __ASM volatile ("rev %0, %1" : "=r" (result) : "r" (value) );
 25470              		.loc 7 352 0
 25471 060c D7F8D030 		ldr	r3, [r7, #208]
 25472              	@ 352 "/home/junpei/workspace/arm/F4_Discovery_Template/Libraries/CMSIS/Include/core_cmInstr.h" 1
 25473 0610 1CBA     		rev r4, r3
 25474              	@ 0 "" 2
 25475              		.thumb
 25476 0612 C7F8CC40 		str	r4, [r7, #204]
 25477              		.loc 7 353 0
 25478 0616 D7F8CC30 		ldr	r3, [r7, #204]
 25479              	.LBE173:
 25480              	.LBE172:
 25481              		.loc 1 320 0
 25482 061a 3B63     		str	r3, [r7, #48]
 321:../Libraries/STM32F4xx_StdPeriph_Driver/src/stm32f4xx_cryp_aes.c ****     keyaddr+=4;
 25483              		.loc 1 321 0
 25484 061c D7F80031 		ldr	r3, [r7, #256]
 25485 0620 03F10403 		add	r3, r3, #4
 25486 0624 C7F80031 		str	r3, [r7, #256]
 322:../Libraries/STM32F4xx_StdPeriph_Driver/src/stm32f4xx_cryp_aes.c ****     AES_CRYP_KeyInitStructure.CRYP_Key2Left = __REV(*(uint32_t*)(keyaddr));
 25487              		.loc 1 322 0
 25488 0628 D7F80031 		ldr	r3, [r7, #256]
 25489 062c 1B68     		ldr	r3, [r3, #0]
 25490 062e C7F8C830 		str	r3, [r7, #200]
 25491              	.LBB174:
 25492              	.LBB175:
 352:/home/junpei/workspace/arm/F4_Discovery_Template/Libraries/CMSIS/Include/core_cmInstr.h ****   __ASM volatile ("rev %0, %1" : "=r" (result) : "r" (value) );
 25493              		.loc 7 352 0
 25494 0632 D7F8C830 		ldr	r3, [r7, #200]
 25495              	@ 352 "/home/junpei/workspace/arm/F4_Discovery_Template/Libraries/CMSIS/Include/core_cmInstr.h" 1
 25496 0636 1CBA     		rev r4, r3
 25497              	@ 0 "" 2
 25498              		.thumb
 25499 0638 C7F8C440 		str	r4, [r7, #196]
 25500              		.loc 7 353 0
 25501 063c D7F8C430 		ldr	r3, [r7, #196]
 25502              	.LBE175:
 25503              	.LBE174:
 25504              		.loc 1 322 0
 25505 0640 7B63     		str	r3, [r7, #52]
 323:../Libraries/STM32F4xx_StdPeriph_Driver/src/stm32f4xx_cryp_aes.c ****     keyaddr+=4;
 25506              		.loc 1 323 0
 25507 0642 D7F80031 		ldr	r3, [r7, #256]
 25508 0646 03F10403 		add	r3, r3, #4
 25509 064a C7F80031 		str	r3, [r7, #256]
 324:../Libraries/STM32F4xx_StdPeriph_Driver/src/stm32f4xx_cryp_aes.c ****     AES_CRYP_KeyInitStructure.CRYP_Key2Right= __REV(*(uint32_t*)(keyaddr));
 25510              		.loc 1 324 0
 25511 064e D7F80031 		ldr	r3, [r7, #256]
 25512 0652 1B68     		ldr	r3, [r3, #0]
 25513 0654 C7F8C030 		str	r3, [r7, #192]
 25514              	.LBB176:
 25515              	.LBB177:
 352:/home/junpei/workspace/arm/F4_Discovery_Template/Libraries/CMSIS/Include/core_cmInstr.h ****   __ASM volatile ("rev %0, %1" : "=r" (result) : "r" (value) );
 25516              		.loc 7 352 0
 25517 0658 D7F8C030 		ldr	r3, [r7, #192]
 25518              	@ 352 "/home/junpei/workspace/arm/F4_Discovery_Template/Libraries/CMSIS/Include/core_cmInstr.h" 1
 25519 065c 1CBA     		rev r4, r3
 25520              	@ 0 "" 2
 25521              		.thumb
 25522 065e C7F8BC40 		str	r4, [r7, #188]
 25523              		.loc 7 353 0
 25524 0662 D7F8BC30 		ldr	r3, [r7, #188]
 25525              	.LBE177:
 25526              	.LBE176:
 25527              		.loc 1 324 0
 25528 0666 BB63     		str	r3, [r7, #56]
 325:../Libraries/STM32F4xx_StdPeriph_Driver/src/stm32f4xx_cryp_aes.c ****     keyaddr+=4;
 25529              		.loc 1 325 0
 25530 0668 D7F80031 		ldr	r3, [r7, #256]
 25531 066c 03F10403 		add	r3, r3, #4
 25532 0670 C7F80031 		str	r3, [r7, #256]
 326:../Libraries/STM32F4xx_StdPeriph_Driver/src/stm32f4xx_cryp_aes.c ****     AES_CRYP_KeyInitStructure.CRYP_Key3Left = __REV(*(uint32_t*)(keyaddr));
 25533              		.loc 1 326 0
 25534 0674 D7F80031 		ldr	r3, [r7, #256]
 25535 0678 1B68     		ldr	r3, [r3, #0]
 25536 067a C7F8B830 		str	r3, [r7, #184]
 25537              	.LBB178:
 25538              	.LBB179:
 352:/home/junpei/workspace/arm/F4_Discovery_Template/Libraries/CMSIS/Include/core_cmInstr.h ****   __ASM volatile ("rev %0, %1" : "=r" (result) : "r" (value) );
 25539              		.loc 7 352 0
 25540 067e D7F8B830 		ldr	r3, [r7, #184]
 25541              	@ 352 "/home/junpei/workspace/arm/F4_Discovery_Template/Libraries/CMSIS/Include/core_cmInstr.h" 1
 25542 0682 1CBA     		rev r4, r3
 25543              	@ 0 "" 2
 25544              		.thumb
 25545 0684 C7F8B440 		str	r4, [r7, #180]
 25546              		.loc 7 353 0
 25547 0688 D7F8B430 		ldr	r3, [r7, #180]
 25548              	.LBE179:
 25549              	.LBE178:
 25550              		.loc 1 326 0
 25551 068c FB63     		str	r3, [r7, #60]
 327:../Libraries/STM32F4xx_StdPeriph_Driver/src/stm32f4xx_cryp_aes.c ****     keyaddr+=4;
 25552              		.loc 1 327 0
 25553 068e D7F80031 		ldr	r3, [r7, #256]
 25554 0692 03F10403 		add	r3, r3, #4
 25555 0696 C7F80031 		str	r3, [r7, #256]
 328:../Libraries/STM32F4xx_StdPeriph_Driver/src/stm32f4xx_cryp_aes.c ****     AES_CRYP_KeyInitStructure.CRYP_Key3Right= __REV(*(uint32_t*)(keyaddr));
 25556              		.loc 1 328 0
 25557 069a D7F80031 		ldr	r3, [r7, #256]
 25558 069e 1B68     		ldr	r3, [r3, #0]
 25559 06a0 C7F8B030 		str	r3, [r7, #176]
 25560              	.LBB180:
 25561              	.LBB181:
 352:/home/junpei/workspace/arm/F4_Discovery_Template/Libraries/CMSIS/Include/core_cmInstr.h ****   __ASM volatile ("rev %0, %1" : "=r" (result) : "r" (value) );
 25562              		.loc 7 352 0
 25563 06a4 D7F8B030 		ldr	r3, [r7, #176]
 25564              	@ 352 "/home/junpei/workspace/arm/F4_Discovery_Template/Libraries/CMSIS/Include/core_cmInstr.h" 1
 25565 06a8 1CBA     		rev r4, r3
 25566              	@ 0 "" 2
 25567              		.thumb
 25568 06aa C7F8AC40 		str	r4, [r7, #172]
 25569              		.loc 7 353 0
 25570 06ae D7F8AC30 		ldr	r3, [r7, #172]
 25571              	.LBE181:
 25572              	.LBE180:
 25573              		.loc 1 328 0
 25574 06b2 3B64     		str	r3, [r7, #64]
 329:../Libraries/STM32F4xx_StdPeriph_Driver/src/stm32f4xx_cryp_aes.c ****     break;
 25575              		.loc 1 329 0
 25576 06b4 8DE0     		b	.L25
 25577              	.L24:
 330:../Libraries/STM32F4xx_StdPeriph_Driver/src/stm32f4xx_cryp_aes.c ****     case 256:
 331:../Libraries/STM32F4xx_StdPeriph_Driver/src/stm32f4xx_cryp_aes.c ****     AES_CRYP_InitStructure.CRYP_KeySize  = CRYP_KeySize_256b;
 25578              		.loc 1 331 0
 25579 06b6 4FF40073 		mov	r3, #512
 25580 06ba A7F84A30 		strh	r3, [r7, #74]	@ movhi
 332:../Libraries/STM32F4xx_StdPeriph_Driver/src/stm32f4xx_cryp_aes.c ****     AES_CRYP_KeyInitStructure.CRYP_Key0Left = __REV(*(uint32_t*)(keyaddr));
 25581              		.loc 1 332 0
 25582 06be D7F80031 		ldr	r3, [r7, #256]
 25583 06c2 1B68     		ldr	r3, [r3, #0]
 25584 06c4 C7F8A830 		str	r3, [r7, #168]
 25585              	.LBB182:
 25586              	.LBB183:
 352:/home/junpei/workspace/arm/F4_Discovery_Template/Libraries/CMSIS/Include/core_cmInstr.h ****   __ASM volatile ("rev %0, %1" : "=r" (result) : "r" (value) );
 25587              		.loc 7 352 0
 25588 06c8 D7F8A830 		ldr	r3, [r7, #168]
 25589              	@ 352 "/home/junpei/workspace/arm/F4_Discovery_Template/Libraries/CMSIS/Include/core_cmInstr.h" 1
 25590 06cc 1CBA     		rev r4, r3
 25591              	@ 0 "" 2
 25592              		.thumb
 25593 06ce C7F8A440 		str	r4, [r7, #164]
 25594              		.loc 7 353 0
 25595 06d2 D7F8A430 		ldr	r3, [r7, #164]
 25596              	.LBE183:
 25597              	.LBE182:
 25598              		.loc 1 332 0
 25599 06d6 7B62     		str	r3, [r7, #36]
 333:../Libraries/STM32F4xx_StdPeriph_Driver/src/stm32f4xx_cryp_aes.c ****     keyaddr+=4;
 25600              		.loc 1 333 0
 25601 06d8 D7F80031 		ldr	r3, [r7, #256]
 25602 06dc 03F10403 		add	r3, r3, #4
 25603 06e0 C7F80031 		str	r3, [r7, #256]
 334:../Libraries/STM32F4xx_StdPeriph_Driver/src/stm32f4xx_cryp_aes.c ****     AES_CRYP_KeyInitStructure.CRYP_Key0Right= __REV(*(uint32_t*)(keyaddr));
 25604              		.loc 1 334 0
 25605 06e4 D7F80031 		ldr	r3, [r7, #256]
 25606 06e8 1B68     		ldr	r3, [r3, #0]
 25607 06ea C7F8A030 		str	r3, [r7, #160]
 25608              	.LBB184:
 25609              	.LBB185:
 352:/home/junpei/workspace/arm/F4_Discovery_Template/Libraries/CMSIS/Include/core_cmInstr.h ****   __ASM volatile ("rev %0, %1" : "=r" (result) : "r" (value) );
 25610              		.loc 7 352 0
 25611 06ee D7F8A030 		ldr	r3, [r7, #160]
 25612              	@ 352 "/home/junpei/workspace/arm/F4_Discovery_Template/Libraries/CMSIS/Include/core_cmInstr.h" 1
 25613 06f2 1CBA     		rev r4, r3
 25614              	@ 0 "" 2
 25615              		.thumb
 25616 06f4 C7F89C40 		str	r4, [r7, #156]
 25617              		.loc 7 353 0
 25618 06f8 D7F89C30 		ldr	r3, [r7, #156]
 25619              	.LBE185:
 25620              	.LBE184:
 25621              		.loc 1 334 0
 25622 06fc BB62     		str	r3, [r7, #40]
 335:../Libraries/STM32F4xx_StdPeriph_Driver/src/stm32f4xx_cryp_aes.c ****     keyaddr+=4;
 25623              		.loc 1 335 0
 25624 06fe D7F80031 		ldr	r3, [r7, #256]
 25625 0702 03F10403 		add	r3, r3, #4
 25626 0706 C7F80031 		str	r3, [r7, #256]
 336:../Libraries/STM32F4xx_StdPeriph_Driver/src/stm32f4xx_cryp_aes.c ****     AES_CRYP_KeyInitStructure.CRYP_Key1Left = __REV(*(uint32_t*)(keyaddr));
 25627              		.loc 1 336 0
 25628 070a D7F80031 		ldr	r3, [r7, #256]
 25629 070e 1B68     		ldr	r3, [r3, #0]
 25630 0710 C7F89830 		str	r3, [r7, #152]
 25631              	.LBB186:
 25632              	.LBB187:
 352:/home/junpei/workspace/arm/F4_Discovery_Template/Libraries/CMSIS/Include/core_cmInstr.h ****   __ASM volatile ("rev %0, %1" : "=r" (result) : "r" (value) );
 25633              		.loc 7 352 0
 25634 0714 D7F89830 		ldr	r3, [r7, #152]
 25635              	@ 352 "/home/junpei/workspace/arm/F4_Discovery_Template/Libraries/CMSIS/Include/core_cmInstr.h" 1
 25636 0718 1CBA     		rev r4, r3
 25637              	@ 0 "" 2
 25638              		.thumb
 25639 071a C7F89440 		str	r4, [r7, #148]
 25640              		.loc 7 353 0
 25641 071e D7F89430 		ldr	r3, [r7, #148]
 25642              	.LBE187:
 25643              	.LBE186:
 25644              		.loc 1 336 0
 25645 0722 FB62     		str	r3, [r7, #44]
 337:../Libraries/STM32F4xx_StdPeriph_Driver/src/stm32f4xx_cryp_aes.c ****     keyaddr+=4;
 25646              		.loc 1 337 0
 25647 0724 D7F80031 		ldr	r3, [r7, #256]
 25648 0728 03F10403 		add	r3, r3, #4
 25649 072c C7F80031 		str	r3, [r7, #256]
 338:../Libraries/STM32F4xx_StdPeriph_Driver/src/stm32f4xx_cryp_aes.c ****     AES_CRYP_KeyInitStructure.CRYP_Key1Right= __REV(*(uint32_t*)(keyaddr));
 25650              		.loc 1 338 0
 25651 0730 D7F80031 		ldr	r3, [r7, #256]
 25652 0734 1B68     		ldr	r3, [r3, #0]
 25653 0736 C7F89030 		str	r3, [r7, #144]
 25654              	.LBB188:
 25655              	.LBB189:
 352:/home/junpei/workspace/arm/F4_Discovery_Template/Libraries/CMSIS/Include/core_cmInstr.h ****   __ASM volatile ("rev %0, %1" : "=r" (result) : "r" (value) );
 25656              		.loc 7 352 0
 25657 073a D7F89030 		ldr	r3, [r7, #144]
 25658              	@ 352 "/home/junpei/workspace/arm/F4_Discovery_Template/Libraries/CMSIS/Include/core_cmInstr.h" 1
 25659 073e 1CBA     		rev r4, r3
 25660              	@ 0 "" 2
 25661              		.thumb
 25662 0740 C7F88C40 		str	r4, [r7, #140]
 25663              		.loc 7 353 0
 25664 0744 D7F88C30 		ldr	r3, [r7, #140]
 25665              	.LBE189:
 25666              	.LBE188:
 25667              		.loc 1 338 0
 25668 0748 3B63     		str	r3, [r7, #48]
 339:../Libraries/STM32F4xx_StdPeriph_Driver/src/stm32f4xx_cryp_aes.c ****     keyaddr+=4;
 25669              		.loc 1 339 0
 25670 074a D7F80031 		ldr	r3, [r7, #256]
 25671 074e 03F10403 		add	r3, r3, #4
 25672 0752 C7F80031 		str	r3, [r7, #256]
 340:../Libraries/STM32F4xx_StdPeriph_Driver/src/stm32f4xx_cryp_aes.c ****     AES_CRYP_KeyInitStructure.CRYP_Key2Left = __REV(*(uint32_t*)(keyaddr));
 25673              		.loc 1 340 0
 25674 0756 D7F80031 		ldr	r3, [r7, #256]
 25675 075a 1B68     		ldr	r3, [r3, #0]
 25676 075c C7F88830 		str	r3, [r7, #136]
 25677              	.LBB190:
 25678              	.LBB191:
 352:/home/junpei/workspace/arm/F4_Discovery_Template/Libraries/CMSIS/Include/core_cmInstr.h ****   __ASM volatile ("rev %0, %1" : "=r" (result) : "r" (value) );
 25679              		.loc 7 352 0
 25680 0760 D7F88830 		ldr	r3, [r7, #136]
 25681              	@ 352 "/home/junpei/workspace/arm/F4_Discovery_Template/Libraries/CMSIS/Include/core_cmInstr.h" 1
 25682 0764 1CBA     		rev r4, r3
 25683              	@ 0 "" 2
 25684              		.thumb
 25685 0766 C7F88440 		str	r4, [r7, #132]
 25686              		.loc 7 353 0
 25687 076a D7F88430 		ldr	r3, [r7, #132]
 25688              	.LBE191:
 25689              	.LBE190:
 25690              		.loc 1 340 0
 25691 076e 7B63     		str	r3, [r7, #52]
 341:../Libraries/STM32F4xx_StdPeriph_Driver/src/stm32f4xx_cryp_aes.c ****     keyaddr+=4;
 25692              		.loc 1 341 0
 25693 0770 D7F80031 		ldr	r3, [r7, #256]
 25694 0774 03F10403 		add	r3, r3, #4
 25695 0778 C7F80031 		str	r3, [r7, #256]
 342:../Libraries/STM32F4xx_StdPeriph_Driver/src/stm32f4xx_cryp_aes.c ****     AES_CRYP_KeyInitStructure.CRYP_Key2Right= __REV(*(uint32_t*)(keyaddr));
 25696              		.loc 1 342 0
 25697 077c D7F80031 		ldr	r3, [r7, #256]
 25698 0780 1B68     		ldr	r3, [r3, #0]
 25699 0782 C7F88030 		str	r3, [r7, #128]
 25700              	.LBB192:
 25701              	.LBB193:
 352:/home/junpei/workspace/arm/F4_Discovery_Template/Libraries/CMSIS/Include/core_cmInstr.h ****   __ASM volatile ("rev %0, %1" : "=r" (result) : "r" (value) );
 25702              		.loc 7 352 0
 25703 0786 D7F88030 		ldr	r3, [r7, #128]
 25704              	@ 352 "/home/junpei/workspace/arm/F4_Discovery_Template/Libraries/CMSIS/Include/core_cmInstr.h" 1
 25705 078a 1CBA     		rev r4, r3
 25706              	@ 0 "" 2
 25707              		.thumb
 25708 078c FC67     		str	r4, [r7, #124]
 25709              		.loc 7 353 0
 25710 078e FB6F     		ldr	r3, [r7, #124]
 25711              	.LBE193:
 25712              	.LBE192:
 25713              		.loc 1 342 0
 25714 0790 BB63     		str	r3, [r7, #56]
 343:../Libraries/STM32F4xx_StdPeriph_Driver/src/stm32f4xx_cryp_aes.c ****     keyaddr+=4;
 25715              		.loc 1 343 0
 25716 0792 D7F80031 		ldr	r3, [r7, #256]
 25717 0796 03F10403 		add	r3, r3, #4
 25718 079a C7F80031 		str	r3, [r7, #256]
 344:../Libraries/STM32F4xx_StdPeriph_Driver/src/stm32f4xx_cryp_aes.c ****     AES_CRYP_KeyInitStructure.CRYP_Key3Left = __REV(*(uint32_t*)(keyaddr));
 25719              		.loc 1 344 0
 25720 079e D7F80031 		ldr	r3, [r7, #256]
 25721 07a2 1B68     		ldr	r3, [r3, #0]
 25722 07a4 BB67     		str	r3, [r7, #120]
 25723              	.LBB194:
 25724              	.LBB195:
 352:/home/junpei/workspace/arm/F4_Discovery_Template/Libraries/CMSIS/Include/core_cmInstr.h ****   __ASM volatile ("rev %0, %1" : "=r" (result) : "r" (value) );
 25725              		.loc 7 352 0
 25726 07a6 BB6F     		ldr	r3, [r7, #120]
 25727              	@ 352 "/home/junpei/workspace/arm/F4_Discovery_Template/Libraries/CMSIS/Include/core_cmInstr.h" 1
 25728 07a8 1CBA     		rev r4, r3
 25729              	@ 0 "" 2
 25730              		.thumb
 25731 07aa 7C67     		str	r4, [r7, #116]
 25732              		.loc 7 353 0
 25733 07ac 7B6F     		ldr	r3, [r7, #116]
 25734              	.LBE195:
 25735              	.LBE194:
 25736              		.loc 1 344 0
 25737 07ae FB63     		str	r3, [r7, #60]
 345:../Libraries/STM32F4xx_StdPeriph_Driver/src/stm32f4xx_cryp_aes.c ****     keyaddr+=4;
 25738              		.loc 1 345 0
 25739 07b0 D7F80031 		ldr	r3, [r7, #256]
 25740 07b4 03F10403 		add	r3, r3, #4
 25741 07b8 C7F80031 		str	r3, [r7, #256]
 346:../Libraries/STM32F4xx_StdPeriph_Driver/src/stm32f4xx_cryp_aes.c ****     AES_CRYP_KeyInitStructure.CRYP_Key3Right= __REV(*(uint32_t*)(keyaddr));
 25742              		.loc 1 346 0
 25743 07bc D7F80031 		ldr	r3, [r7, #256]
 25744 07c0 1B68     		ldr	r3, [r3, #0]
 25745 07c2 3B67     		str	r3, [r7, #112]
 25746              	.LBB196:
 25747              	.LBB197:
 352:/home/junpei/workspace/arm/F4_Discovery_Template/Libraries/CMSIS/Include/core_cmInstr.h ****   __ASM volatile ("rev %0, %1" : "=r" (result) : "r" (value) );
 25748              		.loc 7 352 0
 25749 07c4 3B6F     		ldr	r3, [r7, #112]
 25750              	@ 352 "/home/junpei/workspace/arm/F4_Discovery_Template/Libraries/CMSIS/Include/core_cmInstr.h" 1
 25751 07c6 1CBA     		rev r4, r3
 25752              	@ 0 "" 2
 25753              		.thumb
 25754 07c8 FC66     		str	r4, [r7, #108]
 25755              		.loc 7 353 0
 25756 07ca FB6E     		ldr	r3, [r7, #108]
 25757              	.LBE197:
 25758              	.LBE196:
 25759              		.loc 1 346 0
 25760 07cc 3B64     		str	r3, [r7, #64]
 347:../Libraries/STM32F4xx_StdPeriph_Driver/src/stm32f4xx_cryp_aes.c ****     break;
 25761              		.loc 1 347 0
 25762 07ce 00E0     		b	.L25
 25763              	.L38:
 348:../Libraries/STM32F4xx_StdPeriph_Driver/src/stm32f4xx_cryp_aes.c ****     default:
 349:../Libraries/STM32F4xx_StdPeriph_Driver/src/stm32f4xx_cryp_aes.c ****     break;
 25764              		.loc 1 349 0
 25765 07d0 00BF     		nop
 25766              	.L25:
 350:../Libraries/STM32F4xx_StdPeriph_Driver/src/stm32f4xx_cryp_aes.c ****   }
 351:../Libraries/STM32F4xx_StdPeriph_Driver/src/stm32f4xx_cryp_aes.c **** 
 352:../Libraries/STM32F4xx_StdPeriph_Driver/src/stm32f4xx_cryp_aes.c ****   /* CRYP Initialization Vectors */
 353:../Libraries/STM32F4xx_StdPeriph_Driver/src/stm32f4xx_cryp_aes.c ****   AES_CRYP_IVInitStructure.CRYP_IV0Left = __REV(*(uint32_t*)(ivaddr));
 25767              		.loc 1 353 0
 25768 07d2 D7F8FC30 		ldr	r3, [r7, #252]
 25769 07d6 1B68     		ldr	r3, [r3, #0]
 25770 07d8 BB66     		str	r3, [r7, #104]
 25771              	.LBB198:
 25772              	.LBB199:
 352:/home/junpei/workspace/arm/F4_Discovery_Template/Libraries/CMSIS/Include/core_cmInstr.h ****   __ASM volatile ("rev %0, %1" : "=r" (result) : "r" (value) );
 25773              		.loc 7 352 0
 25774 07da BB6E     		ldr	r3, [r7, #104]
 25775              	@ 352 "/home/junpei/workspace/arm/F4_Discovery_Template/Libraries/CMSIS/Include/core_cmInstr.h" 1
 25776 07dc 1CBA     		rev r4, r3
 25777              	@ 0 "" 2
 25778              		.thumb
 25779 07de 7C66     		str	r4, [r7, #100]
 25780              		.loc 7 353 0
 25781 07e0 7B6E     		ldr	r3, [r7, #100]
 25782              		.loc 1 353 0
 25783 07e2 1A46     		mov	r2, r3
 25784              	.LBE199:
 25785              	.LBE198:
 25786 07e4 07F11403 		add	r3, r7, #20
 25787 07e8 1A60     		str	r2, [r3, #0]
 354:../Libraries/STM32F4xx_StdPeriph_Driver/src/stm32f4xx_cryp_aes.c ****   ivaddr+=4;
 25788              		.loc 1 354 0
 25789 07ea D7F8FC30 		ldr	r3, [r7, #252]
 25790 07ee 03F10403 		add	r3, r3, #4
 25791 07f2 C7F8FC30 		str	r3, [r7, #252]
 355:../Libraries/STM32F4xx_StdPeriph_Driver/src/stm32f4xx_cryp_aes.c ****   AES_CRYP_IVInitStructure.CRYP_IV0Right= __REV(*(uint32_t*)(ivaddr));
 25792              		.loc 1 355 0
 25793 07f6 D7F8FC30 		ldr	r3, [r7, #252]
 25794 07fa 1B68     		ldr	r3, [r3, #0]
 25795 07fc 3B66     		str	r3, [r7, #96]
 25796              	.LBB200:
 25797              	.LBB201:
 352:/home/junpei/workspace/arm/F4_Discovery_Template/Libraries/CMSIS/Include/core_cmInstr.h ****   __ASM volatile ("rev %0, %1" : "=r" (result) : "r" (value) );
 25798              		.loc 7 352 0
 25799 07fe 3B6E     		ldr	r3, [r7, #96]
 25800              	@ 352 "/home/junpei/workspace/arm/F4_Discovery_Template/Libraries/CMSIS/Include/core_cmInstr.h" 1
 25801 0800 1CBA     		rev r4, r3
 25802              	@ 0 "" 2
 25803              		.thumb
 25804 0802 FC65     		str	r4, [r7, #92]
 25805              		.loc 7 353 0
 25806 0804 FB6D     		ldr	r3, [r7, #92]
 25807              		.loc 1 355 0
 25808 0806 1A46     		mov	r2, r3
 25809              	.LBE201:
 25810              	.LBE200:
 25811 0808 07F11403 		add	r3, r7, #20
 25812 080c 5A60     		str	r2, [r3, #4]
 356:../Libraries/STM32F4xx_StdPeriph_Driver/src/stm32f4xx_cryp_aes.c ****   ivaddr+=4;
 25813              		.loc 1 356 0
 25814 080e D7F8FC30 		ldr	r3, [r7, #252]
 25815 0812 03F10403 		add	r3, r3, #4
 25816 0816 C7F8FC30 		str	r3, [r7, #252]
 357:../Libraries/STM32F4xx_StdPeriph_Driver/src/stm32f4xx_cryp_aes.c ****   AES_CRYP_IVInitStructure.CRYP_IV1Left = __REV(*(uint32_t*)(ivaddr));
 25817              		.loc 1 357 0
 25818 081a D7F8FC30 		ldr	r3, [r7, #252]
 25819 081e 1B68     		ldr	r3, [r3, #0]
 25820 0820 BB65     		str	r3, [r7, #88]
 25821              	.LBB202:
 25822              	.LBB203:
 352:/home/junpei/workspace/arm/F4_Discovery_Template/Libraries/CMSIS/Include/core_cmInstr.h ****   __ASM volatile ("rev %0, %1" : "=r" (result) : "r" (value) );
 25823              		.loc 7 352 0
 25824 0822 BB6D     		ldr	r3, [r7, #88]
 25825              	@ 352 "/home/junpei/workspace/arm/F4_Discovery_Template/Libraries/CMSIS/Include/core_cmInstr.h" 1
 25826 0824 1CBA     		rev r4, r3
 25827              	@ 0 "" 2
 25828              		.thumb
 25829 0826 7C65     		str	r4, [r7, #84]
 25830              		.loc 7 353 0
 25831 0828 7B6D     		ldr	r3, [r7, #84]
 25832              		.loc 1 357 0
 25833 082a 1A46     		mov	r2, r3
 25834              	.LBE203:
 25835              	.LBE202:
 25836 082c 07F11403 		add	r3, r7, #20
 25837 0830 9A60     		str	r2, [r3, #8]
 358:../Libraries/STM32F4xx_StdPeriph_Driver/src/stm32f4xx_cryp_aes.c ****   ivaddr+=4;
 25838              		.loc 1 358 0
 25839 0832 D7F8FC30 		ldr	r3, [r7, #252]
 25840 0836 03F10403 		add	r3, r3, #4
 25841 083a C7F8FC30 		str	r3, [r7, #252]
 359:../Libraries/STM32F4xx_StdPeriph_Driver/src/stm32f4xx_cryp_aes.c ****   AES_CRYP_IVInitStructure.CRYP_IV1Right= __REV(*(uint32_t*)(ivaddr));
 25842              		.loc 1 359 0
 25843 083e D7F8FC30 		ldr	r3, [r7, #252]
 25844 0842 1B68     		ldr	r3, [r3, #0]
 25845 0844 3B65     		str	r3, [r7, #80]
 25846              	.LBB204:
 25847              	.LBB205:
 352:/home/junpei/workspace/arm/F4_Discovery_Template/Libraries/CMSIS/Include/core_cmInstr.h ****   __ASM volatile ("rev %0, %1" : "=r" (result) : "r" (value) );
 25848              		.loc 7 352 0
 25849 0846 3B6D     		ldr	r3, [r7, #80]
 25850              	@ 352 "/home/junpei/workspace/arm/F4_Discovery_Template/Libraries/CMSIS/Include/core_cmInstr.h" 1
 25851 0848 1CBA     		rev r4, r3
 25852              	@ 0 "" 2
 25853              		.thumb
 25854 084a FC64     		str	r4, [r7, #76]
 25855              		.loc 7 353 0
 25856 084c FB6C     		ldr	r3, [r7, #76]
 25857              		.loc 1 359 0
 25858 084e 1A46     		mov	r2, r3
 25859              	.LBE205:
 25860              	.LBE204:
 25861 0850 07F11403 		add	r3, r7, #20
 25862 0854 DA60     		str	r2, [r3, #12]
 360:../Libraries/STM32F4xx_StdPeriph_Driver/src/stm32f4xx_cryp_aes.c **** 
 361:../Libraries/STM32F4xx_StdPeriph_Driver/src/stm32f4xx_cryp_aes.c **** 
 362:../Libraries/STM32F4xx_StdPeriph_Driver/src/stm32f4xx_cryp_aes.c ****   /*------------------ AES Decryption ------------------*/
 363:../Libraries/STM32F4xx_StdPeriph_Driver/src/stm32f4xx_cryp_aes.c ****   if(Mode == MODE_DECRYPT) /* AES decryption */
 25863              		.loc 1 363 0
 25864 0856 07F11003 		add	r3, r7, #16
 25865 085a 03F1FF33 		add	r3, r3, #-1
 25866 085e 1B78     		ldrb	r3, [r3, #0]	@ zero_extendqisi2
 25867 0860 002B     		cmp	r3, #0
 25868 0862 42D1     		bne	.L26
 364:../Libraries/STM32F4xx_StdPeriph_Driver/src/stm32f4xx_cryp_aes.c ****   {
 365:../Libraries/STM32F4xx_StdPeriph_Driver/src/stm32f4xx_cryp_aes.c ****     /* Flush IN/OUT FIFOs */
 366:../Libraries/STM32F4xx_StdPeriph_Driver/src/stm32f4xx_cryp_aes.c ****     CRYP_FIFOFlush();
 25869              		.loc 1 366 0
 25870 0864 FFF7FEFF 		bl	CRYP_FIFOFlush
 367:../Libraries/STM32F4xx_StdPeriph_Driver/src/stm32f4xx_cryp_aes.c **** 
 368:../Libraries/STM32F4xx_StdPeriph_Driver/src/stm32f4xx_cryp_aes.c ****     /* Crypto Init for Key preparation for decryption process */
 369:../Libraries/STM32F4xx_StdPeriph_Driver/src/stm32f4xx_cryp_aes.c ****     AES_CRYP_InitStructure.CRYP_AlgoDir = CRYP_AlgoDir_Decrypt;
 25871              		.loc 1 369 0
 25872 0868 4FF00403 		mov	r3, #4
 25873 086c A7F84430 		strh	r3, [r7, #68]	@ movhi
 370:../Libraries/STM32F4xx_StdPeriph_Driver/src/stm32f4xx_cryp_aes.c ****     AES_CRYP_InitStructure.CRYP_AlgoMode = CRYP_AlgoMode_AES_Key;
 25874              		.loc 1 370 0
 25875 0870 4FF03803 		mov	r3, #56
 25876 0874 A7F84630 		strh	r3, [r7, #70]	@ movhi
 371:../Libraries/STM32F4xx_StdPeriph_Driver/src/stm32f4xx_cryp_aes.c ****     AES_CRYP_InitStructure.CRYP_DataType = CRYP_DataType_32b;
 25877              		.loc 1 371 0
 25878 0878 4FF00003 		mov	r3, #0
 25879 087c A7F84830 		strh	r3, [r7, #72]	@ movhi
 372:../Libraries/STM32F4xx_StdPeriph_Driver/src/stm32f4xx_cryp_aes.c **** 
 373:../Libraries/STM32F4xx_StdPeriph_Driver/src/stm32f4xx_cryp_aes.c ****     CRYP_Init(&AES_CRYP_InitStructure);
 25880              		.loc 1 373 0
 25881 0880 07F14403 		add	r3, r7, #68
 25882 0884 1846     		mov	r0, r3
 25883 0886 FFF7FEFF 		bl	CRYP_Init
 374:../Libraries/STM32F4xx_StdPeriph_Driver/src/stm32f4xx_cryp_aes.c **** 
 375:../Libraries/STM32F4xx_StdPeriph_Driver/src/stm32f4xx_cryp_aes.c ****     /* Key Initialisation */
 376:../Libraries/STM32F4xx_StdPeriph_Driver/src/stm32f4xx_cryp_aes.c ****     CRYP_KeyInit(&AES_CRYP_KeyInitStructure);
 25884              		.loc 1 376 0
 25885 088a 07F12403 		add	r3, r7, #36
 25886 088e 1846     		mov	r0, r3
 25887 0890 FFF7FEFF 		bl	CRYP_KeyInit
 377:../Libraries/STM32F4xx_StdPeriph_Driver/src/stm32f4xx_cryp_aes.c **** 
 378:../Libraries/STM32F4xx_StdPeriph_Driver/src/stm32f4xx_cryp_aes.c ****     /* Enable Crypto processor */
 379:../Libraries/STM32F4xx_StdPeriph_Driver/src/stm32f4xx_cryp_aes.c ****     CRYP_Cmd(ENABLE);
 25888              		.loc 1 379 0
 25889 0894 4FF00100 		mov	r0, #1
 25890 0898 FFF7FEFF 		bl	CRYP_Cmd
 25891              	.L28:
 380:../Libraries/STM32F4xx_StdPeriph_Driver/src/stm32f4xx_cryp_aes.c **** 
 381:../Libraries/STM32F4xx_StdPeriph_Driver/src/stm32f4xx_cryp_aes.c ****     /* wait until the Busy flag is RESET */
 382:../Libraries/STM32F4xx_StdPeriph_Driver/src/stm32f4xx_cryp_aes.c ****     do
 383:../Libraries/STM32F4xx_StdPeriph_Driver/src/stm32f4xx_cryp_aes.c ****     {
 384:../Libraries/STM32F4xx_StdPeriph_Driver/src/stm32f4xx_cryp_aes.c ****       busystatus = CRYP_GetFlagStatus(CRYP_FLAG_BUSY);
 25892              		.loc 1 384 0 discriminator 1
 25893 089c 4FF01000 		mov	r0, #16
 25894 08a0 FFF7FEFF 		bl	CRYP_GetFlagStatus
 25895 08a4 0346     		mov	r3, r0
 25896 08a6 C7F80431 		str	r3, [r7, #260]
 385:../Libraries/STM32F4xx_StdPeriph_Driver/src/stm32f4xx_cryp_aes.c ****       counter++;
 25897              		.loc 1 385 0 discriminator 1
 25898 08aa 07F11003 		add	r3, r7, #16
 25899 08ae 1B68     		ldr	r3, [r3, #0]
 25900 08b0 03F10102 		add	r2, r3, #1
 25901 08b4 07F11003 		add	r3, r7, #16
 25902 08b8 1A60     		str	r2, [r3, #0]
 386:../Libraries/STM32F4xx_StdPeriph_Driver/src/stm32f4xx_cryp_aes.c ****     }while ((counter != AESBUSY_TIMEOUT) && (busystatus != RESET));
 25903              		.loc 1 386 0 discriminator 1
 25904 08ba 07F11003 		add	r3, r7, #16
 25905 08be 1B68     		ldr	r3, [r3, #0]
 25906 08c0 B3F5803F 		cmp	r3, #65536
 25907 08c4 03D0     		beq	.L27
 25908 08c6 D7F80431 		ldr	r3, [r7, #260]
 25909 08ca 002B     		cmp	r3, #0
 25910 08cc E6D1     		bne	.L28
 25911              	.L27:
 387:../Libraries/STM32F4xx_StdPeriph_Driver/src/stm32f4xx_cryp_aes.c **** 
 388:../Libraries/STM32F4xx_StdPeriph_Driver/src/stm32f4xx_cryp_aes.c ****     if (busystatus != RESET)
 25912              		.loc 1 388 0
 25913 08ce D7F80431 		ldr	r3, [r7, #260]
 25914 08d2 002B     		cmp	r3, #0
 25915 08d4 04D0     		beq	.L29
 389:../Libraries/STM32F4xx_StdPeriph_Driver/src/stm32f4xx_cryp_aes.c ****    {
 390:../Libraries/STM32F4xx_StdPeriph_Driver/src/stm32f4xx_cryp_aes.c ****        status = ERROR;
 25916              		.loc 1 390 0
 25917 08d6 4FF00003 		mov	r3, #0
 25918 08da 87F81731 		strb	r3, [r7, #279]
 25919 08de 0DE0     		b	.L30
 25920              	.L29:
 391:../Libraries/STM32F4xx_StdPeriph_Driver/src/stm32f4xx_cryp_aes.c ****     }
 392:../Libraries/STM32F4xx_StdPeriph_Driver/src/stm32f4xx_cryp_aes.c ****     else
 393:../Libraries/STM32F4xx_StdPeriph_Driver/src/stm32f4xx_cryp_aes.c ****     {
 394:../Libraries/STM32F4xx_StdPeriph_Driver/src/stm32f4xx_cryp_aes.c ****       /* Crypto Init for decryption process */  
 395:../Libraries/STM32F4xx_StdPeriph_Driver/src/stm32f4xx_cryp_aes.c ****       AES_CRYP_InitStructure.CRYP_AlgoDir = CRYP_AlgoDir_Decrypt;
 25921              		.loc 1 395 0
 25922 08e0 4FF00403 		mov	r3, #4
 25923 08e4 A7F84430 		strh	r3, [r7, #68]	@ movhi
 25924 08e8 08E0     		b	.L30
 25925              	.L26:
 396:../Libraries/STM32F4xx_StdPeriph_Driver/src/stm32f4xx_cryp_aes.c ****     }
 397:../Libraries/STM32F4xx_StdPeriph_Driver/src/stm32f4xx_cryp_aes.c ****   }
 398:../Libraries/STM32F4xx_StdPeriph_Driver/src/stm32f4xx_cryp_aes.c ****   /*------------------ AES Encryption ------------------*/
 399:../Libraries/STM32F4xx_StdPeriph_Driver/src/stm32f4xx_cryp_aes.c ****   else /* AES encryption */
 400:../Libraries/STM32F4xx_StdPeriph_Driver/src/stm32f4xx_cryp_aes.c ****   {
 401:../Libraries/STM32F4xx_StdPeriph_Driver/src/stm32f4xx_cryp_aes.c ****     CRYP_KeyInit(&AES_CRYP_KeyInitStructure);
 25926              		.loc 1 401 0
 25927 08ea 07F12403 		add	r3, r7, #36
 25928 08ee 1846     		mov	r0, r3
 25929 08f0 FFF7FEFF 		bl	CRYP_KeyInit
 402:../Libraries/STM32F4xx_StdPeriph_Driver/src/stm32f4xx_cryp_aes.c **** 
 403:../Libraries/STM32F4xx_StdPeriph_Driver/src/stm32f4xx_cryp_aes.c ****     /* Crypto Init for Encryption process */
 404:../Libraries/STM32F4xx_StdPeriph_Driver/src/stm32f4xx_cryp_aes.c ****     AES_CRYP_InitStructure.CRYP_AlgoDir  = CRYP_AlgoDir_Encrypt;
 25930              		.loc 1 404 0
 25931 08f4 4FF00003 		mov	r3, #0
 25932 08f8 A7F84430 		strh	r3, [r7, #68]	@ movhi
 25933              	.L30:
 405:../Libraries/STM32F4xx_StdPeriph_Driver/src/stm32f4xx_cryp_aes.c ****   }
 406:../Libraries/STM32F4xx_StdPeriph_Driver/src/stm32f4xx_cryp_aes.c ****   AES_CRYP_InitStructure.CRYP_AlgoMode = CRYP_AlgoMode_AES_CBC;
 25934              		.loc 1 406 0
 25935 08fc 4FF02803 		mov	r3, #40
 25936 0900 A7F84630 		strh	r3, [r7, #70]	@ movhi
 407:../Libraries/STM32F4xx_StdPeriph_Driver/src/stm32f4xx_cryp_aes.c ****   AES_CRYP_InitStructure.CRYP_DataType = CRYP_DataType_8b;
 25937              		.loc 1 407 0
 25938 0904 4FF08003 		mov	r3, #128
 25939 0908 A7F84830 		strh	r3, [r7, #72]	@ movhi
 408:../Libraries/STM32F4xx_StdPeriph_Driver/src/stm32f4xx_cryp_aes.c ****   CRYP_Init(&AES_CRYP_InitStructure);
 25940              		.loc 1 408 0
 25941 090c 07F14403 		add	r3, r7, #68
 25942 0910 1846     		mov	r0, r3
 25943 0912 FFF7FEFF 		bl	CRYP_Init
 409:../Libraries/STM32F4xx_StdPeriph_Driver/src/stm32f4xx_cryp_aes.c **** 
 410:../Libraries/STM32F4xx_StdPeriph_Driver/src/stm32f4xx_cryp_aes.c ****   /* CRYP Initialization Vectors */
 411:../Libraries/STM32F4xx_StdPeriph_Driver/src/stm32f4xx_cryp_aes.c ****   CRYP_IVInit(&AES_CRYP_IVInitStructure);
 25944              		.loc 1 411 0
 25945 0916 07F11403 		add	r3, r7, #20
 25946 091a 1846     		mov	r0, r3
 25947 091c FFF7FEFF 		bl	CRYP_IVInit
 412:../Libraries/STM32F4xx_StdPeriph_Driver/src/stm32f4xx_cryp_aes.c **** 
 413:../Libraries/STM32F4xx_StdPeriph_Driver/src/stm32f4xx_cryp_aes.c ****   /* Flush IN/OUT FIFOs */
 414:../Libraries/STM32F4xx_StdPeriph_Driver/src/stm32f4xx_cryp_aes.c ****   CRYP_FIFOFlush();
 25948              		.loc 1 414 0
 25949 0920 FFF7FEFF 		bl	CRYP_FIFOFlush
 415:../Libraries/STM32F4xx_StdPeriph_Driver/src/stm32f4xx_cryp_aes.c **** 
 416:../Libraries/STM32F4xx_StdPeriph_Driver/src/stm32f4xx_cryp_aes.c ****   /* Enable Crypto processor */
 417:../Libraries/STM32F4xx_StdPeriph_Driver/src/stm32f4xx_cryp_aes.c ****   CRYP_Cmd(ENABLE);
 25950              		.loc 1 417 0
 25951 0924 4FF00100 		mov	r0, #1
 25952 0928 FFF7FEFF 		bl	CRYP_Cmd
 418:../Libraries/STM32F4xx_StdPeriph_Driver/src/stm32f4xx_cryp_aes.c **** 
 419:../Libraries/STM32F4xx_StdPeriph_Driver/src/stm32f4xx_cryp_aes.c **** 
 420:../Libraries/STM32F4xx_StdPeriph_Driver/src/stm32f4xx_cryp_aes.c ****   for(i=0; ((i<Ilength) && (status != ERROR)); i+=16)
 25953              		.loc 1 420 0
 25954 092c 4FF00003 		mov	r3, #0
 25955 0930 C7F80831 		str	r3, [r7, #264]
 25956 0934 8CE0     		b	.L31
 25957              	.L37:
 421:../Libraries/STM32F4xx_StdPeriph_Driver/src/stm32f4xx_cryp_aes.c ****   {
 422:../Libraries/STM32F4xx_StdPeriph_Driver/src/stm32f4xx_cryp_aes.c **** 
 423:../Libraries/STM32F4xx_StdPeriph_Driver/src/stm32f4xx_cryp_aes.c ****     /* Write the Input block in the IN FIFO */
 424:../Libraries/STM32F4xx_StdPeriph_Driver/src/stm32f4xx_cryp_aes.c ****     CRYP_DataIn(*(uint32_t*)(inputaddr));
 25958              		.loc 1 424 0
 25959 0936 D7F81031 		ldr	r3, [r7, #272]
 25960 093a 1B68     		ldr	r3, [r3, #0]
 25961 093c 1846     		mov	r0, r3
 25962 093e FFF7FEFF 		bl	CRYP_DataIn
 425:../Libraries/STM32F4xx_StdPeriph_Driver/src/stm32f4xx_cryp_aes.c ****     inputaddr+=4;
 25963              		.loc 1 425 0
 25964 0942 D7F81031 		ldr	r3, [r7, #272]
 25965 0946 03F10403 		add	r3, r3, #4
 25966 094a C7F81031 		str	r3, [r7, #272]
 426:../Libraries/STM32F4xx_StdPeriph_Driver/src/stm32f4xx_cryp_aes.c ****     CRYP_DataIn(*(uint32_t*)(inputaddr));
 25967              		.loc 1 426 0
 25968 094e D7F81031 		ldr	r3, [r7, #272]
 25969 0952 1B68     		ldr	r3, [r3, #0]
 25970 0954 1846     		mov	r0, r3
 25971 0956 FFF7FEFF 		bl	CRYP_DataIn
 427:../Libraries/STM32F4xx_StdPeriph_Driver/src/stm32f4xx_cryp_aes.c ****     inputaddr+=4;
 25972              		.loc 1 427 0
 25973 095a D7F81031 		ldr	r3, [r7, #272]
 25974 095e 03F10403 		add	r3, r3, #4
 25975 0962 C7F81031 		str	r3, [r7, #272]
 428:../Libraries/STM32F4xx_StdPeriph_Driver/src/stm32f4xx_cryp_aes.c ****     CRYP_DataIn(*(uint32_t*)(inputaddr));
 25976              		.loc 1 428 0
 25977 0966 D7F81031 		ldr	r3, [r7, #272]
 25978 096a 1B68     		ldr	r3, [r3, #0]
 25979 096c 1846     		mov	r0, r3
 25980 096e FFF7FEFF 		bl	CRYP_DataIn
 429:../Libraries/STM32F4xx_StdPeriph_Driver/src/stm32f4xx_cryp_aes.c ****     inputaddr+=4;
 25981              		.loc 1 429 0
 25982 0972 D7F81031 		ldr	r3, [r7, #272]
 25983 0976 03F10403 		add	r3, r3, #4
 25984 097a C7F81031 		str	r3, [r7, #272]
 430:../Libraries/STM32F4xx_StdPeriph_Driver/src/stm32f4xx_cryp_aes.c ****     CRYP_DataIn(*(uint32_t*)(inputaddr));
 25985              		.loc 1 430 0
 25986 097e D7F81031 		ldr	r3, [r7, #272]
 25987 0982 1B68     		ldr	r3, [r3, #0]
 25988 0984 1846     		mov	r0, r3
 25989 0986 FFF7FEFF 		bl	CRYP_DataIn
 431:../Libraries/STM32F4xx_StdPeriph_Driver/src/stm32f4xx_cryp_aes.c ****     inputaddr+=4;
 25990              		.loc 1 431 0
 25991 098a D7F81031 		ldr	r3, [r7, #272]
 25992 098e 03F10403 		add	r3, r3, #4
 25993 0992 C7F81031 		str	r3, [r7, #272]
 432:../Libraries/STM32F4xx_StdPeriph_Driver/src/stm32f4xx_cryp_aes.c ****     /* Wait until the complete message has been processed */
 433:../Libraries/STM32F4xx_StdPeriph_Driver/src/stm32f4xx_cryp_aes.c ****     counter = 0;
 25994              		.loc 1 433 0
 25995 0996 07F11003 		add	r3, r7, #16
 25996 099a 4FF00002 		mov	r2, #0
 25997 099e 1A60     		str	r2, [r3, #0]
 25998              	.L33:
 434:../Libraries/STM32F4xx_StdPeriph_Driver/src/stm32f4xx_cryp_aes.c ****     do
 435:../Libraries/STM32F4xx_StdPeriph_Driver/src/stm32f4xx_cryp_aes.c ****     {
 436:../Libraries/STM32F4xx_StdPeriph_Driver/src/stm32f4xx_cryp_aes.c ****       busystatus = CRYP_GetFlagStatus(CRYP_FLAG_BUSY);
 25999              		.loc 1 436 0 discriminator 1
 26000 09a0 4FF01000 		mov	r0, #16
 26001 09a4 FFF7FEFF 		bl	CRYP_GetFlagStatus
 26002 09a8 0346     		mov	r3, r0
 26003 09aa C7F80431 		str	r3, [r7, #260]
 437:../Libraries/STM32F4xx_StdPeriph_Driver/src/stm32f4xx_cryp_aes.c ****       counter++;
 26004              		.loc 1 437 0 discriminator 1
 26005 09ae 07F11003 		add	r3, r7, #16
 26006 09b2 1B68     		ldr	r3, [r3, #0]
 26007 09b4 03F10102 		add	r2, r3, #1
 26008 09b8 07F11003 		add	r3, r7, #16
 26009 09bc 1A60     		str	r2, [r3, #0]
 438:../Libraries/STM32F4xx_StdPeriph_Driver/src/stm32f4xx_cryp_aes.c ****     }while ((counter != AESBUSY_TIMEOUT) && (busystatus != RESET));
 26010              		.loc 1 438 0 discriminator 1
 26011 09be 07F11003 		add	r3, r7, #16
 26012 09c2 1B68     		ldr	r3, [r3, #0]
 26013 09c4 B3F5803F 		cmp	r3, #65536
 26014 09c8 03D0     		beq	.L32
 26015 09ca D7F80431 		ldr	r3, [r7, #260]
 26016 09ce 002B     		cmp	r3, #0
 26017 09d0 E6D1     		bne	.L33
 26018              	.L32:
 439:../Libraries/STM32F4xx_StdPeriph_Driver/src/stm32f4xx_cryp_aes.c **** 
 440:../Libraries/STM32F4xx_StdPeriph_Driver/src/stm32f4xx_cryp_aes.c ****     if (busystatus != RESET)
 26019              		.loc 1 440 0
 26020 09d2 D7F80431 		ldr	r3, [r7, #260]
 26021 09d6 002B     		cmp	r3, #0
 26022 09d8 04D0     		beq	.L34
 441:../Libraries/STM32F4xx_StdPeriph_Driver/src/stm32f4xx_cryp_aes.c ****    {
 442:../Libraries/STM32F4xx_StdPeriph_Driver/src/stm32f4xx_cryp_aes.c ****        status = ERROR;
 26023              		.loc 1 442 0
 26024 09da 4FF00003 		mov	r3, #0
 26025 09de 87F81731 		strb	r3, [r7, #279]
 26026 09e2 2FE0     		b	.L35
 26027              	.L34:
 443:../Libraries/STM32F4xx_StdPeriph_Driver/src/stm32f4xx_cryp_aes.c ****     }
 444:../Libraries/STM32F4xx_StdPeriph_Driver/src/stm32f4xx_cryp_aes.c ****     else
 445:../Libraries/STM32F4xx_StdPeriph_Driver/src/stm32f4xx_cryp_aes.c ****     {
 446:../Libraries/STM32F4xx_StdPeriph_Driver/src/stm32f4xx_cryp_aes.c **** 
 447:../Libraries/STM32F4xx_StdPeriph_Driver/src/stm32f4xx_cryp_aes.c ****       /* Read the Output block from the Output FIFO */
 448:../Libraries/STM32F4xx_StdPeriph_Driver/src/stm32f4xx_cryp_aes.c ****       *(uint32_t*)(outputaddr) = CRYP_DataOut();
 26028              		.loc 1 448 0
 26029 09e4 D7F80C41 		ldr	r4, [r7, #268]
 26030 09e8 FFF7FEFF 		bl	CRYP_DataOut
 26031 09ec 0346     		mov	r3, r0
 26032 09ee 2360     		str	r3, [r4, #0]
 449:../Libraries/STM32F4xx_StdPeriph_Driver/src/stm32f4xx_cryp_aes.c ****       outputaddr+=4;
 26033              		.loc 1 449 0
 26034 09f0 D7F80C31 		ldr	r3, [r7, #268]
 26035 09f4 03F10403 		add	r3, r3, #4
 26036 09f8 C7F80C31 		str	r3, [r7, #268]
 450:../Libraries/STM32F4xx_StdPeriph_Driver/src/stm32f4xx_cryp_aes.c ****       *(uint32_t*)(outputaddr) = CRYP_DataOut();
 26037              		.loc 1 450 0
 26038 09fc D7F80C41 		ldr	r4, [r7, #268]
 26039 0a00 FFF7FEFF 		bl	CRYP_DataOut
 26040 0a04 0346     		mov	r3, r0
 26041 0a06 2360     		str	r3, [r4, #0]
 451:../Libraries/STM32F4xx_StdPeriph_Driver/src/stm32f4xx_cryp_aes.c ****       outputaddr+=4;
 26042              		.loc 1 451 0
 26043 0a08 D7F80C31 		ldr	r3, [r7, #268]
 26044 0a0c 03F10403 		add	r3, r3, #4
 26045 0a10 C7F80C31 		str	r3, [r7, #268]
 452:../Libraries/STM32F4xx_StdPeriph_Driver/src/stm32f4xx_cryp_aes.c ****       *(uint32_t*)(outputaddr) = CRYP_DataOut();
 26046              		.loc 1 452 0
 26047 0a14 D7F80C41 		ldr	r4, [r7, #268]
 26048 0a18 FFF7FEFF 		bl	CRYP_DataOut
 26049 0a1c 0346     		mov	r3, r0
 26050 0a1e 2360     		str	r3, [r4, #0]
 453:../Libraries/STM32F4xx_StdPeriph_Driver/src/stm32f4xx_cryp_aes.c ****       outputaddr+=4;
 26051              		.loc 1 453 0
 26052 0a20 D7F80C31 		ldr	r3, [r7, #268]
 26053 0a24 03F10403 		add	r3, r3, #4
 26054 0a28 C7F80C31 		str	r3, [r7, #268]
 454:../Libraries/STM32F4xx_StdPeriph_Driver/src/stm32f4xx_cryp_aes.c ****       *(uint32_t*)(outputaddr) = CRYP_DataOut();
 26055              		.loc 1 454 0
 26056 0a2c D7F80C41 		ldr	r4, [r7, #268]
 26057 0a30 FFF7FEFF 		bl	CRYP_DataOut
 26058 0a34 0346     		mov	r3, r0
 26059 0a36 2360     		str	r3, [r4, #0]
 455:../Libraries/STM32F4xx_StdPeriph_Driver/src/stm32f4xx_cryp_aes.c ****       outputaddr+=4;
 26060              		.loc 1 455 0
 26061 0a38 D7F80C31 		ldr	r3, [r7, #268]
 26062 0a3c 03F10403 		add	r3, r3, #4
 26063 0a40 C7F80C31 		str	r3, [r7, #268]
 26064              	.L35:
 420:../Libraries/STM32F4xx_StdPeriph_Driver/src/stm32f4xx_cryp_aes.c ****   for(i=0; ((i<Ilength) && (status != ERROR)); i+=16)
 26065              		.loc 1 420 0
 26066 0a44 D7F80831 		ldr	r3, [r7, #264]
 26067 0a48 03F11003 		add	r3, r3, #16
 26068 0a4c C7F80831 		str	r3, [r7, #264]
 26069              	.L31:
 420:../Libraries/STM32F4xx_StdPeriph_Driver/src/stm32f4xx_cryp_aes.c ****   for(i=0; ((i<Ilength) && (status != ERROR)); i+=16)
 26070              		.loc 1 420 0 is_stmt 0 discriminator 1
 26071 0a50 D7F80821 		ldr	r2, [r7, #264]
 26072 0a54 D7F82C31 		ldr	r3, [r7, #300]
 26073 0a58 9A42     		cmp	r2, r3
 26074 0a5a 04D2     		bcs	.L36
 420:../Libraries/STM32F4xx_StdPeriph_Driver/src/stm32f4xx_cryp_aes.c ****   for(i=0; ((i<Ilength) && (status != ERROR)); i+=16)
 26075              		.loc 1 420 0 discriminator 2
 26076 0a5c 97F81731 		ldrb	r3, [r7, #279]	@ zero_extendqisi2
 26077 0a60 002B     		cmp	r3, #0
 26078 0a62 7FF468AF 		bne	.L37
 26079              	.L36:
 456:../Libraries/STM32F4xx_StdPeriph_Driver/src/stm32f4xx_cryp_aes.c ****     }
 457:../Libraries/STM32F4xx_StdPeriph_Driver/src/stm32f4xx_cryp_aes.c ****   }
 458:../Libraries/STM32F4xx_StdPeriph_Driver/src/stm32f4xx_cryp_aes.c **** 
 459:../Libraries/STM32F4xx_StdPeriph_Driver/src/stm32f4xx_cryp_aes.c ****   /* Disable Crypto */
 460:../Libraries/STM32F4xx_StdPeriph_Driver/src/stm32f4xx_cryp_aes.c ****   CRYP_Cmd(DISABLE);
 26080              		.loc 1 460 0 is_stmt 1
 26081 0a66 4FF00000 		mov	r0, #0
 26082 0a6a FFF7FEFF 		bl	CRYP_Cmd
 461:../Libraries/STM32F4xx_StdPeriph_Driver/src/stm32f4xx_cryp_aes.c **** 
 462:../Libraries/STM32F4xx_StdPeriph_Driver/src/stm32f4xx_cryp_aes.c ****   return status;
 26083              		.loc 1 462 0
 26084 0a6e 97F81731 		ldrb	r3, [r7, #279]	@ zero_extendqisi2
 463:../Libraries/STM32F4xx_StdPeriph_Driver/src/stm32f4xx_cryp_aes.c **** }
 26085              		.loc 1 463 0
 26086 0a72 1846     		mov	r0, r3
 26087 0a74 07F58E77 		add	r7, r7, #284
 26088 0a78 BD46     		mov	sp, r7
 26089 0a7a 90BD     		pop	{r4, r7, pc}
 26090              		.cfi_endproc
 26091              	.LFE111:
 26093              		.align	2
 26094              		.global	CRYP_AES_CTR
 26095              		.thumb
 26096              		.thumb_func
 26098              	CRYP_AES_CTR:
 26099              	.LFB112:
 464:../Libraries/STM32F4xx_StdPeriph_Driver/src/stm32f4xx_cryp_aes.c **** 
 465:../Libraries/STM32F4xx_StdPeriph_Driver/src/stm32f4xx_cryp_aes.c **** /**
 466:../Libraries/STM32F4xx_StdPeriph_Driver/src/stm32f4xx_cryp_aes.c ****   * @brief  Encrypt and decrypt using AES in CTR Mode
 467:../Libraries/STM32F4xx_StdPeriph_Driver/src/stm32f4xx_cryp_aes.c ****   * @param  Mode: encryption or decryption Mode.
 468:../Libraries/STM32F4xx_StdPeriph_Driver/src/stm32f4xx_cryp_aes.c ****   *           This parameter can be one of the following values:
 469:../Libraries/STM32F4xx_StdPeriph_Driver/src/stm32f4xx_cryp_aes.c ****   *            @arg MODE_ENCRYPT: Encryption
 470:../Libraries/STM32F4xx_StdPeriph_Driver/src/stm32f4xx_cryp_aes.c ****   *            @arg MODE_DECRYPT: Decryption
 471:../Libraries/STM32F4xx_StdPeriph_Driver/src/stm32f4xx_cryp_aes.c ****   * @param  InitVectors: Initialisation Vectors used for AES algorithm.
 472:../Libraries/STM32F4xx_StdPeriph_Driver/src/stm32f4xx_cryp_aes.c ****   * @param  Key: Key used for AES algorithm.
 473:../Libraries/STM32F4xx_StdPeriph_Driver/src/stm32f4xx_cryp_aes.c ****   * @param  Keysize: length of the Key, must be a 128, 192 or 256.
 474:../Libraries/STM32F4xx_StdPeriph_Driver/src/stm32f4xx_cryp_aes.c ****   * @param  Input: pointer to the Input buffer.
 475:../Libraries/STM32F4xx_StdPeriph_Driver/src/stm32f4xx_cryp_aes.c ****   * @param  Ilength: length of the Input buffer, must be a multiple of 16.
 476:../Libraries/STM32F4xx_StdPeriph_Driver/src/stm32f4xx_cryp_aes.c ****   * @param  Output: pointer to the returned buffer.
 477:../Libraries/STM32F4xx_StdPeriph_Driver/src/stm32f4xx_cryp_aes.c ****   * @retval An ErrorStatus enumeration value:
 478:../Libraries/STM32F4xx_StdPeriph_Driver/src/stm32f4xx_cryp_aes.c ****   *          - SUCCESS: Operation done
 479:../Libraries/STM32F4xx_StdPeriph_Driver/src/stm32f4xx_cryp_aes.c ****   *          - ERROR: Operation failed
 480:../Libraries/STM32F4xx_StdPeriph_Driver/src/stm32f4xx_cryp_aes.c ****   */
 481:../Libraries/STM32F4xx_StdPeriph_Driver/src/stm32f4xx_cryp_aes.c **** ErrorStatus CRYP_AES_CTR(uint8_t Mode, uint8_t InitVectors[16], uint8_t *Key, 
 482:../Libraries/STM32F4xx_StdPeriph_Driver/src/stm32f4xx_cryp_aes.c ****                          uint16_t Keysize, uint8_t *Input, uint32_t Ilength,
 483:../Libraries/STM32F4xx_StdPeriph_Driver/src/stm32f4xx_cryp_aes.c ****                          uint8_t *Output)
 484:../Libraries/STM32F4xx_StdPeriph_Driver/src/stm32f4xx_cryp_aes.c **** {
 26100              		.loc 1 484 0
 26101              		.cfi_startproc
 26102              		@ args = 12, pretend = 0, frame = 280
 26103              		@ frame_needed = 1, uses_anonymous_args = 0
 26104 0a7c 90B5     		push	{r4, r7, lr}
 26105              	.LCFI6:
 26106              		.cfi_def_cfa_offset 12
 26107 0a7e C7B0     		sub	sp, sp, #284
 26108              	.LCFI7:
 26109              		.cfi_def_cfa_offset 296
 26110 0a80 00AF     		add	r7, sp, #0
 26111              		.cfi_offset 14, -4
 26112              		.cfi_offset 7, -8
 26113              		.cfi_offset 4, -12
 26114              	.LCFI8:
 26115              		.cfi_def_cfa_register 7
 26116 0a82 07F10804 		add	r4, r7, #8
 26117 0a86 2160     		str	r1, [r4, #0]
 26118 0a88 07F10401 		add	r1, r7, #4
 26119 0a8c 0A60     		str	r2, [r1, #0]
 26120 0a8e 1A46     		mov	r2, r3
 26121 0a90 07F11003 		add	r3, r7, #16
 26122 0a94 03F1FF33 		add	r3, r3, #-1
 26123 0a98 0146     		mov	r1, r0
 26124 0a9a 1970     		strb	r1, [r3, #0]
 26125 0a9c 07F10203 		add	r3, r7, #2
 26126 0aa0 1A80     		strh	r2, [r3, #0]	@ movhi
 485:../Libraries/STM32F4xx_StdPeriph_Driver/src/stm32f4xx_cryp_aes.c ****   CRYP_InitTypeDef AES_CRYP_InitStructure;
 486:../Libraries/STM32F4xx_StdPeriph_Driver/src/stm32f4xx_cryp_aes.c ****   CRYP_KeyInitTypeDef AES_CRYP_KeyInitStructure;
 487:../Libraries/STM32F4xx_StdPeriph_Driver/src/stm32f4xx_cryp_aes.c ****   CRYP_IVInitTypeDef AES_CRYP_IVInitStructure;
 488:../Libraries/STM32F4xx_StdPeriph_Driver/src/stm32f4xx_cryp_aes.c ****   __IO uint32_t counter = 0;
 26127              		.loc 1 488 0
 26128 0aa2 07F11003 		add	r3, r7, #16
 26129 0aa6 4FF00002 		mov	r2, #0
 26130 0aaa 1A60     		str	r2, [r3, #0]
 489:../Libraries/STM32F4xx_StdPeriph_Driver/src/stm32f4xx_cryp_aes.c ****   uint32_t busystatus = 0;
 26131              		.loc 1 489 0
 26132 0aac 4FF00003 		mov	r3, #0
 26133 0ab0 C7F80431 		str	r3, [r7, #260]
 490:../Libraries/STM32F4xx_StdPeriph_Driver/src/stm32f4xx_cryp_aes.c ****   ErrorStatus status = SUCCESS;
 26134              		.loc 1 490 0
 26135 0ab4 4FF00103 		mov	r3, #1
 26136 0ab8 87F81731 		strb	r3, [r7, #279]
 491:../Libraries/STM32F4xx_StdPeriph_Driver/src/stm32f4xx_cryp_aes.c ****   uint32_t keyaddr    = (uint32_t)Key;
 26137              		.loc 1 491 0
 26138 0abc 07F10403 		add	r3, r7, #4
 26139 0ac0 1B68     		ldr	r3, [r3, #0]
 26140 0ac2 C7F80031 		str	r3, [r7, #256]
 492:../Libraries/STM32F4xx_StdPeriph_Driver/src/stm32f4xx_cryp_aes.c ****   uint32_t inputaddr  = (uint32_t)Input;
 26141              		.loc 1 492 0
 26142 0ac6 D7F82831 		ldr	r3, [r7, #296]
 26143 0aca C7F81031 		str	r3, [r7, #272]
 493:../Libraries/STM32F4xx_StdPeriph_Driver/src/stm32f4xx_cryp_aes.c ****   uint32_t outputaddr = (uint32_t)Output;
 26144              		.loc 1 493 0
 26145 0ace D7F83031 		ldr	r3, [r7, #304]
 26146 0ad2 C7F80C31 		str	r3, [r7, #268]
 494:../Libraries/STM32F4xx_StdPeriph_Driver/src/stm32f4xx_cryp_aes.c ****   uint32_t ivaddr     = (uint32_t)InitVectors;
 26147              		.loc 1 494 0
 26148 0ad6 07F10803 		add	r3, r7, #8
 26149 0ada 1B68     		ldr	r3, [r3, #0]
 26150 0adc C7F8FC30 		str	r3, [r7, #252]
 495:../Libraries/STM32F4xx_StdPeriph_Driver/src/stm32f4xx_cryp_aes.c ****   uint32_t i = 0;
 26151              		.loc 1 495 0
 26152 0ae0 4FF00003 		mov	r3, #0
 26153 0ae4 C7F80831 		str	r3, [r7, #264]
 496:../Libraries/STM32F4xx_StdPeriph_Driver/src/stm32f4xx_cryp_aes.c **** 
 497:../Libraries/STM32F4xx_StdPeriph_Driver/src/stm32f4xx_cryp_aes.c ****   /* Crypto structures initialisation*/
 498:../Libraries/STM32F4xx_StdPeriph_Driver/src/stm32f4xx_cryp_aes.c ****   CRYP_KeyStructInit(&AES_CRYP_KeyInitStructure);
 26154              		.loc 1 498 0
 26155 0ae8 07F12403 		add	r3, r7, #36
 26156 0aec 1846     		mov	r0, r3
 26157 0aee FFF7FEFF 		bl	CRYP_KeyStructInit
 499:../Libraries/STM32F4xx_StdPeriph_Driver/src/stm32f4xx_cryp_aes.c **** 
 500:../Libraries/STM32F4xx_StdPeriph_Driver/src/stm32f4xx_cryp_aes.c ****   switch(Keysize)
 26158              		.loc 1 500 0
 26159 0af2 07F10203 		add	r3, r7, #2
 26160 0af6 1B88     		ldrh	r3, [r3, #0]
 26161 0af8 C02B     		cmp	r3, #192
 26162 0afa 51D0     		beq	.L42
 26163 0afc B3F5807F 		cmp	r3, #256
 26164 0b00 00F0BF80 		beq	.L43
 26165 0b04 802B     		cmp	r3, #128
 26166 0b06 40F04981 		bne	.L54
 26167              	.L41:
 501:../Libraries/STM32F4xx_StdPeriph_Driver/src/stm32f4xx_cryp_aes.c ****   {
 502:../Libraries/STM32F4xx_StdPeriph_Driver/src/stm32f4xx_cryp_aes.c ****     case 128:
 503:../Libraries/STM32F4xx_StdPeriph_Driver/src/stm32f4xx_cryp_aes.c ****     AES_CRYP_InitStructure.CRYP_KeySize = CRYP_KeySize_128b;
 26168              		.loc 1 503 0
 26169 0b0a 4FF00003 		mov	r3, #0
 26170 0b0e A7F84A30 		strh	r3, [r7, #74]	@ movhi
 504:../Libraries/STM32F4xx_StdPeriph_Driver/src/stm32f4xx_cryp_aes.c ****     AES_CRYP_KeyInitStructure.CRYP_Key2Left = __REV(*(uint32_t*)(keyaddr));
 26171              		.loc 1 504 0
 26172 0b12 D7F80031 		ldr	r3, [r7, #256]
 26173 0b16 1B68     		ldr	r3, [r3, #0]
 26174 0b18 C7F8F830 		str	r3, [r7, #248]
 26175              	.LBB206:
 26176              	.LBB207:
 352:/home/junpei/workspace/arm/F4_Discovery_Template/Libraries/CMSIS/Include/core_cmInstr.h ****   __ASM volatile ("rev %0, %1" : "=r" (result) : "r" (value) );
 26177              		.loc 7 352 0
 26178 0b1c D7F8F830 		ldr	r3, [r7, #248]
 26179              	@ 352 "/home/junpei/workspace/arm/F4_Discovery_Template/Libraries/CMSIS/Include/core_cmInstr.h" 1
 26180 0b20 1CBA     		rev r4, r3
 26181              	@ 0 "" 2
 26182              		.thumb
 26183 0b22 C7F8F440 		str	r4, [r7, #244]
 26184              		.loc 7 353 0
 26185 0b26 D7F8F430 		ldr	r3, [r7, #244]
 26186              	.LBE207:
 26187              	.LBE206:
 26188              		.loc 1 504 0
 26189 0b2a 7B63     		str	r3, [r7, #52]
 505:../Libraries/STM32F4xx_StdPeriph_Driver/src/stm32f4xx_cryp_aes.c ****     keyaddr+=4;
 26190              		.loc 1 505 0
 26191 0b2c D7F80031 		ldr	r3, [r7, #256]
 26192 0b30 03F10403 		add	r3, r3, #4
 26193 0b34 C7F80031 		str	r3, [r7, #256]
 506:../Libraries/STM32F4xx_StdPeriph_Driver/src/stm32f4xx_cryp_aes.c ****     AES_CRYP_KeyInitStructure.CRYP_Key2Right= __REV(*(uint32_t*)(keyaddr));
 26194              		.loc 1 506 0
 26195 0b38 D7F80031 		ldr	r3, [r7, #256]
 26196 0b3c 1B68     		ldr	r3, [r3, #0]
 26197 0b3e C7F8F030 		str	r3, [r7, #240]
 26198              	.LBB208:
 26199              	.LBB209:
 352:/home/junpei/workspace/arm/F4_Discovery_Template/Libraries/CMSIS/Include/core_cmInstr.h ****   __ASM volatile ("rev %0, %1" : "=r" (result) : "r" (value) );
 26200              		.loc 7 352 0
 26201 0b42 D7F8F030 		ldr	r3, [r7, #240]
 26202              	@ 352 "/home/junpei/workspace/arm/F4_Discovery_Template/Libraries/CMSIS/Include/core_cmInstr.h" 1
 26203 0b46 1CBA     		rev r4, r3
 26204              	@ 0 "" 2
 26205              		.thumb
 26206 0b48 C7F8EC40 		str	r4, [r7, #236]
 26207              		.loc 7 353 0
 26208 0b4c D7F8EC30 		ldr	r3, [r7, #236]
 26209              	.LBE209:
 26210              	.LBE208:
 26211              		.loc 1 506 0
 26212 0b50 BB63     		str	r3, [r7, #56]
 507:../Libraries/STM32F4xx_StdPeriph_Driver/src/stm32f4xx_cryp_aes.c ****     keyaddr+=4;
 26213              		.loc 1 507 0
 26214 0b52 D7F80031 		ldr	r3, [r7, #256]
 26215 0b56 03F10403 		add	r3, r3, #4
 26216 0b5a C7F80031 		str	r3, [r7, #256]
 508:../Libraries/STM32F4xx_StdPeriph_Driver/src/stm32f4xx_cryp_aes.c ****     AES_CRYP_KeyInitStructure.CRYP_Key3Left = __REV(*(uint32_t*)(keyaddr));
 26217              		.loc 1 508 0
 26218 0b5e D7F80031 		ldr	r3, [r7, #256]
 26219 0b62 1B68     		ldr	r3, [r3, #0]
 26220 0b64 C7F8E830 		str	r3, [r7, #232]
 26221              	.LBB210:
 26222              	.LBB211:
 352:/home/junpei/workspace/arm/F4_Discovery_Template/Libraries/CMSIS/Include/core_cmInstr.h ****   __ASM volatile ("rev %0, %1" : "=r" (result) : "r" (value) );
 26223              		.loc 7 352 0
 26224 0b68 D7F8E830 		ldr	r3, [r7, #232]
 26225              	@ 352 "/home/junpei/workspace/arm/F4_Discovery_Template/Libraries/CMSIS/Include/core_cmInstr.h" 1
 26226 0b6c 1CBA     		rev r4, r3
 26227              	@ 0 "" 2
 26228              		.thumb
 26229 0b6e C7F8E440 		str	r4, [r7, #228]
 26230              		.loc 7 353 0
 26231 0b72 D7F8E430 		ldr	r3, [r7, #228]
 26232              	.LBE211:
 26233              	.LBE210:
 26234              		.loc 1 508 0
 26235 0b76 FB63     		str	r3, [r7, #60]
 509:../Libraries/STM32F4xx_StdPeriph_Driver/src/stm32f4xx_cryp_aes.c ****     keyaddr+=4;
 26236              		.loc 1 509 0
 26237 0b78 D7F80031 		ldr	r3, [r7, #256]
 26238 0b7c 03F10403 		add	r3, r3, #4
 26239 0b80 C7F80031 		str	r3, [r7, #256]
 510:../Libraries/STM32F4xx_StdPeriph_Driver/src/stm32f4xx_cryp_aes.c ****     AES_CRYP_KeyInitStructure.CRYP_Key3Right= __REV(*(uint32_t*)(keyaddr));
 26240              		.loc 1 510 0
 26241 0b84 D7F80031 		ldr	r3, [r7, #256]
 26242 0b88 1B68     		ldr	r3, [r3, #0]
 26243 0b8a C7F8E030 		str	r3, [r7, #224]
 26244              	.LBB212:
 26245              	.LBB213:
 352:/home/junpei/workspace/arm/F4_Discovery_Template/Libraries/CMSIS/Include/core_cmInstr.h ****   __ASM volatile ("rev %0, %1" : "=r" (result) : "r" (value) );
 26246              		.loc 7 352 0
 26247 0b8e D7F8E030 		ldr	r3, [r7, #224]
 26248              	@ 352 "/home/junpei/workspace/arm/F4_Discovery_Template/Libraries/CMSIS/Include/core_cmInstr.h" 1
 26249 0b92 1CBA     		rev r4, r3
 26250              	@ 0 "" 2
 26251              		.thumb
 26252 0b94 C7F8DC40 		str	r4, [r7, #220]
 26253              		.loc 7 353 0
 26254 0b98 D7F8DC30 		ldr	r3, [r7, #220]
 26255              	.LBE213:
 26256              	.LBE212:
 26257              		.loc 1 510 0
 26258 0b9c 3B64     		str	r3, [r7, #64]
 511:../Libraries/STM32F4xx_StdPeriph_Driver/src/stm32f4xx_cryp_aes.c ****     break;
 26259              		.loc 1 511 0
 26260 0b9e FEE0     		b	.L44
 26261              	.L42:
 512:../Libraries/STM32F4xx_StdPeriph_Driver/src/stm32f4xx_cryp_aes.c ****     case 192:
 513:../Libraries/STM32F4xx_StdPeriph_Driver/src/stm32f4xx_cryp_aes.c ****     AES_CRYP_InitStructure.CRYP_KeySize  = CRYP_KeySize_192b;
 26262              		.loc 1 513 0
 26263 0ba0 4FF48073 		mov	r3, #256
 26264 0ba4 A7F84A30 		strh	r3, [r7, #74]	@ movhi
 514:../Libraries/STM32F4xx_StdPeriph_Driver/src/stm32f4xx_cryp_aes.c ****     AES_CRYP_KeyInitStructure.CRYP_Key1Left = __REV(*(uint32_t*)(keyaddr));
 26265              		.loc 1 514 0
 26266 0ba8 D7F80031 		ldr	r3, [r7, #256]
 26267 0bac 1B68     		ldr	r3, [r3, #0]
 26268 0bae C7F8D830 		str	r3, [r7, #216]
 26269              	.LBB214:
 26270              	.LBB215:
 352:/home/junpei/workspace/arm/F4_Discovery_Template/Libraries/CMSIS/Include/core_cmInstr.h ****   __ASM volatile ("rev %0, %1" : "=r" (result) : "r" (value) );
 26271              		.loc 7 352 0
 26272 0bb2 D7F8D830 		ldr	r3, [r7, #216]
 26273              	@ 352 "/home/junpei/workspace/arm/F4_Discovery_Template/Libraries/CMSIS/Include/core_cmInstr.h" 1
 26274 0bb6 1CBA     		rev r4, r3
 26275              	@ 0 "" 2
 26276              		.thumb
 26277 0bb8 C7F8D440 		str	r4, [r7, #212]
 26278              		.loc 7 353 0
 26279 0bbc D7F8D430 		ldr	r3, [r7, #212]
 26280              	.LBE215:
 26281              	.LBE214:
 26282              		.loc 1 514 0
 26283 0bc0 FB62     		str	r3, [r7, #44]
 515:../Libraries/STM32F4xx_StdPeriph_Driver/src/stm32f4xx_cryp_aes.c ****     keyaddr+=4;
 26284              		.loc 1 515 0
 26285 0bc2 D7F80031 		ldr	r3, [r7, #256]
 26286 0bc6 03F10403 		add	r3, r3, #4
 26287 0bca C7F80031 		str	r3, [r7, #256]
 516:../Libraries/STM32F4xx_StdPeriph_Driver/src/stm32f4xx_cryp_aes.c ****     AES_CRYP_KeyInitStructure.CRYP_Key1Right= __REV(*(uint32_t*)(keyaddr));
 26288              		.loc 1 516 0
 26289 0bce D7F80031 		ldr	r3, [r7, #256]
 26290 0bd2 1B68     		ldr	r3, [r3, #0]
 26291 0bd4 C7F8D030 		str	r3, [r7, #208]
 26292              	.LBB216:
 26293              	.LBB217:
 352:/home/junpei/workspace/arm/F4_Discovery_Template/Libraries/CMSIS/Include/core_cmInstr.h ****   __ASM volatile ("rev %0, %1" : "=r" (result) : "r" (value) );
 26294              		.loc 7 352 0
 26295 0bd8 D7F8D030 		ldr	r3, [r7, #208]
 26296              	@ 352 "/home/junpei/workspace/arm/F4_Discovery_Template/Libraries/CMSIS/Include/core_cmInstr.h" 1
 26297 0bdc 1CBA     		rev r4, r3
 26298              	@ 0 "" 2
 26299              		.thumb
 26300 0bde C7F8CC40 		str	r4, [r7, #204]
 26301              		.loc 7 353 0
 26302 0be2 D7F8CC30 		ldr	r3, [r7, #204]
 26303              	.LBE217:
 26304              	.LBE216:
 26305              		.loc 1 516 0
 26306 0be6 3B63     		str	r3, [r7, #48]
 517:../Libraries/STM32F4xx_StdPeriph_Driver/src/stm32f4xx_cryp_aes.c ****     keyaddr+=4;
 26307              		.loc 1 517 0
 26308 0be8 D7F80031 		ldr	r3, [r7, #256]
 26309 0bec 03F10403 		add	r3, r3, #4
 26310 0bf0 C7F80031 		str	r3, [r7, #256]
 518:../Libraries/STM32F4xx_StdPeriph_Driver/src/stm32f4xx_cryp_aes.c ****     AES_CRYP_KeyInitStructure.CRYP_Key2Left = __REV(*(uint32_t*)(keyaddr));
 26311              		.loc 1 518 0
 26312 0bf4 D7F80031 		ldr	r3, [r7, #256]
 26313 0bf8 1B68     		ldr	r3, [r3, #0]
 26314 0bfa C7F8C830 		str	r3, [r7, #200]
 26315              	.LBB218:
 26316              	.LBB219:
 352:/home/junpei/workspace/arm/F4_Discovery_Template/Libraries/CMSIS/Include/core_cmInstr.h ****   __ASM volatile ("rev %0, %1" : "=r" (result) : "r" (value) );
 26317              		.loc 7 352 0
 26318 0bfe D7F8C830 		ldr	r3, [r7, #200]
 26319              	@ 352 "/home/junpei/workspace/arm/F4_Discovery_Template/Libraries/CMSIS/Include/core_cmInstr.h" 1
 26320 0c02 1CBA     		rev r4, r3
 26321              	@ 0 "" 2
 26322              		.thumb
 26323 0c04 C7F8C440 		str	r4, [r7, #196]
 26324              		.loc 7 353 0
 26325 0c08 D7F8C430 		ldr	r3, [r7, #196]
 26326              	.LBE219:
 26327              	.LBE218:
 26328              		.loc 1 518 0
 26329 0c0c 7B63     		str	r3, [r7, #52]
 519:../Libraries/STM32F4xx_StdPeriph_Driver/src/stm32f4xx_cryp_aes.c ****     keyaddr+=4;
 26330              		.loc 1 519 0
 26331 0c0e D7F80031 		ldr	r3, [r7, #256]
 26332 0c12 03F10403 		add	r3, r3, #4
 26333 0c16 C7F80031 		str	r3, [r7, #256]
 520:../Libraries/STM32F4xx_StdPeriph_Driver/src/stm32f4xx_cryp_aes.c ****     AES_CRYP_KeyInitStructure.CRYP_Key2Right= __REV(*(uint32_t*)(keyaddr));
 26334              		.loc 1 520 0
 26335 0c1a D7F80031 		ldr	r3, [r7, #256]
 26336 0c1e 1B68     		ldr	r3, [r3, #0]
 26337 0c20 C7F8C030 		str	r3, [r7, #192]
 26338              	.LBB220:
 26339              	.LBB221:
 352:/home/junpei/workspace/arm/F4_Discovery_Template/Libraries/CMSIS/Include/core_cmInstr.h ****   __ASM volatile ("rev %0, %1" : "=r" (result) : "r" (value) );
 26340              		.loc 7 352 0
 26341 0c24 D7F8C030 		ldr	r3, [r7, #192]
 26342              	@ 352 "/home/junpei/workspace/arm/F4_Discovery_Template/Libraries/CMSIS/Include/core_cmInstr.h" 1
 26343 0c28 1CBA     		rev r4, r3
 26344              	@ 0 "" 2
 26345              		.thumb
 26346 0c2a C7F8BC40 		str	r4, [r7, #188]
 26347              		.loc 7 353 0
 26348 0c2e D7F8BC30 		ldr	r3, [r7, #188]
 26349              	.LBE221:
 26350              	.LBE220:
 26351              		.loc 1 520 0
 26352 0c32 BB63     		str	r3, [r7, #56]
 521:../Libraries/STM32F4xx_StdPeriph_Driver/src/stm32f4xx_cryp_aes.c ****     keyaddr+=4;
 26353              		.loc 1 521 0
 26354 0c34 D7F80031 		ldr	r3, [r7, #256]
 26355 0c38 03F10403 		add	r3, r3, #4
 26356 0c3c C7F80031 		str	r3, [r7, #256]
 522:../Libraries/STM32F4xx_StdPeriph_Driver/src/stm32f4xx_cryp_aes.c ****     AES_CRYP_KeyInitStructure.CRYP_Key3Left = __REV(*(uint32_t*)(keyaddr));
 26357              		.loc 1 522 0
 26358 0c40 D7F80031 		ldr	r3, [r7, #256]
 26359 0c44 1B68     		ldr	r3, [r3, #0]
 26360 0c46 C7F8B830 		str	r3, [r7, #184]
 26361              	.LBB222:
 26362              	.LBB223:
 352:/home/junpei/workspace/arm/F4_Discovery_Template/Libraries/CMSIS/Include/core_cmInstr.h ****   __ASM volatile ("rev %0, %1" : "=r" (result) : "r" (value) );
 26363              		.loc 7 352 0
 26364 0c4a D7F8B830 		ldr	r3, [r7, #184]
 26365              	@ 352 "/home/junpei/workspace/arm/F4_Discovery_Template/Libraries/CMSIS/Include/core_cmInstr.h" 1
 26366 0c4e 1CBA     		rev r4, r3
 26367              	@ 0 "" 2
 26368              		.thumb
 26369 0c50 C7F8B440 		str	r4, [r7, #180]
 26370              		.loc 7 353 0
 26371 0c54 D7F8B430 		ldr	r3, [r7, #180]
 26372              	.LBE223:
 26373              	.LBE222:
 26374              		.loc 1 522 0
 26375 0c58 FB63     		str	r3, [r7, #60]
 523:../Libraries/STM32F4xx_StdPeriph_Driver/src/stm32f4xx_cryp_aes.c ****     keyaddr+=4;
 26376              		.loc 1 523 0
 26377 0c5a D7F80031 		ldr	r3, [r7, #256]
 26378 0c5e 03F10403 		add	r3, r3, #4
 26379 0c62 C7F80031 		str	r3, [r7, #256]
 524:../Libraries/STM32F4xx_StdPeriph_Driver/src/stm32f4xx_cryp_aes.c ****     AES_CRYP_KeyInitStructure.CRYP_Key3Right= __REV(*(uint32_t*)(keyaddr));
 26380              		.loc 1 524 0
 26381 0c66 D7F80031 		ldr	r3, [r7, #256]
 26382 0c6a 1B68     		ldr	r3, [r3, #0]
 26383 0c6c C7F8B030 		str	r3, [r7, #176]
 26384              	.LBB224:
 26385              	.LBB225:
 352:/home/junpei/workspace/arm/F4_Discovery_Template/Libraries/CMSIS/Include/core_cmInstr.h ****   __ASM volatile ("rev %0, %1" : "=r" (result) : "r" (value) );
 26386              		.loc 7 352 0
 26387 0c70 D7F8B030 		ldr	r3, [r7, #176]
 26388              	@ 352 "/home/junpei/workspace/arm/F4_Discovery_Template/Libraries/CMSIS/Include/core_cmInstr.h" 1
 26389 0c74 1CBA     		rev r4, r3
 26390              	@ 0 "" 2
 26391              		.thumb
 26392 0c76 C7F8AC40 		str	r4, [r7, #172]
 26393              		.loc 7 353 0
 26394 0c7a D7F8AC30 		ldr	r3, [r7, #172]
 26395              	.LBE225:
 26396              	.LBE224:
 26397              		.loc 1 524 0
 26398 0c7e 3B64     		str	r3, [r7, #64]
 525:../Libraries/STM32F4xx_StdPeriph_Driver/src/stm32f4xx_cryp_aes.c ****     break;
 26399              		.loc 1 525 0
 26400 0c80 8DE0     		b	.L44
 26401              	.L43:
 526:../Libraries/STM32F4xx_StdPeriph_Driver/src/stm32f4xx_cryp_aes.c ****     case 256:
 527:../Libraries/STM32F4xx_StdPeriph_Driver/src/stm32f4xx_cryp_aes.c ****     AES_CRYP_InitStructure.CRYP_KeySize  = CRYP_KeySize_256b;
 26402              		.loc 1 527 0
 26403 0c82 4FF40073 		mov	r3, #512
 26404 0c86 A7F84A30 		strh	r3, [r7, #74]	@ movhi
 528:../Libraries/STM32F4xx_StdPeriph_Driver/src/stm32f4xx_cryp_aes.c ****     AES_CRYP_KeyInitStructure.CRYP_Key0Left = __REV(*(uint32_t*)(keyaddr));
 26405              		.loc 1 528 0
 26406 0c8a D7F80031 		ldr	r3, [r7, #256]
 26407 0c8e 1B68     		ldr	r3, [r3, #0]
 26408 0c90 C7F8A830 		str	r3, [r7, #168]
 26409              	.LBB226:
 26410              	.LBB227:
 352:/home/junpei/workspace/arm/F4_Discovery_Template/Libraries/CMSIS/Include/core_cmInstr.h ****   __ASM volatile ("rev %0, %1" : "=r" (result) : "r" (value) );
 26411              		.loc 7 352 0
 26412 0c94 D7F8A830 		ldr	r3, [r7, #168]
 26413              	@ 352 "/home/junpei/workspace/arm/F4_Discovery_Template/Libraries/CMSIS/Include/core_cmInstr.h" 1
 26414 0c98 1CBA     		rev r4, r3
 26415              	@ 0 "" 2
 26416              		.thumb
 26417 0c9a C7F8A440 		str	r4, [r7, #164]
 26418              		.loc 7 353 0
 26419 0c9e D7F8A430 		ldr	r3, [r7, #164]
 26420              	.LBE227:
 26421              	.LBE226:
 26422              		.loc 1 528 0
 26423 0ca2 7B62     		str	r3, [r7, #36]
 529:../Libraries/STM32F4xx_StdPeriph_Driver/src/stm32f4xx_cryp_aes.c ****     keyaddr+=4;
 26424              		.loc 1 529 0
 26425 0ca4 D7F80031 		ldr	r3, [r7, #256]
 26426 0ca8 03F10403 		add	r3, r3, #4
 26427 0cac C7F80031 		str	r3, [r7, #256]
 530:../Libraries/STM32F4xx_StdPeriph_Driver/src/stm32f4xx_cryp_aes.c ****     AES_CRYP_KeyInitStructure.CRYP_Key0Right= __REV(*(uint32_t*)(keyaddr));
 26428              		.loc 1 530 0
 26429 0cb0 D7F80031 		ldr	r3, [r7, #256]
 26430 0cb4 1B68     		ldr	r3, [r3, #0]
 26431 0cb6 C7F8A030 		str	r3, [r7, #160]
 26432              	.LBB228:
 26433              	.LBB229:
 352:/home/junpei/workspace/arm/F4_Discovery_Template/Libraries/CMSIS/Include/core_cmInstr.h ****   __ASM volatile ("rev %0, %1" : "=r" (result) : "r" (value) );
 26434              		.loc 7 352 0
 26435 0cba D7F8A030 		ldr	r3, [r7, #160]
 26436              	@ 352 "/home/junpei/workspace/arm/F4_Discovery_Template/Libraries/CMSIS/Include/core_cmInstr.h" 1
 26437 0cbe 1CBA     		rev r4, r3
 26438              	@ 0 "" 2
 26439              		.thumb
 26440 0cc0 C7F89C40 		str	r4, [r7, #156]
 26441              		.loc 7 353 0
 26442 0cc4 D7F89C30 		ldr	r3, [r7, #156]
 26443              	.LBE229:
 26444              	.LBE228:
 26445              		.loc 1 530 0
 26446 0cc8 BB62     		str	r3, [r7, #40]
 531:../Libraries/STM32F4xx_StdPeriph_Driver/src/stm32f4xx_cryp_aes.c ****     keyaddr+=4;
 26447              		.loc 1 531 0
 26448 0cca D7F80031 		ldr	r3, [r7, #256]
 26449 0cce 03F10403 		add	r3, r3, #4
 26450 0cd2 C7F80031 		str	r3, [r7, #256]
 532:../Libraries/STM32F4xx_StdPeriph_Driver/src/stm32f4xx_cryp_aes.c ****     AES_CRYP_KeyInitStructure.CRYP_Key1Left = __REV(*(uint32_t*)(keyaddr));
 26451              		.loc 1 532 0
 26452 0cd6 D7F80031 		ldr	r3, [r7, #256]
 26453 0cda 1B68     		ldr	r3, [r3, #0]
 26454 0cdc C7F89830 		str	r3, [r7, #152]
 26455              	.LBB230:
 26456              	.LBB231:
 352:/home/junpei/workspace/arm/F4_Discovery_Template/Libraries/CMSIS/Include/core_cmInstr.h ****   __ASM volatile ("rev %0, %1" : "=r" (result) : "r" (value) );
 26457              		.loc 7 352 0
 26458 0ce0 D7F89830 		ldr	r3, [r7, #152]
 26459              	@ 352 "/home/junpei/workspace/arm/F4_Discovery_Template/Libraries/CMSIS/Include/core_cmInstr.h" 1
 26460 0ce4 1CBA     		rev r4, r3
 26461              	@ 0 "" 2
 26462              		.thumb
 26463 0ce6 C7F89440 		str	r4, [r7, #148]
 26464              		.loc 7 353 0
 26465 0cea D7F89430 		ldr	r3, [r7, #148]
 26466              	.LBE231:
 26467              	.LBE230:
 26468              		.loc 1 532 0
 26469 0cee FB62     		str	r3, [r7, #44]
 533:../Libraries/STM32F4xx_StdPeriph_Driver/src/stm32f4xx_cryp_aes.c ****     keyaddr+=4;
 26470              		.loc 1 533 0
 26471 0cf0 D7F80031 		ldr	r3, [r7, #256]
 26472 0cf4 03F10403 		add	r3, r3, #4
 26473 0cf8 C7F80031 		str	r3, [r7, #256]
 534:../Libraries/STM32F4xx_StdPeriph_Driver/src/stm32f4xx_cryp_aes.c ****     AES_CRYP_KeyInitStructure.CRYP_Key1Right= __REV(*(uint32_t*)(keyaddr));
 26474              		.loc 1 534 0
 26475 0cfc D7F80031 		ldr	r3, [r7, #256]
 26476 0d00 1B68     		ldr	r3, [r3, #0]
 26477 0d02 C7F89030 		str	r3, [r7, #144]
 26478              	.LBB232:
 26479              	.LBB233:
 352:/home/junpei/workspace/arm/F4_Discovery_Template/Libraries/CMSIS/Include/core_cmInstr.h ****   __ASM volatile ("rev %0, %1" : "=r" (result) : "r" (value) );
 26480              		.loc 7 352 0
 26481 0d06 D7F89030 		ldr	r3, [r7, #144]
 26482              	@ 352 "/home/junpei/workspace/arm/F4_Discovery_Template/Libraries/CMSIS/Include/core_cmInstr.h" 1
 26483 0d0a 1CBA     		rev r4, r3
 26484              	@ 0 "" 2
 26485              		.thumb
 26486 0d0c C7F88C40 		str	r4, [r7, #140]
 26487              		.loc 7 353 0
 26488 0d10 D7F88C30 		ldr	r3, [r7, #140]
 26489              	.LBE233:
 26490              	.LBE232:
 26491              		.loc 1 534 0
 26492 0d14 3B63     		str	r3, [r7, #48]
 535:../Libraries/STM32F4xx_StdPeriph_Driver/src/stm32f4xx_cryp_aes.c ****     keyaddr+=4;
 26493              		.loc 1 535 0
 26494 0d16 D7F80031 		ldr	r3, [r7, #256]
 26495 0d1a 03F10403 		add	r3, r3, #4
 26496 0d1e C7F80031 		str	r3, [r7, #256]
 536:../Libraries/STM32F4xx_StdPeriph_Driver/src/stm32f4xx_cryp_aes.c ****     AES_CRYP_KeyInitStructure.CRYP_Key2Left = __REV(*(uint32_t*)(keyaddr));
 26497              		.loc 1 536 0
 26498 0d22 D7F80031 		ldr	r3, [r7, #256]
 26499 0d26 1B68     		ldr	r3, [r3, #0]
 26500 0d28 C7F88830 		str	r3, [r7, #136]
 26501              	.LBB234:
 26502              	.LBB235:
 352:/home/junpei/workspace/arm/F4_Discovery_Template/Libraries/CMSIS/Include/core_cmInstr.h ****   __ASM volatile ("rev %0, %1" : "=r" (result) : "r" (value) );
 26503              		.loc 7 352 0
 26504 0d2c D7F88830 		ldr	r3, [r7, #136]
 26505              	@ 352 "/home/junpei/workspace/arm/F4_Discovery_Template/Libraries/CMSIS/Include/core_cmInstr.h" 1
 26506 0d30 1CBA     		rev r4, r3
 26507              	@ 0 "" 2
 26508              		.thumb
 26509 0d32 C7F88440 		str	r4, [r7, #132]
 26510              		.loc 7 353 0
 26511 0d36 D7F88430 		ldr	r3, [r7, #132]
 26512              	.LBE235:
 26513              	.LBE234:
 26514              		.loc 1 536 0
 26515 0d3a 7B63     		str	r3, [r7, #52]
 537:../Libraries/STM32F4xx_StdPeriph_Driver/src/stm32f4xx_cryp_aes.c ****     keyaddr+=4;
 26516              		.loc 1 537 0
 26517 0d3c D7F80031 		ldr	r3, [r7, #256]
 26518 0d40 03F10403 		add	r3, r3, #4
 26519 0d44 C7F80031 		str	r3, [r7, #256]
 538:../Libraries/STM32F4xx_StdPeriph_Driver/src/stm32f4xx_cryp_aes.c ****     AES_CRYP_KeyInitStructure.CRYP_Key2Right= __REV(*(uint32_t*)(keyaddr));
 26520              		.loc 1 538 0
 26521 0d48 D7F80031 		ldr	r3, [r7, #256]
 26522 0d4c 1B68     		ldr	r3, [r3, #0]
 26523 0d4e C7F88030 		str	r3, [r7, #128]
 26524              	.LBB236:
 26525              	.LBB237:
 352:/home/junpei/workspace/arm/F4_Discovery_Template/Libraries/CMSIS/Include/core_cmInstr.h ****   __ASM volatile ("rev %0, %1" : "=r" (result) : "r" (value) );
 26526              		.loc 7 352 0
 26527 0d52 D7F88030 		ldr	r3, [r7, #128]
 26528              	@ 352 "/home/junpei/workspace/arm/F4_Discovery_Template/Libraries/CMSIS/Include/core_cmInstr.h" 1
 26529 0d56 1CBA     		rev r4, r3
 26530              	@ 0 "" 2
 26531              		.thumb
 26532 0d58 FC67     		str	r4, [r7, #124]
 26533              		.loc 7 353 0
 26534 0d5a FB6F     		ldr	r3, [r7, #124]
 26535              	.LBE237:
 26536              	.LBE236:
 26537              		.loc 1 538 0
 26538 0d5c BB63     		str	r3, [r7, #56]
 539:../Libraries/STM32F4xx_StdPeriph_Driver/src/stm32f4xx_cryp_aes.c ****     keyaddr+=4;
 26539              		.loc 1 539 0
 26540 0d5e D7F80031 		ldr	r3, [r7, #256]
 26541 0d62 03F10403 		add	r3, r3, #4
 26542 0d66 C7F80031 		str	r3, [r7, #256]
 540:../Libraries/STM32F4xx_StdPeriph_Driver/src/stm32f4xx_cryp_aes.c ****     AES_CRYP_KeyInitStructure.CRYP_Key3Left = __REV(*(uint32_t*)(keyaddr));
 26543              		.loc 1 540 0
 26544 0d6a D7F80031 		ldr	r3, [r7, #256]
 26545 0d6e 1B68     		ldr	r3, [r3, #0]
 26546 0d70 BB67     		str	r3, [r7, #120]
 26547              	.LBB238:
 26548              	.LBB239:
 352:/home/junpei/workspace/arm/F4_Discovery_Template/Libraries/CMSIS/Include/core_cmInstr.h ****   __ASM volatile ("rev %0, %1" : "=r" (result) : "r" (value) );
 26549              		.loc 7 352 0
 26550 0d72 BB6F     		ldr	r3, [r7, #120]
 26551              	@ 352 "/home/junpei/workspace/arm/F4_Discovery_Template/Libraries/CMSIS/Include/core_cmInstr.h" 1
 26552 0d74 1CBA     		rev r4, r3
 26553              	@ 0 "" 2
 26554              		.thumb
 26555 0d76 7C67     		str	r4, [r7, #116]
 26556              		.loc 7 353 0
 26557 0d78 7B6F     		ldr	r3, [r7, #116]
 26558              	.LBE239:
 26559              	.LBE238:
 26560              		.loc 1 540 0
 26561 0d7a FB63     		str	r3, [r7, #60]
 541:../Libraries/STM32F4xx_StdPeriph_Driver/src/stm32f4xx_cryp_aes.c ****     keyaddr+=4;
 26562              		.loc 1 541 0
 26563 0d7c D7F80031 		ldr	r3, [r7, #256]
 26564 0d80 03F10403 		add	r3, r3, #4
 26565 0d84 C7F80031 		str	r3, [r7, #256]
 542:../Libraries/STM32F4xx_StdPeriph_Driver/src/stm32f4xx_cryp_aes.c ****     AES_CRYP_KeyInitStructure.CRYP_Key3Right= __REV(*(uint32_t*)(keyaddr));
 26566              		.loc 1 542 0
 26567 0d88 D7F80031 		ldr	r3, [r7, #256]
 26568 0d8c 1B68     		ldr	r3, [r3, #0]
 26569 0d8e 3B67     		str	r3, [r7, #112]
 26570              	.LBB240:
 26571              	.LBB241:
 352:/home/junpei/workspace/arm/F4_Discovery_Template/Libraries/CMSIS/Include/core_cmInstr.h ****   __ASM volatile ("rev %0, %1" : "=r" (result) : "r" (value) );
 26572              		.loc 7 352 0
 26573 0d90 3B6F     		ldr	r3, [r7, #112]
 26574              	@ 352 "/home/junpei/workspace/arm/F4_Discovery_Template/Libraries/CMSIS/Include/core_cmInstr.h" 1
 26575 0d92 1CBA     		rev r4, r3
 26576              	@ 0 "" 2
 26577              		.thumb
 26578 0d94 FC66     		str	r4, [r7, #108]
 26579              		.loc 7 353 0
 26580 0d96 FB6E     		ldr	r3, [r7, #108]
 26581              	.LBE241:
 26582              	.LBE240:
 26583              		.loc 1 542 0
 26584 0d98 3B64     		str	r3, [r7, #64]
 543:../Libraries/STM32F4xx_StdPeriph_Driver/src/stm32f4xx_cryp_aes.c ****     break;
 26585              		.loc 1 543 0
 26586 0d9a 00E0     		b	.L44
 26587              	.L54:
 544:../Libraries/STM32F4xx_StdPeriph_Driver/src/stm32f4xx_cryp_aes.c ****     default:
 545:../Libraries/STM32F4xx_StdPeriph_Driver/src/stm32f4xx_cryp_aes.c ****     break;
 26588              		.loc 1 545 0
 26589 0d9c 00BF     		nop
 26590              	.L44:
 546:../Libraries/STM32F4xx_StdPeriph_Driver/src/stm32f4xx_cryp_aes.c ****   }
 547:../Libraries/STM32F4xx_StdPeriph_Driver/src/stm32f4xx_cryp_aes.c ****   /* CRYP Initialization Vectors */
 548:../Libraries/STM32F4xx_StdPeriph_Driver/src/stm32f4xx_cryp_aes.c ****   AES_CRYP_IVInitStructure.CRYP_IV0Left = __REV(*(uint32_t*)(ivaddr));
 26591              		.loc 1 548 0
 26592 0d9e D7F8FC30 		ldr	r3, [r7, #252]
 26593 0da2 1B68     		ldr	r3, [r3, #0]
 26594 0da4 BB66     		str	r3, [r7, #104]
 26595              	.LBB242:
 26596              	.LBB243:
 352:/home/junpei/workspace/arm/F4_Discovery_Template/Libraries/CMSIS/Include/core_cmInstr.h ****   __ASM volatile ("rev %0, %1" : "=r" (result) : "r" (value) );
 26597              		.loc 7 352 0
 26598 0da6 BB6E     		ldr	r3, [r7, #104]
 26599              	@ 352 "/home/junpei/workspace/arm/F4_Discovery_Template/Libraries/CMSIS/Include/core_cmInstr.h" 1
 26600 0da8 1CBA     		rev r4, r3
 26601              	@ 0 "" 2
 26602              		.thumb
 26603 0daa 7C66     		str	r4, [r7, #100]
 26604              		.loc 7 353 0
 26605 0dac 7B6E     		ldr	r3, [r7, #100]
 26606              		.loc 1 548 0
 26607 0dae 1A46     		mov	r2, r3
 26608              	.LBE243:
 26609              	.LBE242:
 26610 0db0 07F11403 		add	r3, r7, #20
 26611 0db4 1A60     		str	r2, [r3, #0]
 549:../Libraries/STM32F4xx_StdPeriph_Driver/src/stm32f4xx_cryp_aes.c ****   ivaddr+=4;
 26612              		.loc 1 549 0
 26613 0db6 D7F8FC30 		ldr	r3, [r7, #252]
 26614 0dba 03F10403 		add	r3, r3, #4
 26615 0dbe C7F8FC30 		str	r3, [r7, #252]
 550:../Libraries/STM32F4xx_StdPeriph_Driver/src/stm32f4xx_cryp_aes.c ****   AES_CRYP_IVInitStructure.CRYP_IV0Right= __REV(*(uint32_t*)(ivaddr));
 26616              		.loc 1 550 0
 26617 0dc2 D7F8FC30 		ldr	r3, [r7, #252]
 26618 0dc6 1B68     		ldr	r3, [r3, #0]
 26619 0dc8 3B66     		str	r3, [r7, #96]
 26620              	.LBB244:
 26621              	.LBB245:
 352:/home/junpei/workspace/arm/F4_Discovery_Template/Libraries/CMSIS/Include/core_cmInstr.h ****   __ASM volatile ("rev %0, %1" : "=r" (result) : "r" (value) );
 26622              		.loc 7 352 0
 26623 0dca 3B6E     		ldr	r3, [r7, #96]
 26624              	@ 352 "/home/junpei/workspace/arm/F4_Discovery_Template/Libraries/CMSIS/Include/core_cmInstr.h" 1
 26625 0dcc 1CBA     		rev r4, r3
 26626              	@ 0 "" 2
 26627              		.thumb
 26628 0dce FC65     		str	r4, [r7, #92]
 26629              		.loc 7 353 0
 26630 0dd0 FB6D     		ldr	r3, [r7, #92]
 26631              		.loc 1 550 0
 26632 0dd2 1A46     		mov	r2, r3
 26633              	.LBE245:
 26634              	.LBE244:
 26635 0dd4 07F11403 		add	r3, r7, #20
 26636 0dd8 5A60     		str	r2, [r3, #4]
 551:../Libraries/STM32F4xx_StdPeriph_Driver/src/stm32f4xx_cryp_aes.c ****   ivaddr+=4;
 26637              		.loc 1 551 0
 26638 0dda D7F8FC30 		ldr	r3, [r7, #252]
 26639 0dde 03F10403 		add	r3, r3, #4
 26640 0de2 C7F8FC30 		str	r3, [r7, #252]
 552:../Libraries/STM32F4xx_StdPeriph_Driver/src/stm32f4xx_cryp_aes.c ****   AES_CRYP_IVInitStructure.CRYP_IV1Left = __REV(*(uint32_t*)(ivaddr));
 26641              		.loc 1 552 0
 26642 0de6 D7F8FC30 		ldr	r3, [r7, #252]
 26643 0dea 1B68     		ldr	r3, [r3, #0]
 26644 0dec BB65     		str	r3, [r7, #88]
 26645              	.LBB246:
 26646              	.LBB247:
 352:/home/junpei/workspace/arm/F4_Discovery_Template/Libraries/CMSIS/Include/core_cmInstr.h ****   __ASM volatile ("rev %0, %1" : "=r" (result) : "r" (value) );
 26647              		.loc 7 352 0
 26648 0dee BB6D     		ldr	r3, [r7, #88]
 26649              	@ 352 "/home/junpei/workspace/arm/F4_Discovery_Template/Libraries/CMSIS/Include/core_cmInstr.h" 1
 26650 0df0 1CBA     		rev r4, r3
 26651              	@ 0 "" 2
 26652              		.thumb
 26653 0df2 7C65     		str	r4, [r7, #84]
 26654              		.loc 7 353 0
 26655 0df4 7B6D     		ldr	r3, [r7, #84]
 26656              		.loc 1 552 0
 26657 0df6 1A46     		mov	r2, r3
 26658              	.LBE247:
 26659              	.LBE246:
 26660 0df8 07F11403 		add	r3, r7, #20
 26661 0dfc 9A60     		str	r2, [r3, #8]
 553:../Libraries/STM32F4xx_StdPeriph_Driver/src/stm32f4xx_cryp_aes.c ****   ivaddr+=4;
 26662              		.loc 1 553 0
 26663 0dfe D7F8FC30 		ldr	r3, [r7, #252]
 26664 0e02 03F10403 		add	r3, r3, #4
 26665 0e06 C7F8FC30 		str	r3, [r7, #252]
 554:../Libraries/STM32F4xx_StdPeriph_Driver/src/stm32f4xx_cryp_aes.c ****   AES_CRYP_IVInitStructure.CRYP_IV1Right= __REV(*(uint32_t*)(ivaddr));
 26666              		.loc 1 554 0
 26667 0e0a D7F8FC30 		ldr	r3, [r7, #252]
 26668 0e0e 1B68     		ldr	r3, [r3, #0]
 26669 0e10 3B65     		str	r3, [r7, #80]
 26670              	.LBB248:
 26671              	.LBB249:
 352:/home/junpei/workspace/arm/F4_Discovery_Template/Libraries/CMSIS/Include/core_cmInstr.h ****   __ASM volatile ("rev %0, %1" : "=r" (result) : "r" (value) );
 26672              		.loc 7 352 0
 26673 0e12 3B6D     		ldr	r3, [r7, #80]
 26674              	@ 352 "/home/junpei/workspace/arm/F4_Discovery_Template/Libraries/CMSIS/Include/core_cmInstr.h" 1
 26675 0e14 1CBA     		rev r4, r3
 26676              	@ 0 "" 2
 26677              		.thumb
 26678 0e16 FC64     		str	r4, [r7, #76]
 26679              		.loc 7 353 0
 26680 0e18 FB6C     		ldr	r3, [r7, #76]
 26681              		.loc 1 554 0
 26682 0e1a 1A46     		mov	r2, r3
 26683              	.LBE249:
 26684              	.LBE248:
 26685 0e1c 07F11403 		add	r3, r7, #20
 26686 0e20 DA60     		str	r2, [r3, #12]
 555:../Libraries/STM32F4xx_StdPeriph_Driver/src/stm32f4xx_cryp_aes.c **** 
 556:../Libraries/STM32F4xx_StdPeriph_Driver/src/stm32f4xx_cryp_aes.c ****   /* Key Initialisation */
 557:../Libraries/STM32F4xx_StdPeriph_Driver/src/stm32f4xx_cryp_aes.c ****   CRYP_KeyInit(&AES_CRYP_KeyInitStructure);
 26687              		.loc 1 557 0
 26688 0e22 07F12403 		add	r3, r7, #36
 26689 0e26 1846     		mov	r0, r3
 26690 0e28 FFF7FEFF 		bl	CRYP_KeyInit
 558:../Libraries/STM32F4xx_StdPeriph_Driver/src/stm32f4xx_cryp_aes.c **** 
 559:../Libraries/STM32F4xx_StdPeriph_Driver/src/stm32f4xx_cryp_aes.c ****   /*------------------ AES Decryption ------------------*/
 560:../Libraries/STM32F4xx_StdPeriph_Driver/src/stm32f4xx_cryp_aes.c ****   if(Mode == MODE_DECRYPT) /* AES decryption */
 26691              		.loc 1 560 0
 26692 0e2c 07F11003 		add	r3, r7, #16
 26693 0e30 03F1FF33 		add	r3, r3, #-1
 26694 0e34 1B78     		ldrb	r3, [r3, #0]	@ zero_extendqisi2
 26695 0e36 002B     		cmp	r3, #0
 26696 0e38 04D1     		bne	.L45
 561:../Libraries/STM32F4xx_StdPeriph_Driver/src/stm32f4xx_cryp_aes.c ****   {
 562:../Libraries/STM32F4xx_StdPeriph_Driver/src/stm32f4xx_cryp_aes.c ****     /* Crypto Init for decryption process */
 563:../Libraries/STM32F4xx_StdPeriph_Driver/src/stm32f4xx_cryp_aes.c ****     AES_CRYP_InitStructure.CRYP_AlgoDir = CRYP_AlgoDir_Decrypt;
 26697              		.loc 1 563 0
 26698 0e3a 4FF00403 		mov	r3, #4
 26699 0e3e A7F84430 		strh	r3, [r7, #68]	@ movhi
 26700 0e42 03E0     		b	.L46
 26701              	.L45:
 564:../Libraries/STM32F4xx_StdPeriph_Driver/src/stm32f4xx_cryp_aes.c ****   }
 565:../Libraries/STM32F4xx_StdPeriph_Driver/src/stm32f4xx_cryp_aes.c ****   /*------------------ AES Encryption ------------------*/
 566:../Libraries/STM32F4xx_StdPeriph_Driver/src/stm32f4xx_cryp_aes.c ****   else /* AES encryption */
 567:../Libraries/STM32F4xx_StdPeriph_Driver/src/stm32f4xx_cryp_aes.c ****   {
 568:../Libraries/STM32F4xx_StdPeriph_Driver/src/stm32f4xx_cryp_aes.c ****     /* Crypto Init for Encryption process */
 569:../Libraries/STM32F4xx_StdPeriph_Driver/src/stm32f4xx_cryp_aes.c ****     AES_CRYP_InitStructure.CRYP_AlgoDir = CRYP_AlgoDir_Encrypt;
 26702              		.loc 1 569 0
 26703 0e44 4FF00003 		mov	r3, #0
 26704 0e48 A7F84430 		strh	r3, [r7, #68]	@ movhi
 26705              	.L46:
 570:../Libraries/STM32F4xx_StdPeriph_Driver/src/stm32f4xx_cryp_aes.c ****   }
 571:../Libraries/STM32F4xx_StdPeriph_Driver/src/stm32f4xx_cryp_aes.c ****   AES_CRYP_InitStructure.CRYP_AlgoMode = CRYP_AlgoMode_AES_CTR;
 26706              		.loc 1 571 0
 26707 0e4c 4FF03003 		mov	r3, #48
 26708 0e50 A7F84630 		strh	r3, [r7, #70]	@ movhi
 572:../Libraries/STM32F4xx_StdPeriph_Driver/src/stm32f4xx_cryp_aes.c ****   AES_CRYP_InitStructure.CRYP_DataType = CRYP_DataType_8b;
 26709              		.loc 1 572 0
 26710 0e54 4FF08003 		mov	r3, #128
 26711 0e58 A7F84830 		strh	r3, [r7, #72]	@ movhi
 573:../Libraries/STM32F4xx_StdPeriph_Driver/src/stm32f4xx_cryp_aes.c ****   CRYP_Init(&AES_CRYP_InitStructure);
 26712              		.loc 1 573 0
 26713 0e5c 07F14403 		add	r3, r7, #68
 26714 0e60 1846     		mov	r0, r3
 26715 0e62 FFF7FEFF 		bl	CRYP_Init
 574:../Libraries/STM32F4xx_StdPeriph_Driver/src/stm32f4xx_cryp_aes.c **** 
 575:../Libraries/STM32F4xx_StdPeriph_Driver/src/stm32f4xx_cryp_aes.c ****   /* CRYP Initialization Vectors */
 576:../Libraries/STM32F4xx_StdPeriph_Driver/src/stm32f4xx_cryp_aes.c ****   CRYP_IVInit(&AES_CRYP_IVInitStructure);
 26716              		.loc 1 576 0
 26717 0e66 07F11403 		add	r3, r7, #20
 26718 0e6a 1846     		mov	r0, r3
 26719 0e6c FFF7FEFF 		bl	CRYP_IVInit
 577:../Libraries/STM32F4xx_StdPeriph_Driver/src/stm32f4xx_cryp_aes.c **** 
 578:../Libraries/STM32F4xx_StdPeriph_Driver/src/stm32f4xx_cryp_aes.c ****   /* Flush IN/OUT FIFOs */
 579:../Libraries/STM32F4xx_StdPeriph_Driver/src/stm32f4xx_cryp_aes.c ****   CRYP_FIFOFlush();
 26720              		.loc 1 579 0
 26721 0e70 FFF7FEFF 		bl	CRYP_FIFOFlush
 580:../Libraries/STM32F4xx_StdPeriph_Driver/src/stm32f4xx_cryp_aes.c **** 
 581:../Libraries/STM32F4xx_StdPeriph_Driver/src/stm32f4xx_cryp_aes.c ****   /* Enable Crypto processor */
 582:../Libraries/STM32F4xx_StdPeriph_Driver/src/stm32f4xx_cryp_aes.c ****   CRYP_Cmd(ENABLE);
 26722              		.loc 1 582 0
 26723 0e74 4FF00100 		mov	r0, #1
 26724 0e78 FFF7FEFF 		bl	CRYP_Cmd
 583:../Libraries/STM32F4xx_StdPeriph_Driver/src/stm32f4xx_cryp_aes.c **** 
 584:../Libraries/STM32F4xx_StdPeriph_Driver/src/stm32f4xx_cryp_aes.c ****   for(i=0; ((i<Ilength) && (status != ERROR)); i+=16)
 26725              		.loc 1 584 0
 26726 0e7c 4FF00003 		mov	r3, #0
 26727 0e80 C7F80831 		str	r3, [r7, #264]
 26728 0e84 8CE0     		b	.L47
 26729              	.L53:
 585:../Libraries/STM32F4xx_StdPeriph_Driver/src/stm32f4xx_cryp_aes.c ****   {
 586:../Libraries/STM32F4xx_StdPeriph_Driver/src/stm32f4xx_cryp_aes.c **** 
 587:../Libraries/STM32F4xx_StdPeriph_Driver/src/stm32f4xx_cryp_aes.c ****     /* Write the Input block in the IN FIFO */
 588:../Libraries/STM32F4xx_StdPeriph_Driver/src/stm32f4xx_cryp_aes.c ****     CRYP_DataIn(*(uint32_t*)(inputaddr));
 26730              		.loc 1 588 0
 26731 0e86 D7F81031 		ldr	r3, [r7, #272]
 26732 0e8a 1B68     		ldr	r3, [r3, #0]
 26733 0e8c 1846     		mov	r0, r3
 26734 0e8e FFF7FEFF 		bl	CRYP_DataIn
 589:../Libraries/STM32F4xx_StdPeriph_Driver/src/stm32f4xx_cryp_aes.c ****     inputaddr+=4;
 26735              		.loc 1 589 0
 26736 0e92 D7F81031 		ldr	r3, [r7, #272]
 26737 0e96 03F10403 		add	r3, r3, #4
 26738 0e9a C7F81031 		str	r3, [r7, #272]
 590:../Libraries/STM32F4xx_StdPeriph_Driver/src/stm32f4xx_cryp_aes.c ****     CRYP_DataIn(*(uint32_t*)(inputaddr));
 26739              		.loc 1 590 0
 26740 0e9e D7F81031 		ldr	r3, [r7, #272]
 26741 0ea2 1B68     		ldr	r3, [r3, #0]
 26742 0ea4 1846     		mov	r0, r3
 26743 0ea6 FFF7FEFF 		bl	CRYP_DataIn
 591:../Libraries/STM32F4xx_StdPeriph_Driver/src/stm32f4xx_cryp_aes.c ****     inputaddr+=4;
 26744              		.loc 1 591 0
 26745 0eaa D7F81031 		ldr	r3, [r7, #272]
 26746 0eae 03F10403 		add	r3, r3, #4
 26747 0eb2 C7F81031 		str	r3, [r7, #272]
 592:../Libraries/STM32F4xx_StdPeriph_Driver/src/stm32f4xx_cryp_aes.c ****     CRYP_DataIn(*(uint32_t*)(inputaddr));
 26748              		.loc 1 592 0
 26749 0eb6 D7F81031 		ldr	r3, [r7, #272]
 26750 0eba 1B68     		ldr	r3, [r3, #0]
 26751 0ebc 1846     		mov	r0, r3
 26752 0ebe FFF7FEFF 		bl	CRYP_DataIn
 593:../Libraries/STM32F4xx_StdPeriph_Driver/src/stm32f4xx_cryp_aes.c ****     inputaddr+=4;
 26753              		.loc 1 593 0
 26754 0ec2 D7F81031 		ldr	r3, [r7, #272]
 26755 0ec6 03F10403 		add	r3, r3, #4
 26756 0eca C7F81031 		str	r3, [r7, #272]
 594:../Libraries/STM32F4xx_StdPeriph_Driver/src/stm32f4xx_cryp_aes.c ****     CRYP_DataIn(*(uint32_t*)(inputaddr));
 26757              		.loc 1 594 0
 26758 0ece D7F81031 		ldr	r3, [r7, #272]
 26759 0ed2 1B68     		ldr	r3, [r3, #0]
 26760 0ed4 1846     		mov	r0, r3
 26761 0ed6 FFF7FEFF 		bl	CRYP_DataIn
 595:../Libraries/STM32F4xx_StdPeriph_Driver/src/stm32f4xx_cryp_aes.c ****     inputaddr+=4;
 26762              		.loc 1 595 0
 26763 0eda D7F81031 		ldr	r3, [r7, #272]
 26764 0ede 03F10403 		add	r3, r3, #4
 26765 0ee2 C7F81031 		str	r3, [r7, #272]
 596:../Libraries/STM32F4xx_StdPeriph_Driver/src/stm32f4xx_cryp_aes.c ****     /* Wait until the complete message has been processed */
 597:../Libraries/STM32F4xx_StdPeriph_Driver/src/stm32f4xx_cryp_aes.c ****     counter = 0;
 26766              		.loc 1 597 0
 26767 0ee6 07F11003 		add	r3, r7, #16
 26768 0eea 4FF00002 		mov	r2, #0
 26769 0eee 1A60     		str	r2, [r3, #0]
 26770              	.L49:
 598:../Libraries/STM32F4xx_StdPeriph_Driver/src/stm32f4xx_cryp_aes.c ****     do
 599:../Libraries/STM32F4xx_StdPeriph_Driver/src/stm32f4xx_cryp_aes.c ****     {
 600:../Libraries/STM32F4xx_StdPeriph_Driver/src/stm32f4xx_cryp_aes.c ****       busystatus = CRYP_GetFlagStatus(CRYP_FLAG_BUSY);
 26771              		.loc 1 600 0 discriminator 1
 26772 0ef0 4FF01000 		mov	r0, #16
 26773 0ef4 FFF7FEFF 		bl	CRYP_GetFlagStatus
 26774 0ef8 0346     		mov	r3, r0
 26775 0efa C7F80431 		str	r3, [r7, #260]
 601:../Libraries/STM32F4xx_StdPeriph_Driver/src/stm32f4xx_cryp_aes.c ****       counter++;
 26776              		.loc 1 601 0 discriminator 1
 26777 0efe 07F11003 		add	r3, r7, #16
 26778 0f02 1B68     		ldr	r3, [r3, #0]
 26779 0f04 03F10102 		add	r2, r3, #1
 26780 0f08 07F11003 		add	r3, r7, #16
 26781 0f0c 1A60     		str	r2, [r3, #0]
 602:../Libraries/STM32F4xx_StdPeriph_Driver/src/stm32f4xx_cryp_aes.c ****     }while ((counter != AESBUSY_TIMEOUT) && (busystatus != RESET));
 26782              		.loc 1 602 0 discriminator 1
 26783 0f0e 07F11003 		add	r3, r7, #16
 26784 0f12 1B68     		ldr	r3, [r3, #0]
 26785 0f14 B3F5803F 		cmp	r3, #65536
 26786 0f18 03D0     		beq	.L48
 26787 0f1a D7F80431 		ldr	r3, [r7, #260]
 26788 0f1e 002B     		cmp	r3, #0
 26789 0f20 E6D1     		bne	.L49
 26790              	.L48:
 603:../Libraries/STM32F4xx_StdPeriph_Driver/src/stm32f4xx_cryp_aes.c **** 
 604:../Libraries/STM32F4xx_StdPeriph_Driver/src/stm32f4xx_cryp_aes.c ****     if (busystatus != RESET)
 26791              		.loc 1 604 0
 26792 0f22 D7F80431 		ldr	r3, [r7, #260]
 26793 0f26 002B     		cmp	r3, #0
 26794 0f28 04D0     		beq	.L50
 605:../Libraries/STM32F4xx_StdPeriph_Driver/src/stm32f4xx_cryp_aes.c ****    {
 606:../Libraries/STM32F4xx_StdPeriph_Driver/src/stm32f4xx_cryp_aes.c ****        status = ERROR;
 26795              		.loc 1 606 0
 26796 0f2a 4FF00003 		mov	r3, #0
 26797 0f2e 87F81731 		strb	r3, [r7, #279]
 26798 0f32 2FE0     		b	.L51
 26799              	.L50:
 607:../Libraries/STM32F4xx_StdPeriph_Driver/src/stm32f4xx_cryp_aes.c ****     }
 608:../Libraries/STM32F4xx_StdPeriph_Driver/src/stm32f4xx_cryp_aes.c ****     else
 609:../Libraries/STM32F4xx_StdPeriph_Driver/src/stm32f4xx_cryp_aes.c ****     {
 610:../Libraries/STM32F4xx_StdPeriph_Driver/src/stm32f4xx_cryp_aes.c **** 
 611:../Libraries/STM32F4xx_StdPeriph_Driver/src/stm32f4xx_cryp_aes.c ****       /* Read the Output block from the Output FIFO */
 612:../Libraries/STM32F4xx_StdPeriph_Driver/src/stm32f4xx_cryp_aes.c ****       *(uint32_t*)(outputaddr) = CRYP_DataOut();
 26800              		.loc 1 612 0
 26801 0f34 D7F80C41 		ldr	r4, [r7, #268]
 26802 0f38 FFF7FEFF 		bl	CRYP_DataOut
 26803 0f3c 0346     		mov	r3, r0
 26804 0f3e 2360     		str	r3, [r4, #0]
 613:../Libraries/STM32F4xx_StdPeriph_Driver/src/stm32f4xx_cryp_aes.c ****       outputaddr+=4;
 26805              		.loc 1 613 0
 26806 0f40 D7F80C31 		ldr	r3, [r7, #268]
 26807 0f44 03F10403 		add	r3, r3, #4
 26808 0f48 C7F80C31 		str	r3, [r7, #268]
 614:../Libraries/STM32F4xx_StdPeriph_Driver/src/stm32f4xx_cryp_aes.c ****       *(uint32_t*)(outputaddr) = CRYP_DataOut();
 26809              		.loc 1 614 0
 26810 0f4c D7F80C41 		ldr	r4, [r7, #268]
 26811 0f50 FFF7FEFF 		bl	CRYP_DataOut
 26812 0f54 0346     		mov	r3, r0
 26813 0f56 2360     		str	r3, [r4, #0]
 615:../Libraries/STM32F4xx_StdPeriph_Driver/src/stm32f4xx_cryp_aes.c ****       outputaddr+=4;
 26814              		.loc 1 615 0
 26815 0f58 D7F80C31 		ldr	r3, [r7, #268]
 26816 0f5c 03F10403 		add	r3, r3, #4
 26817 0f60 C7F80C31 		str	r3, [r7, #268]
 616:../Libraries/STM32F4xx_StdPeriph_Driver/src/stm32f4xx_cryp_aes.c ****       *(uint32_t*)(outputaddr) = CRYP_DataOut();
 26818              		.loc 1 616 0
 26819 0f64 D7F80C41 		ldr	r4, [r7, #268]
 26820 0f68 FFF7FEFF 		bl	CRYP_DataOut
 26821 0f6c 0346     		mov	r3, r0
 26822 0f6e 2360     		str	r3, [r4, #0]
 617:../Libraries/STM32F4xx_StdPeriph_Driver/src/stm32f4xx_cryp_aes.c ****       outputaddr+=4;
 26823              		.loc 1 617 0
 26824 0f70 D7F80C31 		ldr	r3, [r7, #268]
 26825 0f74 03F10403 		add	r3, r3, #4
 26826 0f78 C7F80C31 		str	r3, [r7, #268]
 618:../Libraries/STM32F4xx_StdPeriph_Driver/src/stm32f4xx_cryp_aes.c ****       *(uint32_t*)(outputaddr) = CRYP_DataOut();
 26827              		.loc 1 618 0
 26828 0f7c D7F80C41 		ldr	r4, [r7, #268]
 26829 0f80 FFF7FEFF 		bl	CRYP_DataOut
 26830 0f84 0346     		mov	r3, r0
 26831 0f86 2360     		str	r3, [r4, #0]
 619:../Libraries/STM32F4xx_StdPeriph_Driver/src/stm32f4xx_cryp_aes.c ****       outputaddr+=4;
 26832              		.loc 1 619 0
 26833 0f88 D7F80C31 		ldr	r3, [r7, #268]
 26834 0f8c 03F10403 		add	r3, r3, #4
 26835 0f90 C7F80C31 		str	r3, [r7, #268]
 26836              	.L51:
 584:../Libraries/STM32F4xx_StdPeriph_Driver/src/stm32f4xx_cryp_aes.c ****   for(i=0; ((i<Ilength) && (status != ERROR)); i+=16)
 26837              		.loc 1 584 0
 26838 0f94 D7F80831 		ldr	r3, [r7, #264]
 26839 0f98 03F11003 		add	r3, r3, #16
 26840 0f9c C7F80831 		str	r3, [r7, #264]
 26841              	.L47:
 584:../Libraries/STM32F4xx_StdPeriph_Driver/src/stm32f4xx_cryp_aes.c ****   for(i=0; ((i<Ilength) && (status != ERROR)); i+=16)
 26842              		.loc 1 584 0 is_stmt 0 discriminator 1
 26843 0fa0 D7F80821 		ldr	r2, [r7, #264]
 26844 0fa4 D7F82C31 		ldr	r3, [r7, #300]
 26845 0fa8 9A42     		cmp	r2, r3
 26846 0faa 04D2     		bcs	.L52
 584:../Libraries/STM32F4xx_StdPeriph_Driver/src/stm32f4xx_cryp_aes.c ****   for(i=0; ((i<Ilength) && (status != ERROR)); i+=16)
 26847              		.loc 1 584 0 discriminator 2
 26848 0fac 97F81731 		ldrb	r3, [r7, #279]	@ zero_extendqisi2
 26849 0fb0 002B     		cmp	r3, #0
 26850 0fb2 7FF468AF 		bne	.L53
 26851              	.L52:
 620:../Libraries/STM32F4xx_StdPeriph_Driver/src/stm32f4xx_cryp_aes.c ****     }
 621:../Libraries/STM32F4xx_StdPeriph_Driver/src/stm32f4xx_cryp_aes.c ****   }
 622:../Libraries/STM32F4xx_StdPeriph_Driver/src/stm32f4xx_cryp_aes.c ****   /* Disable Crypto */
 623:../Libraries/STM32F4xx_StdPeriph_Driver/src/stm32f4xx_cryp_aes.c ****   CRYP_Cmd(DISABLE);
 26852              		.loc 1 623 0 is_stmt 1
 26853 0fb6 4FF00000 		mov	r0, #0
 26854 0fba FFF7FEFF 		bl	CRYP_Cmd
 624:../Libraries/STM32F4xx_StdPeriph_Driver/src/stm32f4xx_cryp_aes.c **** 
 625:../Libraries/STM32F4xx_StdPeriph_Driver/src/stm32f4xx_cryp_aes.c ****   return status;
 26855              		.loc 1 625 0
 26856 0fbe 97F81731 		ldrb	r3, [r7, #279]	@ zero_extendqisi2
 626:../Libraries/STM32F4xx_StdPeriph_Driver/src/stm32f4xx_cryp_aes.c **** }
 26857              		.loc 1 626 0
 26858 0fc2 1846     		mov	r0, r3
 26859 0fc4 07F58E77 		add	r7, r7, #284
 26860 0fc8 BD46     		mov	sp, r7
 26861 0fca 90BD     		pop	{r4, r7, pc}
 26862              		.cfi_endproc
 26863              	.LFE112:
 26865              	.Letext0: