   1              		.syntax unified
   2              		.cpu cortex-m4
   3              		.fpu softvfp
   4              		.eabi_attribute 20, 1
   5              		.eabi_attribute 21, 1
   6              		.eabi_attribute 23, 3
   7              		.eabi_attribute 24, 1
   8              		.eabi_attribute 25, 1
   9              		.eabi_attribute 26, 1
  10              		.eabi_attribute 30, 6
  11              		.eabi_attribute 18, 4
  12              		.thumb
  13              		.file	"stm32f4xx_tim.c"
  23              	.Ltext0:
  24              		.file 1 "../Libraries/STM32F4xx_StdPeriph_Driver/src/stm32f4xx_tim.c"
 24581              		.align	2
 24582              		.global	TIM_DeInit
 24583              		.thumb
 24584              		.thumb_func
 24586              	TIM_DeInit:
 24587              	.LFB110:
   1:../Libraries/STM32F4xx_StdPeriph_Driver/src/stm32f4xx_tim.c **** /**
   2:../Libraries/STM32F4xx_StdPeriph_Driver/src/stm32f4xx_tim.c ****   ******************************************************************************
   3:../Libraries/STM32F4xx_StdPeriph_Driver/src/stm32f4xx_tim.c ****   * @file    stm32f4xx_tim.c
   4:../Libraries/STM32F4xx_StdPeriph_Driver/src/stm32f4xx_tim.c ****   * @author  MCD Application Team
   5:../Libraries/STM32F4xx_StdPeriph_Driver/src/stm32f4xx_tim.c ****   * @version V1.0.2
   6:../Libraries/STM32F4xx_StdPeriph_Driver/src/stm32f4xx_tim.c ****   * @date    05-March-2012
   7:../Libraries/STM32F4xx_StdPeriph_Driver/src/stm32f4xx_tim.c ****   * @brief   This file provides firmware functions to manage the following 
   8:../Libraries/STM32F4xx_StdPeriph_Driver/src/stm32f4xx_tim.c ****   *          functionalities of the TIM peripheral:
   9:../Libraries/STM32F4xx_StdPeriph_Driver/src/stm32f4xx_tim.c ****   *            - TimeBase management
  10:../Libraries/STM32F4xx_StdPeriph_Driver/src/stm32f4xx_tim.c ****   *            - Output Compare management
  11:../Libraries/STM32F4xx_StdPeriph_Driver/src/stm32f4xx_tim.c ****   *            - Input Capture management
  12:../Libraries/STM32F4xx_StdPeriph_Driver/src/stm32f4xx_tim.c ****   *            - Advanced-control timers (TIM1 and TIM8) specific features  
  13:../Libraries/STM32F4xx_StdPeriph_Driver/src/stm32f4xx_tim.c ****   *            - Interrupts, DMA and flags management
  14:../Libraries/STM32F4xx_StdPeriph_Driver/src/stm32f4xx_tim.c ****   *            - Clocks management
  15:../Libraries/STM32F4xx_StdPeriph_Driver/src/stm32f4xx_tim.c ****   *            - Synchronization management
  16:../Libraries/STM32F4xx_StdPeriph_Driver/src/stm32f4xx_tim.c ****   *            - Specific interface management
  17:../Libraries/STM32F4xx_StdPeriph_Driver/src/stm32f4xx_tim.c ****   *            - Specific remapping management      
  18:../Libraries/STM32F4xx_StdPeriph_Driver/src/stm32f4xx_tim.c ****   *              
  19:../Libraries/STM32F4xx_StdPeriph_Driver/src/stm32f4xx_tim.c ****   *  @verbatim
  20:../Libraries/STM32F4xx_StdPeriph_Driver/src/stm32f4xx_tim.c ****   *  
  21:../Libraries/STM32F4xx_StdPeriph_Driver/src/stm32f4xx_tim.c ****   *          ===================================================================
  22:../Libraries/STM32F4xx_StdPeriph_Driver/src/stm32f4xx_tim.c ****   *                                 How to use this driver
  23:../Libraries/STM32F4xx_StdPeriph_Driver/src/stm32f4xx_tim.c ****   *          ===================================================================
  24:../Libraries/STM32F4xx_StdPeriph_Driver/src/stm32f4xx_tim.c ****   *          This driver provides functions to configure and program the TIM 
  25:../Libraries/STM32F4xx_StdPeriph_Driver/src/stm32f4xx_tim.c ****   *          of all STM32F4xx devices.
  26:../Libraries/STM32F4xx_StdPeriph_Driver/src/stm32f4xx_tim.c ****   *          These functions are split in 9 groups: 
  27:../Libraries/STM32F4xx_StdPeriph_Driver/src/stm32f4xx_tim.c ****   *   
  28:../Libraries/STM32F4xx_StdPeriph_Driver/src/stm32f4xx_tim.c ****   *          1. TIM TimeBase management: this group includes all needed functions 
  29:../Libraries/STM32F4xx_StdPeriph_Driver/src/stm32f4xx_tim.c ****   *             to configure the TM Timebase unit:
  30:../Libraries/STM32F4xx_StdPeriph_Driver/src/stm32f4xx_tim.c ****   *                   - Set/Get Prescaler
  31:../Libraries/STM32F4xx_StdPeriph_Driver/src/stm32f4xx_tim.c ****   *                   - Set/Get Autoreload  
  32:../Libraries/STM32F4xx_StdPeriph_Driver/src/stm32f4xx_tim.c ****   *                   - Counter modes configuration
  33:../Libraries/STM32F4xx_StdPeriph_Driver/src/stm32f4xx_tim.c ****   *                   - Set Clock division  
  34:../Libraries/STM32F4xx_StdPeriph_Driver/src/stm32f4xx_tim.c ****   *                   - Select the One Pulse mode
  35:../Libraries/STM32F4xx_StdPeriph_Driver/src/stm32f4xx_tim.c ****   *                   - Update Request Configuration
  36:../Libraries/STM32F4xx_StdPeriph_Driver/src/stm32f4xx_tim.c ****   *                   - Update Disable Configuration
  37:../Libraries/STM32F4xx_StdPeriph_Driver/src/stm32f4xx_tim.c ****   *                   - Auto-Preload Configuration 
  38:../Libraries/STM32F4xx_StdPeriph_Driver/src/stm32f4xx_tim.c ****   *                   - Enable/Disable the counter     
  39:../Libraries/STM32F4xx_StdPeriph_Driver/src/stm32f4xx_tim.c ****   *                 
  40:../Libraries/STM32F4xx_StdPeriph_Driver/src/stm32f4xx_tim.c ****   *          2. TIM Output Compare management: this group includes all needed 
  41:../Libraries/STM32F4xx_StdPeriph_Driver/src/stm32f4xx_tim.c ****   *             functions to configure the Capture/Compare unit used in Output 
  42:../Libraries/STM32F4xx_StdPeriph_Driver/src/stm32f4xx_tim.c ****   *             compare mode: 
  43:../Libraries/STM32F4xx_StdPeriph_Driver/src/stm32f4xx_tim.c ****   *                   - Configure each channel, independently, in Output Compare mode
  44:../Libraries/STM32F4xx_StdPeriph_Driver/src/stm32f4xx_tim.c ****   *                   - Select the output compare modes
  45:../Libraries/STM32F4xx_StdPeriph_Driver/src/stm32f4xx_tim.c ****   *                   - Select the Polarities of each channel
  46:../Libraries/STM32F4xx_StdPeriph_Driver/src/stm32f4xx_tim.c ****   *                   - Set/Get the Capture/Compare register values
  47:../Libraries/STM32F4xx_StdPeriph_Driver/src/stm32f4xx_tim.c ****   *                   - Select the Output Compare Fast mode 
  48:../Libraries/STM32F4xx_StdPeriph_Driver/src/stm32f4xx_tim.c ****   *                   - Select the Output Compare Forced mode  
  49:../Libraries/STM32F4xx_StdPeriph_Driver/src/stm32f4xx_tim.c ****   *                   - Output Compare-Preload Configuration 
  50:../Libraries/STM32F4xx_StdPeriph_Driver/src/stm32f4xx_tim.c ****   *                   - Clear Output Compare Reference
  51:../Libraries/STM32F4xx_StdPeriph_Driver/src/stm32f4xx_tim.c ****   *                   - Select the OCREF Clear signal
  52:../Libraries/STM32F4xx_StdPeriph_Driver/src/stm32f4xx_tim.c ****   *                   - Enable/Disable the Capture/Compare Channels    
  53:../Libraries/STM32F4xx_StdPeriph_Driver/src/stm32f4xx_tim.c ****   *                   
  54:../Libraries/STM32F4xx_StdPeriph_Driver/src/stm32f4xx_tim.c ****   *          3. TIM Input Capture management: this group includes all needed 
  55:../Libraries/STM32F4xx_StdPeriph_Driver/src/stm32f4xx_tim.c ****   *             functions to configure the Capture/Compare unit used in 
  56:../Libraries/STM32F4xx_StdPeriph_Driver/src/stm32f4xx_tim.c ****   *             Input Capture mode:
  57:../Libraries/STM32F4xx_StdPeriph_Driver/src/stm32f4xx_tim.c ****   *                   - Configure each channel in input capture mode
  58:../Libraries/STM32F4xx_StdPeriph_Driver/src/stm32f4xx_tim.c ****   *                   - Configure Channel1/2 in PWM Input mode
  59:../Libraries/STM32F4xx_StdPeriph_Driver/src/stm32f4xx_tim.c ****   *                   - Set the Input Capture Prescaler
  60:../Libraries/STM32F4xx_StdPeriph_Driver/src/stm32f4xx_tim.c ****   *                   - Get the Capture/Compare values      
  61:../Libraries/STM32F4xx_StdPeriph_Driver/src/stm32f4xx_tim.c ****   *                   
  62:../Libraries/STM32F4xx_StdPeriph_Driver/src/stm32f4xx_tim.c ****   *          4. Advanced-control timers (TIM1 and TIM8) specific features
  63:../Libraries/STM32F4xx_StdPeriph_Driver/src/stm32f4xx_tim.c ****   *                   - Configures the Break input, dead time, Lock level, the OSSI,
  64:../Libraries/STM32F4xx_StdPeriph_Driver/src/stm32f4xx_tim.c ****   *                      the OSSR State and the AOE(automatic output enable)
  65:../Libraries/STM32F4xx_StdPeriph_Driver/src/stm32f4xx_tim.c ****   *                   - Enable/Disable the TIM peripheral Main Outputs
  66:../Libraries/STM32F4xx_StdPeriph_Driver/src/stm32f4xx_tim.c ****   *                   - Select the Commutation event
  67:../Libraries/STM32F4xx_StdPeriph_Driver/src/stm32f4xx_tim.c ****   *                   - Set/Reset the Capture Compare Preload Control bit
  68:../Libraries/STM32F4xx_StdPeriph_Driver/src/stm32f4xx_tim.c ****   *                              
  69:../Libraries/STM32F4xx_StdPeriph_Driver/src/stm32f4xx_tim.c ****   *          5. TIM interrupts, DMA and flags management
  70:../Libraries/STM32F4xx_StdPeriph_Driver/src/stm32f4xx_tim.c ****   *                   - Enable/Disable interrupt sources
  71:../Libraries/STM32F4xx_StdPeriph_Driver/src/stm32f4xx_tim.c ****   *                   - Get flags status
  72:../Libraries/STM32F4xx_StdPeriph_Driver/src/stm32f4xx_tim.c ****   *                   - Clear flags/ Pending bits
  73:../Libraries/STM32F4xx_StdPeriph_Driver/src/stm32f4xx_tim.c ****   *                   - Enable/Disable DMA requests 
  74:../Libraries/STM32F4xx_StdPeriph_Driver/src/stm32f4xx_tim.c ****   *                   - Configure DMA burst mode
  75:../Libraries/STM32F4xx_StdPeriph_Driver/src/stm32f4xx_tim.c ****   *                   - Select CaptureCompare DMA request  
  76:../Libraries/STM32F4xx_StdPeriph_Driver/src/stm32f4xx_tim.c ****   *              
  77:../Libraries/STM32F4xx_StdPeriph_Driver/src/stm32f4xx_tim.c ****   *          6. TIM clocks management: this group includes all needed functions 
  78:../Libraries/STM32F4xx_StdPeriph_Driver/src/stm32f4xx_tim.c ****   *             to configure the clock controller unit:
  79:../Libraries/STM32F4xx_StdPeriph_Driver/src/stm32f4xx_tim.c ****   *                   - Select internal/External clock
  80:../Libraries/STM32F4xx_StdPeriph_Driver/src/stm32f4xx_tim.c ****   *                   - Select the external clock mode: ETR(Mode1/Mode2), TIx or ITRx
  81:../Libraries/STM32F4xx_StdPeriph_Driver/src/stm32f4xx_tim.c ****   *         
  82:../Libraries/STM32F4xx_StdPeriph_Driver/src/stm32f4xx_tim.c ****   *          7. TIM synchronization management: this group includes all needed 
  83:../Libraries/STM32F4xx_StdPeriph_Driver/src/stm32f4xx_tim.c ****   *             functions to configure the Synchronization unit:
  84:../Libraries/STM32F4xx_StdPeriph_Driver/src/stm32f4xx_tim.c ****   *                   - Select Input Trigger  
  85:../Libraries/STM32F4xx_StdPeriph_Driver/src/stm32f4xx_tim.c ****   *                   - Select Output Trigger  
  86:../Libraries/STM32F4xx_StdPeriph_Driver/src/stm32f4xx_tim.c ****   *                   - Select Master Slave Mode 
  87:../Libraries/STM32F4xx_StdPeriph_Driver/src/stm32f4xx_tim.c ****   *                   - ETR Configuration when used as external trigger   
  88:../Libraries/STM32F4xx_StdPeriph_Driver/src/stm32f4xx_tim.c ****   *     
  89:../Libraries/STM32F4xx_StdPeriph_Driver/src/stm32f4xx_tim.c ****   *          8. TIM specific interface management, this group includes all 
  90:../Libraries/STM32F4xx_StdPeriph_Driver/src/stm32f4xx_tim.c ****   *             needed functions to use the specific TIM interface:
  91:../Libraries/STM32F4xx_StdPeriph_Driver/src/stm32f4xx_tim.c ****   *                   - Encoder Interface Configuration
  92:../Libraries/STM32F4xx_StdPeriph_Driver/src/stm32f4xx_tim.c ****   *                   - Select Hall Sensor   
  93:../Libraries/STM32F4xx_StdPeriph_Driver/src/stm32f4xx_tim.c ****   *         
  94:../Libraries/STM32F4xx_StdPeriph_Driver/src/stm32f4xx_tim.c ****   *          9. TIM specific remapping management includes the Remapping 
  95:../Libraries/STM32F4xx_StdPeriph_Driver/src/stm32f4xx_tim.c ****   *             configuration of specific timers               
  96:../Libraries/STM32F4xx_StdPeriph_Driver/src/stm32f4xx_tim.c ****   *   
  97:../Libraries/STM32F4xx_StdPeriph_Driver/src/stm32f4xx_tim.c ****   *  @endverbatim
  98:../Libraries/STM32F4xx_StdPeriph_Driver/src/stm32f4xx_tim.c ****   *    
  99:../Libraries/STM32F4xx_StdPeriph_Driver/src/stm32f4xx_tim.c ****   ******************************************************************************
 100:../Libraries/STM32F4xx_StdPeriph_Driver/src/stm32f4xx_tim.c ****   * @attention
 101:../Libraries/STM32F4xx_StdPeriph_Driver/src/stm32f4xx_tim.c ****   *
 102:../Libraries/STM32F4xx_StdPeriph_Driver/src/stm32f4xx_tim.c ****   * <h2><center>&copy; COPYRIGHT 2012 STMicroelectronics</center></h2>
 103:../Libraries/STM32F4xx_StdPeriph_Driver/src/stm32f4xx_tim.c ****   *
 104:../Libraries/STM32F4xx_StdPeriph_Driver/src/stm32f4xx_tim.c ****   * Licensed under MCD-ST Liberty SW License Agreement V2, (the "License");
 105:../Libraries/STM32F4xx_StdPeriph_Driver/src/stm32f4xx_tim.c ****   * You may not use this file except in compliance with the License.
 106:../Libraries/STM32F4xx_StdPeriph_Driver/src/stm32f4xx_tim.c ****   * You may obtain a copy of the License at:
 107:../Libraries/STM32F4xx_StdPeriph_Driver/src/stm32f4xx_tim.c ****   *
 108:../Libraries/STM32F4xx_StdPeriph_Driver/src/stm32f4xx_tim.c ****   *        http://www.st.com/software_license_agreement_liberty_v2
 109:../Libraries/STM32F4xx_StdPeriph_Driver/src/stm32f4xx_tim.c ****   *
 110:../Libraries/STM32F4xx_StdPeriph_Driver/src/stm32f4xx_tim.c ****   * Unless required by applicable law or agreed to in writing, software 
 111:../Libraries/STM32F4xx_StdPeriph_Driver/src/stm32f4xx_tim.c ****   * distributed under the License is distributed on an "AS IS" BASIS, 
 112:../Libraries/STM32F4xx_StdPeriph_Driver/src/stm32f4xx_tim.c ****   * WITHOUT WARRANTIES OR CONDITIONS OF ANY KIND, either express or implied.
 113:../Libraries/STM32F4xx_StdPeriph_Driver/src/stm32f4xx_tim.c ****   * See the License for the specific language governing permissions and
 114:../Libraries/STM32F4xx_StdPeriph_Driver/src/stm32f4xx_tim.c ****   * limitations under the License.
 115:../Libraries/STM32F4xx_StdPeriph_Driver/src/stm32f4xx_tim.c ****   *
 116:../Libraries/STM32F4xx_StdPeriph_Driver/src/stm32f4xx_tim.c ****   ******************************************************************************
 117:../Libraries/STM32F4xx_StdPeriph_Driver/src/stm32f4xx_tim.c ****   */
 118:../Libraries/STM32F4xx_StdPeriph_Driver/src/stm32f4xx_tim.c **** 
 119:../Libraries/STM32F4xx_StdPeriph_Driver/src/stm32f4xx_tim.c **** /* Includes ------------------------------------------------------------------*/
 120:../Libraries/STM32F4xx_StdPeriph_Driver/src/stm32f4xx_tim.c **** #include "stm32f4xx_tim.h"
 121:../Libraries/STM32F4xx_StdPeriph_Driver/src/stm32f4xx_tim.c **** #include "stm32f4xx_rcc.h"
 122:../Libraries/STM32F4xx_StdPeriph_Driver/src/stm32f4xx_tim.c **** 
 123:../Libraries/STM32F4xx_StdPeriph_Driver/src/stm32f4xx_tim.c **** /** @addtogroup STM32F4xx_StdPeriph_Driver
 124:../Libraries/STM32F4xx_StdPeriph_Driver/src/stm32f4xx_tim.c ****   * @{
 125:../Libraries/STM32F4xx_StdPeriph_Driver/src/stm32f4xx_tim.c ****   */
 126:../Libraries/STM32F4xx_StdPeriph_Driver/src/stm32f4xx_tim.c **** 
 127:../Libraries/STM32F4xx_StdPeriph_Driver/src/stm32f4xx_tim.c **** /** @defgroup TIM 
 128:../Libraries/STM32F4xx_StdPeriph_Driver/src/stm32f4xx_tim.c ****   * @brief TIM driver modules
 129:../Libraries/STM32F4xx_StdPeriph_Driver/src/stm32f4xx_tim.c ****   * @{
 130:../Libraries/STM32F4xx_StdPeriph_Driver/src/stm32f4xx_tim.c ****   */
 131:../Libraries/STM32F4xx_StdPeriph_Driver/src/stm32f4xx_tim.c **** 
 132:../Libraries/STM32F4xx_StdPeriph_Driver/src/stm32f4xx_tim.c **** /* Private typedef -----------------------------------------------------------*/
 133:../Libraries/STM32F4xx_StdPeriph_Driver/src/stm32f4xx_tim.c **** /* Private define ------------------------------------------------------------*/
 134:../Libraries/STM32F4xx_StdPeriph_Driver/src/stm32f4xx_tim.c **** 
 135:../Libraries/STM32F4xx_StdPeriph_Driver/src/stm32f4xx_tim.c **** /* ---------------------- TIM registers bit mask ------------------------ */
 136:../Libraries/STM32F4xx_StdPeriph_Driver/src/stm32f4xx_tim.c **** #define SMCR_ETR_MASK      ((uint16_t)0x00FF) 
 137:../Libraries/STM32F4xx_StdPeriph_Driver/src/stm32f4xx_tim.c **** #define CCMR_OFFSET        ((uint16_t)0x0018)
 138:../Libraries/STM32F4xx_StdPeriph_Driver/src/stm32f4xx_tim.c **** #define CCER_CCE_SET       ((uint16_t)0x0001)  
 139:../Libraries/STM32F4xx_StdPeriph_Driver/src/stm32f4xx_tim.c **** #define	CCER_CCNE_SET      ((uint16_t)0x0004) 
 140:../Libraries/STM32F4xx_StdPeriph_Driver/src/stm32f4xx_tim.c **** #define CCMR_OC13M_MASK    ((uint16_t)0xFF8F)
 141:../Libraries/STM32F4xx_StdPeriph_Driver/src/stm32f4xx_tim.c **** #define CCMR_OC24M_MASK    ((uint16_t)0x8FFF) 
 142:../Libraries/STM32F4xx_StdPeriph_Driver/src/stm32f4xx_tim.c **** 
 143:../Libraries/STM32F4xx_StdPeriph_Driver/src/stm32f4xx_tim.c **** /* Private macro -------------------------------------------------------------*/
 144:../Libraries/STM32F4xx_StdPeriph_Driver/src/stm32f4xx_tim.c **** /* Private variables ---------------------------------------------------------*/
 145:../Libraries/STM32F4xx_StdPeriph_Driver/src/stm32f4xx_tim.c **** /* Private function prototypes -----------------------------------------------*/
 146:../Libraries/STM32F4xx_StdPeriph_Driver/src/stm32f4xx_tim.c **** static void TI1_Config(TIM_TypeDef* TIMx, uint16_t TIM_ICPolarity, uint16_t TIM_ICSelection,
 147:../Libraries/STM32F4xx_StdPeriph_Driver/src/stm32f4xx_tim.c ****                        uint16_t TIM_ICFilter);
 148:../Libraries/STM32F4xx_StdPeriph_Driver/src/stm32f4xx_tim.c **** static void TI2_Config(TIM_TypeDef* TIMx, uint16_t TIM_ICPolarity, uint16_t TIM_ICSelection,
 149:../Libraries/STM32F4xx_StdPeriph_Driver/src/stm32f4xx_tim.c ****                        uint16_t TIM_ICFilter);
 150:../Libraries/STM32F4xx_StdPeriph_Driver/src/stm32f4xx_tim.c **** static void TI3_Config(TIM_TypeDef* TIMx, uint16_t TIM_ICPolarity, uint16_t TIM_ICSelection,
 151:../Libraries/STM32F4xx_StdPeriph_Driver/src/stm32f4xx_tim.c ****                        uint16_t TIM_ICFilter);
 152:../Libraries/STM32F4xx_StdPeriph_Driver/src/stm32f4xx_tim.c **** static void TI4_Config(TIM_TypeDef* TIMx, uint16_t TIM_ICPolarity, uint16_t TIM_ICSelection,
 153:../Libraries/STM32F4xx_StdPeriph_Driver/src/stm32f4xx_tim.c ****                        uint16_t TIM_ICFilter);
 154:../Libraries/STM32F4xx_StdPeriph_Driver/src/stm32f4xx_tim.c **** 
 155:../Libraries/STM32F4xx_StdPeriph_Driver/src/stm32f4xx_tim.c **** /* Private functions ---------------------------------------------------------*/
 156:../Libraries/STM32F4xx_StdPeriph_Driver/src/stm32f4xx_tim.c **** 
 157:../Libraries/STM32F4xx_StdPeriph_Driver/src/stm32f4xx_tim.c **** /** @defgroup TIM_Private_Functions
 158:../Libraries/STM32F4xx_StdPeriph_Driver/src/stm32f4xx_tim.c ****   * @{
 159:../Libraries/STM32F4xx_StdPeriph_Driver/src/stm32f4xx_tim.c ****   */
 160:../Libraries/STM32F4xx_StdPeriph_Driver/src/stm32f4xx_tim.c **** 
 161:../Libraries/STM32F4xx_StdPeriph_Driver/src/stm32f4xx_tim.c **** /** @defgroup TIM_Group1 TimeBase management functions
 162:../Libraries/STM32F4xx_StdPeriph_Driver/src/stm32f4xx_tim.c ****  *  @brief   TimeBase management functions 
 163:../Libraries/STM32F4xx_StdPeriph_Driver/src/stm32f4xx_tim.c ****  *
 164:../Libraries/STM32F4xx_StdPeriph_Driver/src/stm32f4xx_tim.c **** @verbatim   
 165:../Libraries/STM32F4xx_StdPeriph_Driver/src/stm32f4xx_tim.c ****  ===============================================================================
 166:../Libraries/STM32F4xx_StdPeriph_Driver/src/stm32f4xx_tim.c ****                        TimeBase management functions
 167:../Libraries/STM32F4xx_StdPeriph_Driver/src/stm32f4xx_tim.c ****  ===============================================================================  
 168:../Libraries/STM32F4xx_StdPeriph_Driver/src/stm32f4xx_tim.c ****   
 169:../Libraries/STM32F4xx_StdPeriph_Driver/src/stm32f4xx_tim.c ****        ===================================================================      
 170:../Libraries/STM32F4xx_StdPeriph_Driver/src/stm32f4xx_tim.c ****               TIM Driver: how to use it in Timing(Time base) Mode
 171:../Libraries/STM32F4xx_StdPeriph_Driver/src/stm32f4xx_tim.c ****        =================================================================== 
 172:../Libraries/STM32F4xx_StdPeriph_Driver/src/stm32f4xx_tim.c ****        To use the Timer in Timing(Time base) mode, the following steps are mandatory:
 173:../Libraries/STM32F4xx_StdPeriph_Driver/src/stm32f4xx_tim.c ****        
 174:../Libraries/STM32F4xx_StdPeriph_Driver/src/stm32f4xx_tim.c ****        1. Enable TIM clock using RCC_APBxPeriphClockCmd(RCC_APBxPeriph_TIMx, ENABLE) function
 175:../Libraries/STM32F4xx_StdPeriph_Driver/src/stm32f4xx_tim.c ****                     
 176:../Libraries/STM32F4xx_StdPeriph_Driver/src/stm32f4xx_tim.c ****        2. Fill the TIM_TimeBaseInitStruct with the desired parameters.
 177:../Libraries/STM32F4xx_StdPeriph_Driver/src/stm32f4xx_tim.c ****        
 178:../Libraries/STM32F4xx_StdPeriph_Driver/src/stm32f4xx_tim.c ****        3. Call TIM_TimeBaseInit(TIMx, &TIM_TimeBaseInitStruct) to configure the Time Base unit
 179:../Libraries/STM32F4xx_StdPeriph_Driver/src/stm32f4xx_tim.c ****           with the corresponding configuration
 180:../Libraries/STM32F4xx_StdPeriph_Driver/src/stm32f4xx_tim.c ****           
 181:../Libraries/STM32F4xx_StdPeriph_Driver/src/stm32f4xx_tim.c ****        4. Enable the NVIC if you need to generate the update interrupt. 
 182:../Libraries/STM32F4xx_StdPeriph_Driver/src/stm32f4xx_tim.c ****           
 183:../Libraries/STM32F4xx_StdPeriph_Driver/src/stm32f4xx_tim.c ****        5. Enable the corresponding interrupt using the function TIM_ITConfig(TIMx, TIM_IT_Update) 
 184:../Libraries/STM32F4xx_StdPeriph_Driver/src/stm32f4xx_tim.c ****        
 185:../Libraries/STM32F4xx_StdPeriph_Driver/src/stm32f4xx_tim.c ****        6. Call the TIM_Cmd(ENABLE) function to enable the TIM counter.
 186:../Libraries/STM32F4xx_StdPeriph_Driver/src/stm32f4xx_tim.c ****              
 187:../Libraries/STM32F4xx_StdPeriph_Driver/src/stm32f4xx_tim.c ****        Note1: All other functions can be used separately to modify, if needed,
 188:../Libraries/STM32F4xx_StdPeriph_Driver/src/stm32f4xx_tim.c ****           a specific feature of the Timer. 
 189:../Libraries/STM32F4xx_StdPeriph_Driver/src/stm32f4xx_tim.c **** 
 190:../Libraries/STM32F4xx_StdPeriph_Driver/src/stm32f4xx_tim.c **** @endverbatim
 191:../Libraries/STM32F4xx_StdPeriph_Driver/src/stm32f4xx_tim.c ****   * @{
 192:../Libraries/STM32F4xx_StdPeriph_Driver/src/stm32f4xx_tim.c ****   */
 193:../Libraries/STM32F4xx_StdPeriph_Driver/src/stm32f4xx_tim.c ****   
 194:../Libraries/STM32F4xx_StdPeriph_Driver/src/stm32f4xx_tim.c **** /**
 195:../Libraries/STM32F4xx_StdPeriph_Driver/src/stm32f4xx_tim.c ****   * @brief  Deinitializes the TIMx peripheral registers to their default reset values.
 196:../Libraries/STM32F4xx_StdPeriph_Driver/src/stm32f4xx_tim.c ****   * @param  TIMx: where x can be 1 to 14 to select the TIM peripheral.
 197:../Libraries/STM32F4xx_StdPeriph_Driver/src/stm32f4xx_tim.c ****   * @retval None
 198:../Libraries/STM32F4xx_StdPeriph_Driver/src/stm32f4xx_tim.c **** 
 199:../Libraries/STM32F4xx_StdPeriph_Driver/src/stm32f4xx_tim.c ****   */
 200:../Libraries/STM32F4xx_StdPeriph_Driver/src/stm32f4xx_tim.c **** void TIM_DeInit(TIM_TypeDef* TIMx)
 201:../Libraries/STM32F4xx_StdPeriph_Driver/src/stm32f4xx_tim.c **** {
 24588              		.loc 1 201 0
 24589              		.cfi_startproc
 24590              		@ args = 0, pretend = 0, frame = 8
 24591              		@ frame_needed = 1, uses_anonymous_args = 0
 24592 0000 80B5     		push	{r7, lr}
 24593              	.LCFI0:
 24594              		.cfi_def_cfa_offset 8
 24595 0002 82B0     		sub	sp, sp, #8
 24596              	.LCFI1:
 24597              		.cfi_def_cfa_offset 16
 24598 0004 00AF     		add	r7, sp, #0
 24599              		.cfi_offset 14, -4
 24600              		.cfi_offset 7, -8
 24601              	.LCFI2:
 24602              		.cfi_def_cfa_register 7
 24603 0006 7860     		str	r0, [r7, #4]
 202:../Libraries/STM32F4xx_StdPeriph_Driver/src/stm32f4xx_tim.c ****   /* Check the parameters */
 203:../Libraries/STM32F4xx_StdPeriph_Driver/src/stm32f4xx_tim.c ****   assert_param(IS_TIM_ALL_PERIPH(TIMx)); 
 204:../Libraries/STM32F4xx_StdPeriph_Driver/src/stm32f4xx_tim.c ****  
 205:../Libraries/STM32F4xx_StdPeriph_Driver/src/stm32f4xx_tim.c ****   if (TIMx == TIM1)
 24604              		.loc 1 205 0
 24605 0008 7A68     		ldr	r2, [r7, #4]
 24606 000a 784B     		ldr	r3, .L16
 24607 000c 9A42     		cmp	r2, r3
 24608 000e 0CD1     		bne	.L2
 206:../Libraries/STM32F4xx_StdPeriph_Driver/src/stm32f4xx_tim.c ****   {
 207:../Libraries/STM32F4xx_StdPeriph_Driver/src/stm32f4xx_tim.c ****     RCC_APB2PeriphResetCmd(RCC_APB2Periph_TIM1, ENABLE);
 24609              		.loc 1 207 0
 24610 0010 4FF00100 		mov	r0, #1
 24611 0014 4FF00101 		mov	r1, #1
 24612 0018 FFF7FEFF 		bl	RCC_APB2PeriphResetCmd
 208:../Libraries/STM32F4xx_StdPeriph_Driver/src/stm32f4xx_tim.c ****     RCC_APB2PeriphResetCmd(RCC_APB2Periph_TIM1, DISABLE);  
 24613              		.loc 1 208 0
 24614 001c 4FF00100 		mov	r0, #1
 24615 0020 4FF00001 		mov	r1, #0
 24616 0024 FFF7FEFF 		bl	RCC_APB2PeriphResetCmd
 24617 0028 DBE0     		b	.L1
 24618              	.L2:
 209:../Libraries/STM32F4xx_StdPeriph_Driver/src/stm32f4xx_tim.c ****   } 
 210:../Libraries/STM32F4xx_StdPeriph_Driver/src/stm32f4xx_tim.c ****   else if (TIMx == TIM2) 
 24619              		.loc 1 210 0
 24620 002a 7B68     		ldr	r3, [r7, #4]
 24621 002c B3F1804F 		cmp	r3, #1073741824
 24622 0030 0CD1     		bne	.L4
 211:../Libraries/STM32F4xx_StdPeriph_Driver/src/stm32f4xx_tim.c ****   {     
 212:../Libraries/STM32F4xx_StdPeriph_Driver/src/stm32f4xx_tim.c ****     RCC_APB1PeriphResetCmd(RCC_APB1Periph_TIM2, ENABLE);
 24623              		.loc 1 212 0
 24624 0032 4FF00100 		mov	r0, #1
 24625 0036 4FF00101 		mov	r1, #1
 24626 003a FFF7FEFF 		bl	RCC_APB1PeriphResetCmd
 213:../Libraries/STM32F4xx_StdPeriph_Driver/src/stm32f4xx_tim.c ****     RCC_APB1PeriphResetCmd(RCC_APB1Periph_TIM2, DISABLE);
 24627              		.loc 1 213 0
 24628 003e 4FF00100 		mov	r0, #1
 24629 0042 4FF00001 		mov	r1, #0
 24630 0046 FFF7FEFF 		bl	RCC_APB1PeriphResetCmd
 24631 004a CAE0     		b	.L1
 24632              	.L4:
 214:../Libraries/STM32F4xx_StdPeriph_Driver/src/stm32f4xx_tim.c ****   }  
 215:../Libraries/STM32F4xx_StdPeriph_Driver/src/stm32f4xx_tim.c ****   else if (TIMx == TIM3)
 24633              		.loc 1 215 0
 24634 004c 7A68     		ldr	r2, [r7, #4]
 24635 004e 684B     		ldr	r3, .L16+4
 24636 0050 9A42     		cmp	r2, r3
 24637 0052 0CD1     		bne	.L5
 216:../Libraries/STM32F4xx_StdPeriph_Driver/src/stm32f4xx_tim.c ****   { 
 217:../Libraries/STM32F4xx_StdPeriph_Driver/src/stm32f4xx_tim.c ****     RCC_APB1PeriphResetCmd(RCC_APB1Periph_TIM3, ENABLE);
 24638              		.loc 1 217 0
 24639 0054 4FF00200 		mov	r0, #2
 24640 0058 4FF00101 		mov	r1, #1
 24641 005c FFF7FEFF 		bl	RCC_APB1PeriphResetCmd
 218:../Libraries/STM32F4xx_StdPeriph_Driver/src/stm32f4xx_tim.c ****     RCC_APB1PeriphResetCmd(RCC_APB1Periph_TIM3, DISABLE);
 24642              		.loc 1 218 0
 24643 0060 4FF00200 		mov	r0, #2
 24644 0064 4FF00001 		mov	r1, #0
 24645 0068 FFF7FEFF 		bl	RCC_APB1PeriphResetCmd
 24646 006c B9E0     		b	.L1
 24647              	.L5:
 219:../Libraries/STM32F4xx_StdPeriph_Driver/src/stm32f4xx_tim.c ****   }  
 220:../Libraries/STM32F4xx_StdPeriph_Driver/src/stm32f4xx_tim.c ****   else if (TIMx == TIM4)
 24648              		.loc 1 220 0
 24649 006e 7A68     		ldr	r2, [r7, #4]
 24650 0070 604B     		ldr	r3, .L16+8
 24651 0072 9A42     		cmp	r2, r3
 24652 0074 0CD1     		bne	.L6
 221:../Libraries/STM32F4xx_StdPeriph_Driver/src/stm32f4xx_tim.c ****   { 
 222:../Libraries/STM32F4xx_StdPeriph_Driver/src/stm32f4xx_tim.c ****     RCC_APB1PeriphResetCmd(RCC_APB1Periph_TIM4, ENABLE);
 24653              		.loc 1 222 0
 24654 0076 4FF00400 		mov	r0, #4
 24655 007a 4FF00101 		mov	r1, #1
 24656 007e FFF7FEFF 		bl	RCC_APB1PeriphResetCmd
 223:../Libraries/STM32F4xx_StdPeriph_Driver/src/stm32f4xx_tim.c ****     RCC_APB1PeriphResetCmd(RCC_APB1Periph_TIM4, DISABLE);
 24657              		.loc 1 223 0
 24658 0082 4FF00400 		mov	r0, #4
 24659 0086 4FF00001 		mov	r1, #0
 24660 008a FFF7FEFF 		bl	RCC_APB1PeriphResetCmd
 24661 008e A8E0     		b	.L1
 24662              	.L6:
 224:../Libraries/STM32F4xx_StdPeriph_Driver/src/stm32f4xx_tim.c ****   }  
 225:../Libraries/STM32F4xx_StdPeriph_Driver/src/stm32f4xx_tim.c ****   else if (TIMx == TIM5)
 24663              		.loc 1 225 0
 24664 0090 7A68     		ldr	r2, [r7, #4]
 24665 0092 594B     		ldr	r3, .L16+12
 24666 0094 9A42     		cmp	r2, r3
 24667 0096 0CD1     		bne	.L7
 226:../Libraries/STM32F4xx_StdPeriph_Driver/src/stm32f4xx_tim.c ****   {      
 227:../Libraries/STM32F4xx_StdPeriph_Driver/src/stm32f4xx_tim.c ****     RCC_APB1PeriphResetCmd(RCC_APB1Periph_TIM5, ENABLE);
 24668              		.loc 1 227 0
 24669 0098 4FF00800 		mov	r0, #8
 24670 009c 4FF00101 		mov	r1, #1
 24671 00a0 FFF7FEFF 		bl	RCC_APB1PeriphResetCmd
 228:../Libraries/STM32F4xx_StdPeriph_Driver/src/stm32f4xx_tim.c ****     RCC_APB1PeriphResetCmd(RCC_APB1Periph_TIM5, DISABLE);
 24672              		.loc 1 228 0
 24673 00a4 4FF00800 		mov	r0, #8
 24674 00a8 4FF00001 		mov	r1, #0
 24675 00ac FFF7FEFF 		bl	RCC_APB1PeriphResetCmd
 24676 00b0 97E0     		b	.L1
 24677              	.L7:
 229:../Libraries/STM32F4xx_StdPeriph_Driver/src/stm32f4xx_tim.c ****   }  
 230:../Libraries/STM32F4xx_StdPeriph_Driver/src/stm32f4xx_tim.c ****   else if (TIMx == TIM6)  
 24678              		.loc 1 230 0
 24679 00b2 7A68     		ldr	r2, [r7, #4]
 24680 00b4 514B     		ldr	r3, .L16+16
 24681 00b6 9A42     		cmp	r2, r3
 24682 00b8 0CD1     		bne	.L8
 231:../Libraries/STM32F4xx_StdPeriph_Driver/src/stm32f4xx_tim.c ****   {    
 232:../Libraries/STM32F4xx_StdPeriph_Driver/src/stm32f4xx_tim.c ****     RCC_APB1PeriphResetCmd(RCC_APB1Periph_TIM6, ENABLE);
 24683              		.loc 1 232 0
 24684 00ba 4FF01000 		mov	r0, #16
 24685 00be 4FF00101 		mov	r1, #1
 24686 00c2 FFF7FEFF 		bl	RCC_APB1PeriphResetCmd
 233:../Libraries/STM32F4xx_StdPeriph_Driver/src/stm32f4xx_tim.c ****     RCC_APB1PeriphResetCmd(RCC_APB1Periph_TIM6, DISABLE);
 24687              		.loc 1 233 0
 24688 00c6 4FF01000 		mov	r0, #16
 24689 00ca 4FF00001 		mov	r1, #0
 24690 00ce FFF7FEFF 		bl	RCC_APB1PeriphResetCmd
 24691 00d2 86E0     		b	.L1
 24692              	.L8:
 234:../Libraries/STM32F4xx_StdPeriph_Driver/src/stm32f4xx_tim.c ****   }  
 235:../Libraries/STM32F4xx_StdPeriph_Driver/src/stm32f4xx_tim.c ****   else if (TIMx == TIM7)
 24693              		.loc 1 235 0
 24694 00d4 7A68     		ldr	r2, [r7, #4]
 24695 00d6 4A4B     		ldr	r3, .L16+20
 24696 00d8 9A42     		cmp	r2, r3
 24697 00da 0CD1     		bne	.L9
 236:../Libraries/STM32F4xx_StdPeriph_Driver/src/stm32f4xx_tim.c ****   {      
 237:../Libraries/STM32F4xx_StdPeriph_Driver/src/stm32f4xx_tim.c ****     RCC_APB1PeriphResetCmd(RCC_APB1Periph_TIM7, ENABLE);
 24698              		.loc 1 237 0
 24699 00dc 4FF02000 		mov	r0, #32
 24700 00e0 4FF00101 		mov	r1, #1
 24701 00e4 FFF7FEFF 		bl	RCC_APB1PeriphResetCmd
 238:../Libraries/STM32F4xx_StdPeriph_Driver/src/stm32f4xx_tim.c ****     RCC_APB1PeriphResetCmd(RCC_APB1Periph_TIM7, DISABLE);
 24702              		.loc 1 238 0
 24703 00e8 4FF02000 		mov	r0, #32
 24704 00ec 4FF00001 		mov	r1, #0
 24705 00f0 FFF7FEFF 		bl	RCC_APB1PeriphResetCmd
 24706 00f4 75E0     		b	.L1
 24707              	.L9:
 239:../Libraries/STM32F4xx_StdPeriph_Driver/src/stm32f4xx_tim.c ****   }  
 240:../Libraries/STM32F4xx_StdPeriph_Driver/src/stm32f4xx_tim.c ****   else if (TIMx == TIM8)
 24708              		.loc 1 240 0
 24709 00f6 7A68     		ldr	r2, [r7, #4]
 24710 00f8 424B     		ldr	r3, .L16+24
 24711 00fa 9A42     		cmp	r2, r3
 24712 00fc 0CD1     		bne	.L10
 241:../Libraries/STM32F4xx_StdPeriph_Driver/src/stm32f4xx_tim.c ****   {      
 242:../Libraries/STM32F4xx_StdPeriph_Driver/src/stm32f4xx_tim.c ****     RCC_APB2PeriphResetCmd(RCC_APB2Periph_TIM8, ENABLE);
 24713              		.loc 1 242 0
 24714 00fe 4FF00200 		mov	r0, #2
 24715 0102 4FF00101 		mov	r1, #1
 24716 0106 FFF7FEFF 		bl	RCC_APB2PeriphResetCmd
 243:../Libraries/STM32F4xx_StdPeriph_Driver/src/stm32f4xx_tim.c ****     RCC_APB2PeriphResetCmd(RCC_APB2Periph_TIM8, DISABLE);  
 24717              		.loc 1 243 0
 24718 010a 4FF00200 		mov	r0, #2
 24719 010e 4FF00001 		mov	r1, #0
 24720 0112 FFF7FEFF 		bl	RCC_APB2PeriphResetCmd
 24721 0116 64E0     		b	.L1
 24722              	.L10:
 244:../Libraries/STM32F4xx_StdPeriph_Driver/src/stm32f4xx_tim.c ****   }  
 245:../Libraries/STM32F4xx_StdPeriph_Driver/src/stm32f4xx_tim.c ****   else if (TIMx == TIM9)
 24723              		.loc 1 245 0
 24724 0118 7A68     		ldr	r2, [r7, #4]
 24725 011a 3B4B     		ldr	r3, .L16+28
 24726 011c 9A42     		cmp	r2, r3
 24727 011e 0CD1     		bne	.L11
 246:../Libraries/STM32F4xx_StdPeriph_Driver/src/stm32f4xx_tim.c ****   {      
 247:../Libraries/STM32F4xx_StdPeriph_Driver/src/stm32f4xx_tim.c ****     RCC_APB2PeriphResetCmd(RCC_APB2Periph_TIM9, ENABLE);
 24728              		.loc 1 247 0
 24729 0120 4FF48030 		mov	r0, #65536
 24730 0124 4FF00101 		mov	r1, #1
 24731 0128 FFF7FEFF 		bl	RCC_APB2PeriphResetCmd
 248:../Libraries/STM32F4xx_StdPeriph_Driver/src/stm32f4xx_tim.c ****     RCC_APB2PeriphResetCmd(RCC_APB2Periph_TIM9, DISABLE);  
 24732              		.loc 1 248 0
 24733 012c 4FF48030 		mov	r0, #65536
 24734 0130 4FF00001 		mov	r1, #0
 24735 0134 FFF7FEFF 		bl	RCC_APB2PeriphResetCmd
 24736 0138 53E0     		b	.L1
 24737              	.L11:
 249:../Libraries/STM32F4xx_StdPeriph_Driver/src/stm32f4xx_tim.c ****    }  
 250:../Libraries/STM32F4xx_StdPeriph_Driver/src/stm32f4xx_tim.c ****   else if (TIMx == TIM10)
 24738              		.loc 1 250 0
 24739 013a 7A68     		ldr	r2, [r7, #4]
 24740 013c 334B     		ldr	r3, .L16+32
 24741 013e 9A42     		cmp	r2, r3
 24742 0140 0CD1     		bne	.L12
 251:../Libraries/STM32F4xx_StdPeriph_Driver/src/stm32f4xx_tim.c ****   {      
 252:../Libraries/STM32F4xx_StdPeriph_Driver/src/stm32f4xx_tim.c ****     RCC_APB2PeriphResetCmd(RCC_APB2Periph_TIM10, ENABLE);
 24743              		.loc 1 252 0
 24744 0142 4FF40030 		mov	r0, #131072
 24745 0146 4FF00101 		mov	r1, #1
 24746 014a FFF7FEFF 		bl	RCC_APB2PeriphResetCmd
 253:../Libraries/STM32F4xx_StdPeriph_Driver/src/stm32f4xx_tim.c ****     RCC_APB2PeriphResetCmd(RCC_APB2Periph_TIM10, DISABLE);  
 24747              		.loc 1 253 0
 24748 014e 4FF40030 		mov	r0, #131072
 24749 0152 4FF00001 		mov	r1, #0
 24750 0156 FFF7FEFF 		bl	RCC_APB2PeriphResetCmd
 24751 015a 42E0     		b	.L1
 24752              	.L12:
 254:../Libraries/STM32F4xx_StdPeriph_Driver/src/stm32f4xx_tim.c ****   }  
 255:../Libraries/STM32F4xx_StdPeriph_Driver/src/stm32f4xx_tim.c ****   else if (TIMx == TIM11) 
 24753              		.loc 1 255 0
 24754 015c 7A68     		ldr	r2, [r7, #4]
 24755 015e 2C4B     		ldr	r3, .L16+36
 24756 0160 9A42     		cmp	r2, r3
 24757 0162 0CD1     		bne	.L13
 256:../Libraries/STM32F4xx_StdPeriph_Driver/src/stm32f4xx_tim.c ****   {     
 257:../Libraries/STM32F4xx_StdPeriph_Driver/src/stm32f4xx_tim.c ****     RCC_APB2PeriphResetCmd(RCC_APB2Periph_TIM11, ENABLE);
 24758              		.loc 1 257 0
 24759 0164 4FF48020 		mov	r0, #262144
 24760 0168 4FF00101 		mov	r1, #1
 24761 016c FFF7FEFF 		bl	RCC_APB2PeriphResetCmd
 258:../Libraries/STM32F4xx_StdPeriph_Driver/src/stm32f4xx_tim.c ****     RCC_APB2PeriphResetCmd(RCC_APB2Periph_TIM11, DISABLE);  
 24762              		.loc 1 258 0
 24763 0170 4FF48020 		mov	r0, #262144
 24764 0174 4FF00001 		mov	r1, #0
 24765 0178 FFF7FEFF 		bl	RCC_APB2PeriphResetCmd
 24766 017c 31E0     		b	.L1
 24767              	.L13:
 259:../Libraries/STM32F4xx_StdPeriph_Driver/src/stm32f4xx_tim.c ****   }  
 260:../Libraries/STM32F4xx_StdPeriph_Driver/src/stm32f4xx_tim.c ****   else if (TIMx == TIM12)
 24768              		.loc 1 260 0
 24769 017e 7A68     		ldr	r2, [r7, #4]
 24770 0180 244B     		ldr	r3, .L16+40
 24771 0182 9A42     		cmp	r2, r3
 24772 0184 0CD1     		bne	.L14
 261:../Libraries/STM32F4xx_StdPeriph_Driver/src/stm32f4xx_tim.c ****   {      
 262:../Libraries/STM32F4xx_StdPeriph_Driver/src/stm32f4xx_tim.c ****     RCC_APB1PeriphResetCmd(RCC_APB1Periph_TIM12, ENABLE);
 24773              		.loc 1 262 0
 24774 0186 4FF04000 		mov	r0, #64
 24775 018a 4FF00101 		mov	r1, #1
 24776 018e FFF7FEFF 		bl	RCC_APB1PeriphResetCmd
 263:../Libraries/STM32F4xx_StdPeriph_Driver/src/stm32f4xx_tim.c ****     RCC_APB1PeriphResetCmd(RCC_APB1Periph_TIM12, DISABLE);  
 24777              		.loc 1 263 0
 24778 0192 4FF04000 		mov	r0, #64
 24779 0196 4FF00001 		mov	r1, #0
 24780 019a FFF7FEFF 		bl	RCC_APB1PeriphResetCmd
 24781 019e 20E0     		b	.L1
 24782              	.L14:
 264:../Libraries/STM32F4xx_StdPeriph_Driver/src/stm32f4xx_tim.c ****   }  
 265:../Libraries/STM32F4xx_StdPeriph_Driver/src/stm32f4xx_tim.c ****   else if (TIMx == TIM13) 
 24783              		.loc 1 265 0
 24784 01a0 7A68     		ldr	r2, [r7, #4]
 24785 01a2 1D4B     		ldr	r3, .L16+44
 24786 01a4 9A42     		cmp	r2, r3
 24787 01a6 0CD1     		bne	.L15
 266:../Libraries/STM32F4xx_StdPeriph_Driver/src/stm32f4xx_tim.c ****   {       
 267:../Libraries/STM32F4xx_StdPeriph_Driver/src/stm32f4xx_tim.c ****     RCC_APB1PeriphResetCmd(RCC_APB1Periph_TIM13, ENABLE);
 24788              		.loc 1 267 0
 24789 01a8 4FF08000 		mov	r0, #128
 24790 01ac 4FF00101 		mov	r1, #1
 24791 01b0 FFF7FEFF 		bl	RCC_APB1PeriphResetCmd
 268:../Libraries/STM32F4xx_StdPeriph_Driver/src/stm32f4xx_tim.c ****     RCC_APB1PeriphResetCmd(RCC_APB1Periph_TIM13, DISABLE);  
 24792              		.loc 1 268 0
 24793 01b4 4FF08000 		mov	r0, #128
 24794 01b8 4FF00001 		mov	r1, #0
 24795 01bc FFF7FEFF 		bl	RCC_APB1PeriphResetCmd
 24796 01c0 0FE0     		b	.L1
 24797              	.L15:
 269:../Libraries/STM32F4xx_StdPeriph_Driver/src/stm32f4xx_tim.c ****   }  
 270:../Libraries/STM32F4xx_StdPeriph_Driver/src/stm32f4xx_tim.c ****   else
 271:../Libraries/STM32F4xx_StdPeriph_Driver/src/stm32f4xx_tim.c ****   { 
 272:../Libraries/STM32F4xx_StdPeriph_Driver/src/stm32f4xx_tim.c ****     if (TIMx == TIM14) 
 24798              		.loc 1 272 0
 24799 01c2 7A68     		ldr	r2, [r7, #4]
 24800 01c4 154B     		ldr	r3, .L16+48
 24801 01c6 9A42     		cmp	r2, r3
 24802 01c8 0BD1     		bne	.L1
 273:../Libraries/STM32F4xx_StdPeriph_Driver/src/stm32f4xx_tim.c ****     {     
 274:../Libraries/STM32F4xx_StdPeriph_Driver/src/stm32f4xx_tim.c ****       RCC_APB1PeriphResetCmd(RCC_APB1Periph_TIM14, ENABLE);
 24803              		.loc 1 274 0
 24804 01ca 4FF48070 		mov	r0, #256
 24805 01ce 4FF00101 		mov	r1, #1
 24806 01d2 FFF7FEFF 		bl	RCC_APB1PeriphResetCmd
 275:../Libraries/STM32F4xx_StdPeriph_Driver/src/stm32f4xx_tim.c ****       RCC_APB1PeriphResetCmd(RCC_APB1Periph_TIM14, DISABLE); 
 24807              		.loc 1 275 0
 24808 01d6 4FF48070 		mov	r0, #256
 24809 01da 4FF00001 		mov	r1, #0
 24810 01de FFF7FEFF 		bl	RCC_APB1PeriphResetCmd
 24811              	.L1:
 276:../Libraries/STM32F4xx_StdPeriph_Driver/src/stm32f4xx_tim.c ****     }   
 277:../Libraries/STM32F4xx_StdPeriph_Driver/src/stm32f4xx_tim.c ****   }
 278:../Libraries/STM32F4xx_StdPeriph_Driver/src/stm32f4xx_tim.c **** }
 24812              		.loc 1 278 0
 24813 01e2 07F10807 		add	r7, r7, #8
 24814 01e6 BD46     		mov	sp, r7
 24815 01e8 80BD     		pop	{r7, pc}
 24816              	.L17:
 24817 01ea 00BF     		.align	2
 24818              	.L16:
 24819 01ec 00000140 		.word	1073807360
 24820 01f0 00040040 		.word	1073742848
 24821 01f4 00080040 		.word	1073743872
 24822 01f8 000C0040 		.word	1073744896
 24823 01fc 00100040 		.word	1073745920
 24824 0200 00140040 		.word	1073746944
 24825 0204 00040140 		.word	1073808384
 24826 0208 00400140 		.word	1073823744
 24827 020c 00440140 		.word	1073824768
 24828 0210 00480140 		.word	1073825792
 24829 0214 00180040 		.word	1073747968
 24830 0218 001C0040 		.word	1073748992
 24831 021c 00200040 		.word	1073750016
 24832              		.cfi_endproc
 24833              	.LFE110:
 24835              		.align	2
 24836              		.global	TIM_TimeBaseInit
 24837              		.thumb
 24838              		.thumb_func
 24840              	TIM_TimeBaseInit:
 24841              	.LFB111:
 279:../Libraries/STM32F4xx_StdPeriph_Driver/src/stm32f4xx_tim.c **** 
 280:../Libraries/STM32F4xx_StdPeriph_Driver/src/stm32f4xx_tim.c **** /**
 281:../Libraries/STM32F4xx_StdPeriph_Driver/src/stm32f4xx_tim.c ****   * @brief  Initializes the TIMx Time Base Unit peripheral according to 
 282:../Libraries/STM32F4xx_StdPeriph_Driver/src/stm32f4xx_tim.c ****   *         the specified parameters in the TIM_TimeBaseInitStruct.
 283:../Libraries/STM32F4xx_StdPeriph_Driver/src/stm32f4xx_tim.c ****   * @param  TIMx: where x can be  1 to 14 to select the TIM peripheral.
 284:../Libraries/STM32F4xx_StdPeriph_Driver/src/stm32f4xx_tim.c ****   * @param  TIM_TimeBaseInitStruct: pointer to a TIM_TimeBaseInitTypeDef structure
 285:../Libraries/STM32F4xx_StdPeriph_Driver/src/stm32f4xx_tim.c ****   *         that contains the configuration information for the specified TIM peripheral.
 286:../Libraries/STM32F4xx_StdPeriph_Driver/src/stm32f4xx_tim.c ****   * @retval None
 287:../Libraries/STM32F4xx_StdPeriph_Driver/src/stm32f4xx_tim.c ****   */
 288:../Libraries/STM32F4xx_StdPeriph_Driver/src/stm32f4xx_tim.c **** void TIM_TimeBaseInit(TIM_TypeDef* TIMx, TIM_TimeBaseInitTypeDef* TIM_TimeBaseInitStruct)
 289:../Libraries/STM32F4xx_StdPeriph_Driver/src/stm32f4xx_tim.c **** {
 24842              		.loc 1 289 0
 24843              		.cfi_startproc
 24844              		@ args = 0, pretend = 0, frame = 16
 24845              		@ frame_needed = 1, uses_anonymous_args = 0
 24846              		@ link register save eliminated.
 24847 0220 80B4     		push	{r7}
 24848              	.LCFI3:
 24849              		.cfi_def_cfa_offset 4
 24850 0222 85B0     		sub	sp, sp, #20
 24851              	.LCFI4:
 24852              		.cfi_def_cfa_offset 24
 24853 0224 00AF     		add	r7, sp, #0
 24854              		.cfi_offset 7, -4
 24855              	.LCFI5:
 24856              		.cfi_def_cfa_register 7
 24857 0226 7860     		str	r0, [r7, #4]
 24858 0228 3960     		str	r1, [r7, #0]
 290:../Libraries/STM32F4xx_StdPeriph_Driver/src/stm32f4xx_tim.c ****   uint16_t tmpcr1 = 0;
 24859              		.loc 1 290 0
 24860 022a 4FF00003 		mov	r3, #0
 24861 022e FB81     		strh	r3, [r7, #14]	@ movhi
 291:../Libraries/STM32F4xx_StdPeriph_Driver/src/stm32f4xx_tim.c **** 
 292:../Libraries/STM32F4xx_StdPeriph_Driver/src/stm32f4xx_tim.c ****   /* Check the parameters */
 293:../Libraries/STM32F4xx_StdPeriph_Driver/src/stm32f4xx_tim.c ****   assert_param(IS_TIM_ALL_PERIPH(TIMx)); 
 294:../Libraries/STM32F4xx_StdPeriph_Driver/src/stm32f4xx_tim.c ****   assert_param(IS_TIM_COUNTER_MODE(TIM_TimeBaseInitStruct->TIM_CounterMode));
 295:../Libraries/STM32F4xx_StdPeriph_Driver/src/stm32f4xx_tim.c ****   assert_param(IS_TIM_CKD_DIV(TIM_TimeBaseInitStruct->TIM_ClockDivision));
 296:../Libraries/STM32F4xx_StdPeriph_Driver/src/stm32f4xx_tim.c **** 
 297:../Libraries/STM32F4xx_StdPeriph_Driver/src/stm32f4xx_tim.c ****   tmpcr1 = TIMx->CR1;  
 24862              		.loc 1 297 0
 24863 0230 7B68     		ldr	r3, [r7, #4]
 24864 0232 1B88     		ldrh	r3, [r3, #0]	@ movhi
 24865 0234 FB81     		strh	r3, [r7, #14]	@ movhi
 298:../Libraries/STM32F4xx_StdPeriph_Driver/src/stm32f4xx_tim.c **** 
 299:../Libraries/STM32F4xx_StdPeriph_Driver/src/stm32f4xx_tim.c ****   if((TIMx == TIM1) || (TIMx == TIM8)||
 24866              		.loc 1 299 0
 24867 0236 7A68     		ldr	r2, [r7, #4]
 24868 0238 294B     		ldr	r3, .L24
 24869 023a 9A42     		cmp	r2, r3
 24870 023c 13D0     		beq	.L19
 24871              		.loc 1 299 0 is_stmt 0 discriminator 1
 24872 023e 7A68     		ldr	r2, [r7, #4]
 24873 0240 284B     		ldr	r3, .L24+4
 24874 0242 9A42     		cmp	r2, r3
 24875 0244 0FD0     		beq	.L19
 24876 0246 7B68     		ldr	r3, [r7, #4]
 24877 0248 B3F1804F 		cmp	r3, #1073741824
 24878 024c 0BD0     		beq	.L19
 300:../Libraries/STM32F4xx_StdPeriph_Driver/src/stm32f4xx_tim.c ****      (TIMx == TIM2) || (TIMx == TIM3)||
 24879              		.loc 1 300 0 is_stmt 1
 24880 024e 7A68     		ldr	r2, [r7, #4]
 24881 0250 254B     		ldr	r3, .L24+8
 24882 0252 9A42     		cmp	r2, r3
 24883 0254 07D0     		beq	.L19
 24884              		.loc 1 300 0 is_stmt 0 discriminator 1
 24885 0256 7A68     		ldr	r2, [r7, #4]
 24886 0258 244B     		ldr	r3, .L24+12
 24887 025a 9A42     		cmp	r2, r3
 24888 025c 03D0     		beq	.L19
 301:../Libraries/STM32F4xx_StdPeriph_Driver/src/stm32f4xx_tim.c ****      (TIMx == TIM4) || (TIMx == TIM5)) 
 24889              		.loc 1 301 0 is_stmt 1
 24890 025e 7A68     		ldr	r2, [r7, #4]
 24891 0260 234B     		ldr	r3, .L24+16
 24892 0262 9A42     		cmp	r2, r3
 24893 0264 09D1     		bne	.L20
 24894              	.L19:
 302:../Libraries/STM32F4xx_StdPeriph_Driver/src/stm32f4xx_tim.c ****   {
 303:../Libraries/STM32F4xx_StdPeriph_Driver/src/stm32f4xx_tim.c ****     /* Select the Counter Mode */
 304:../Libraries/STM32F4xx_StdPeriph_Driver/src/stm32f4xx_tim.c ****     tmpcr1 &= (uint16_t)(~(TIM_CR1_DIR | TIM_CR1_CMS));
 24895              		.loc 1 304 0
 24896 0266 FB89     		ldrh	r3, [r7, #14]	@ movhi
 24897 0268 23F07003 		bic	r3, r3, #112
 24898 026c FB81     		strh	r3, [r7, #14]	@ movhi
 305:../Libraries/STM32F4xx_StdPeriph_Driver/src/stm32f4xx_tim.c ****     tmpcr1 |= (uint32_t)TIM_TimeBaseInitStruct->TIM_CounterMode;
 24899              		.loc 1 305 0
 24900 026e 3B68     		ldr	r3, [r7, #0]
 24901 0270 5A88     		ldrh	r2, [r3, #2]
 24902 0272 FB89     		ldrh	r3, [r7, #14]	@ movhi
 24903 0274 42EA0303 		orr	r3, r2, r3
 24904 0278 FB81     		strh	r3, [r7, #14]	@ movhi
 24905              	.L20:
 306:../Libraries/STM32F4xx_StdPeriph_Driver/src/stm32f4xx_tim.c ****   }
 307:../Libraries/STM32F4xx_StdPeriph_Driver/src/stm32f4xx_tim.c ****  
 308:../Libraries/STM32F4xx_StdPeriph_Driver/src/stm32f4xx_tim.c ****   if((TIMx != TIM6) && (TIMx != TIM7))
 24906              		.loc 1 308 0
 24907 027a 7A68     		ldr	r2, [r7, #4]
 24908 027c 1D4B     		ldr	r3, .L24+20
 24909 027e 9A42     		cmp	r2, r3
 24910 0280 0DD0     		beq	.L21
 24911              		.loc 1 308 0 is_stmt 0 discriminator 1
 24912 0282 7A68     		ldr	r2, [r7, #4]
 24913 0284 1C4B     		ldr	r3, .L24+24
 24914 0286 9A42     		cmp	r2, r3
 24915 0288 09D0     		beq	.L21
 309:../Libraries/STM32F4xx_StdPeriph_Driver/src/stm32f4xx_tim.c ****   {
 310:../Libraries/STM32F4xx_StdPeriph_Driver/src/stm32f4xx_tim.c ****     /* Set the clock division */
 311:../Libraries/STM32F4xx_StdPeriph_Driver/src/stm32f4xx_tim.c ****     tmpcr1 &=  (uint16_t)(~TIM_CR1_CKD);
 24916              		.loc 1 311 0 is_stmt 1
 24917 028a FB89     		ldrh	r3, [r7, #14]	@ movhi
 24918 028c 23F44073 		bic	r3, r3, #768
 24919 0290 FB81     		strh	r3, [r7, #14]	@ movhi
 312:../Libraries/STM32F4xx_StdPeriph_Driver/src/stm32f4xx_tim.c ****     tmpcr1 |= (uint32_t)TIM_TimeBaseInitStruct->TIM_ClockDivision;
 24920              		.loc 1 312 0
 24921 0292 3B68     		ldr	r3, [r7, #0]
 24922 0294 1A89     		ldrh	r2, [r3, #8]
 24923 0296 FB89     		ldrh	r3, [r7, #14]	@ movhi
 24924 0298 42EA0303 		orr	r3, r2, r3
 24925 029c FB81     		strh	r3, [r7, #14]	@ movhi
 24926              	.L21:
 313:../Libraries/STM32F4xx_StdPeriph_Driver/src/stm32f4xx_tim.c ****   }
 314:../Libraries/STM32F4xx_StdPeriph_Driver/src/stm32f4xx_tim.c **** 
 315:../Libraries/STM32F4xx_StdPeriph_Driver/src/stm32f4xx_tim.c ****   TIMx->CR1 = tmpcr1;
 24927              		.loc 1 315 0
 24928 029e 7B68     		ldr	r3, [r7, #4]
 24929 02a0 FA89     		ldrh	r2, [r7, #14]	@ movhi
 24930 02a2 1A80     		strh	r2, [r3, #0]	@ movhi
 316:../Libraries/STM32F4xx_StdPeriph_Driver/src/stm32f4xx_tim.c **** 
 317:../Libraries/STM32F4xx_StdPeriph_Driver/src/stm32f4xx_tim.c ****   /* Set the Autoreload value */
 318:../Libraries/STM32F4xx_StdPeriph_Driver/src/stm32f4xx_tim.c ****   TIMx->ARR = TIM_TimeBaseInitStruct->TIM_Period ;
 24931              		.loc 1 318 0
 24932 02a4 3B68     		ldr	r3, [r7, #0]
 24933 02a6 5A68     		ldr	r2, [r3, #4]
 24934 02a8 7B68     		ldr	r3, [r7, #4]
 24935 02aa DA62     		str	r2, [r3, #44]
 319:../Libraries/STM32F4xx_StdPeriph_Driver/src/stm32f4xx_tim.c ****  
 320:../Libraries/STM32F4xx_StdPeriph_Driver/src/stm32f4xx_tim.c ****   /* Set the Prescaler value */
 321:../Libraries/STM32F4xx_StdPeriph_Driver/src/stm32f4xx_tim.c ****   TIMx->PSC = TIM_TimeBaseInitStruct->TIM_Prescaler;
 24936              		.loc 1 321 0
 24937 02ac 3B68     		ldr	r3, [r7, #0]
 24938 02ae 1A88     		ldrh	r2, [r3, #0]
 24939 02b0 7B68     		ldr	r3, [r7, #4]
 24940 02b2 1A85     		strh	r2, [r3, #40]	@ movhi
 322:../Libraries/STM32F4xx_StdPeriph_Driver/src/stm32f4xx_tim.c ****     
 323:../Libraries/STM32F4xx_StdPeriph_Driver/src/stm32f4xx_tim.c ****   if ((TIMx == TIM1) || (TIMx == TIM8))  
 24941              		.loc 1 323 0
 24942 02b4 7A68     		ldr	r2, [r7, #4]
 24943 02b6 0A4B     		ldr	r3, .L24
 24944 02b8 9A42     		cmp	r2, r3
 24945 02ba 03D0     		beq	.L22
 24946              		.loc 1 323 0 is_stmt 0 discriminator 1
 24947 02bc 7A68     		ldr	r2, [r7, #4]
 24948 02be 094B     		ldr	r3, .L24+4
 24949 02c0 9A42     		cmp	r2, r3
 24950 02c2 04D1     		bne	.L23
 24951              	.L22:
 324:../Libraries/STM32F4xx_StdPeriph_Driver/src/stm32f4xx_tim.c ****   {
 325:../Libraries/STM32F4xx_StdPeriph_Driver/src/stm32f4xx_tim.c ****     /* Set the Repetition Counter value */
 326:../Libraries/STM32F4xx_StdPeriph_Driver/src/stm32f4xx_tim.c ****     TIMx->RCR = TIM_TimeBaseInitStruct->TIM_RepetitionCounter;
 24952              		.loc 1 326 0 is_stmt 1
 24953 02c4 3B68     		ldr	r3, [r7, #0]
 24954 02c6 9B7A     		ldrb	r3, [r3, #10]	@ zero_extendqisi2
 24955 02c8 1A46     		mov	r2, r3
 24956 02ca 7B68     		ldr	r3, [r7, #4]
 24957 02cc 1A86     		strh	r2, [r3, #48]	@ movhi
 24958              	.L23:
 327:../Libraries/STM32F4xx_StdPeriph_Driver/src/stm32f4xx_tim.c ****   }
 328:../Libraries/STM32F4xx_StdPeriph_Driver/src/stm32f4xx_tim.c **** 
 329:../Libraries/STM32F4xx_StdPeriph_Driver/src/stm32f4xx_tim.c ****   /* Generate an update event to reload the Prescaler 
 330:../Libraries/STM32F4xx_StdPeriph_Driver/src/stm32f4xx_tim.c ****      and the repetition counter(only for TIM1 and TIM8) value immediatly */
 331:../Libraries/STM32F4xx_StdPeriph_Driver/src/stm32f4xx_tim.c ****   TIMx->EGR = TIM_PSCReloadMode_Immediate;          
 24959              		.loc 1 331 0
 24960 02ce 7B68     		ldr	r3, [r7, #4]
 24961 02d0 4FF00102 		mov	r2, #1
 24962 02d4 9A82     		strh	r2, [r3, #20]	@ movhi
 332:../Libraries/STM32F4xx_StdPeriph_Driver/src/stm32f4xx_tim.c **** }
 24963              		.loc 1 332 0
 24964 02d6 07F11407 		add	r7, r7, #20
 24965 02da BD46     		mov	sp, r7
 24966 02dc 80BC     		pop	{r7}
 24967 02de 7047     		bx	lr
 24968              	.L25:
 24969              		.align	2
 24970              	.L24:
 24971 02e0 00000140 		.word	1073807360
 24972 02e4 00040140 		.word	1073808384
 24973 02e8 00040040 		.word	1073742848
 24974 02ec 00080040 		.word	1073743872
 24975 02f0 000C0040 		.word	1073744896
 24976 02f4 00100040 		.word	1073745920
 24977 02f8 00140040 		.word	1073746944
 24978              		.cfi_endproc
 24979              	.LFE111:
 24981              		.align	2
 24982              		.global	TIM_TimeBaseStructInit
 24983              		.thumb
 24984              		.thumb_func
 24986              	TIM_TimeBaseStructInit:
 24987              	.LFB112:
 333:../Libraries/STM32F4xx_StdPeriph_Driver/src/stm32f4xx_tim.c **** 
 334:../Libraries/STM32F4xx_StdPeriph_Driver/src/stm32f4xx_tim.c **** /**
 335:../Libraries/STM32F4xx_StdPeriph_Driver/src/stm32f4xx_tim.c ****   * @brief  Fills each TIM_TimeBaseInitStruct member with its default value.
 336:../Libraries/STM32F4xx_StdPeriph_Driver/src/stm32f4xx_tim.c ****   * @param  TIM_TimeBaseInitStruct : pointer to a TIM_TimeBaseInitTypeDef
 337:../Libraries/STM32F4xx_StdPeriph_Driver/src/stm32f4xx_tim.c ****   *         structure which will be initialized.
 338:../Libraries/STM32F4xx_StdPeriph_Driver/src/stm32f4xx_tim.c ****   * @retval None
 339:../Libraries/STM32F4xx_StdPeriph_Driver/src/stm32f4xx_tim.c ****   */
 340:../Libraries/STM32F4xx_StdPeriph_Driver/src/stm32f4xx_tim.c **** void TIM_TimeBaseStructInit(TIM_TimeBaseInitTypeDef* TIM_TimeBaseInitStruct)
 341:../Libraries/STM32F4xx_StdPeriph_Driver/src/stm32f4xx_tim.c **** {
 24988              		.loc 1 341 0
 24989              		.cfi_startproc
 24990              		@ args = 0, pretend = 0, frame = 8
 24991              		@ frame_needed = 1, uses_anonymous_args = 0
 24992              		@ link register save eliminated.
 24993 02fc 80B4     		push	{r7}
 24994              	.LCFI6:
 24995              		.cfi_def_cfa_offset 4
 24996 02fe 83B0     		sub	sp, sp, #12
 24997              	.LCFI7:
 24998              		.cfi_def_cfa_offset 16
 24999 0300 00AF     		add	r7, sp, #0
 25000              		.cfi_offset 7, -4
 25001              	.LCFI8:
 25002              		.cfi_def_cfa_register 7
 25003 0302 7860     		str	r0, [r7, #4]
 342:../Libraries/STM32F4xx_StdPeriph_Driver/src/stm32f4xx_tim.c ****   /* Set the default configuration */
 343:../Libraries/STM32F4xx_StdPeriph_Driver/src/stm32f4xx_tim.c ****   TIM_TimeBaseInitStruct->TIM_Period = 0xFFFFFFFF;
 25004              		.loc 1 343 0
 25005 0304 7B68     		ldr	r3, [r7, #4]
 25006 0306 4FF0FF32 		mov	r2, #-1
 25007 030a 5A60     		str	r2, [r3, #4]
 344:../Libraries/STM32F4xx_StdPeriph_Driver/src/stm32f4xx_tim.c ****   TIM_TimeBaseInitStruct->TIM_Prescaler = 0x0000;
 25008              		.loc 1 344 0
 25009 030c 7B68     		ldr	r3, [r7, #4]
 25010 030e 4FF00002 		mov	r2, #0
 25011 0312 1A80     		strh	r2, [r3, #0]	@ movhi
 345:../Libraries/STM32F4xx_StdPeriph_Driver/src/stm32f4xx_tim.c ****   TIM_TimeBaseInitStruct->TIM_ClockDivision = TIM_CKD_DIV1;
 25012              		.loc 1 345 0
 25013 0314 7B68     		ldr	r3, [r7, #4]
 25014 0316 4FF00002 		mov	r2, #0
 25015 031a 1A81     		strh	r2, [r3, #8]	@ movhi
 346:../Libraries/STM32F4xx_StdPeriph_Driver/src/stm32f4xx_tim.c ****   TIM_TimeBaseInitStruct->TIM_CounterMode = TIM_CounterMode_Up;
 25016              		.loc 1 346 0
 25017 031c 7B68     		ldr	r3, [r7, #4]
 25018 031e 4FF00002 		mov	r2, #0
 25019 0322 5A80     		strh	r2, [r3, #2]	@ movhi
 347:../Libraries/STM32F4xx_StdPeriph_Driver/src/stm32f4xx_tim.c ****   TIM_TimeBaseInitStruct->TIM_RepetitionCounter = 0x0000;
 25020              		.loc 1 347 0
 25021 0324 7B68     		ldr	r3, [r7, #4]
 25022 0326 4FF00002 		mov	r2, #0
 25023 032a 9A72     		strb	r2, [r3, #10]
 348:../Libraries/STM32F4xx_StdPeriph_Driver/src/stm32f4xx_tim.c **** }
 25024              		.loc 1 348 0
 25025 032c 07F10C07 		add	r7, r7, #12
 25026 0330 BD46     		mov	sp, r7
 25027 0332 80BC     		pop	{r7}
 25028 0334 7047     		bx	lr
 25029              		.cfi_endproc
 25030              	.LFE112:
 25032 0336 00BF     		.align	2
 25033              		.global	TIM_PrescalerConfig
 25034              		.thumb
 25035              		.thumb_func
 25037              	TIM_PrescalerConfig:
 25038              	.LFB113:
 349:../Libraries/STM32F4xx_StdPeriph_Driver/src/stm32f4xx_tim.c **** 
 350:../Libraries/STM32F4xx_StdPeriph_Driver/src/stm32f4xx_tim.c **** /**
 351:../Libraries/STM32F4xx_StdPeriph_Driver/src/stm32f4xx_tim.c ****   * @brief  Configures the TIMx Prescaler.
 352:../Libraries/STM32F4xx_StdPeriph_Driver/src/stm32f4xx_tim.c ****   * @param  TIMx: where x can be  1 to 14 to select the TIM peripheral.
 353:../Libraries/STM32F4xx_StdPeriph_Driver/src/stm32f4xx_tim.c ****   * @param  Prescaler: specifies the Prescaler Register value
 354:../Libraries/STM32F4xx_StdPeriph_Driver/src/stm32f4xx_tim.c ****   * @param  TIM_PSCReloadMode: specifies the TIM Prescaler Reload mode
 355:../Libraries/STM32F4xx_StdPeriph_Driver/src/stm32f4xx_tim.c ****   *          This parameter can be one of the following values:
 356:../Libraries/STM32F4xx_StdPeriph_Driver/src/stm32f4xx_tim.c ****   *            @arg TIM_PSCReloadMode_Update: The Prescaler is loaded at the update event.
 357:../Libraries/STM32F4xx_StdPeriph_Driver/src/stm32f4xx_tim.c ****   *            @arg TIM_PSCReloadMode_Immediate: The Prescaler is loaded immediatly.
 358:../Libraries/STM32F4xx_StdPeriph_Driver/src/stm32f4xx_tim.c ****   * @retval None
 359:../Libraries/STM32F4xx_StdPeriph_Driver/src/stm32f4xx_tim.c ****   */
 360:../Libraries/STM32F4xx_StdPeriph_Driver/src/stm32f4xx_tim.c **** void TIM_PrescalerConfig(TIM_TypeDef* TIMx, uint16_t Prescaler, uint16_t TIM_PSCReloadMode)
 361:../Libraries/STM32F4xx_StdPeriph_Driver/src/stm32f4xx_tim.c **** {
 25039              		.loc 1 361 0
 25040              		.cfi_startproc
 25041              		@ args = 0, pretend = 0, frame = 8
 25042              		@ frame_needed = 1, uses_anonymous_args = 0
 25043              		@ link register save eliminated.
 25044 0338 80B4     		push	{r7}
 25045              	.LCFI9:
 25046              		.cfi_def_cfa_offset 4
 25047 033a 83B0     		sub	sp, sp, #12
 25048              	.LCFI10:
 25049              		.cfi_def_cfa_offset 16
 25050 033c 00AF     		add	r7, sp, #0
 25051              		.cfi_offset 7, -4
 25052              	.LCFI11:
 25053              		.cfi_def_cfa_register 7
 25054 033e 7860     		str	r0, [r7, #4]
 25055 0340 1346     		mov	r3, r2
 25056 0342 0A46     		mov	r2, r1	@ movhi
 25057 0344 7A80     		strh	r2, [r7, #2]	@ movhi
 25058 0346 3B80     		strh	r3, [r7, #0]	@ movhi
 362:../Libraries/STM32F4xx_StdPeriph_Driver/src/stm32f4xx_tim.c ****   /* Check the parameters */
 363:../Libraries/STM32F4xx_StdPeriph_Driver/src/stm32f4xx_tim.c ****   assert_param(IS_TIM_ALL_PERIPH(TIMx));
 364:../Libraries/STM32F4xx_StdPeriph_Driver/src/stm32f4xx_tim.c ****   assert_param(IS_TIM_PRESCALER_RELOAD(TIM_PSCReloadMode));
 365:../Libraries/STM32F4xx_StdPeriph_Driver/src/stm32f4xx_tim.c ****   /* Set the Prescaler value */
 366:../Libraries/STM32F4xx_StdPeriph_Driver/src/stm32f4xx_tim.c ****   TIMx->PSC = Prescaler;
 25059              		.loc 1 366 0
 25060 0348 7B68     		ldr	r3, [r7, #4]
 25061 034a 7A88     		ldrh	r2, [r7, #2]	@ movhi
 25062 034c 1A85     		strh	r2, [r3, #40]	@ movhi
 367:../Libraries/STM32F4xx_StdPeriph_Driver/src/stm32f4xx_tim.c ****   /* Set or reset the UG Bit */
 368:../Libraries/STM32F4xx_StdPeriph_Driver/src/stm32f4xx_tim.c ****   TIMx->EGR = TIM_PSCReloadMode;
 25063              		.loc 1 368 0
 25064 034e 7B68     		ldr	r3, [r7, #4]
 25065 0350 3A88     		ldrh	r2, [r7, #0]	@ movhi
 25066 0352 9A82     		strh	r2, [r3, #20]	@ movhi
 369:../Libraries/STM32F4xx_StdPeriph_Driver/src/stm32f4xx_tim.c **** }
 25067              		.loc 1 369 0
 25068 0354 07F10C07 		add	r7, r7, #12
 25069 0358 BD46     		mov	sp, r7
 25070 035a 80BC     		pop	{r7}
 25071 035c 7047     		bx	lr
 25072              		.cfi_endproc
 25073              	.LFE113:
 25075 035e 00BF     		.align	2
 25076              		.global	TIM_CounterModeConfig
 25077              		.thumb
 25078              		.thumb_func
 25080              	TIM_CounterModeConfig:
 25081              	.LFB114:
 370:../Libraries/STM32F4xx_StdPeriph_Driver/src/stm32f4xx_tim.c **** 
 371:../Libraries/STM32F4xx_StdPeriph_Driver/src/stm32f4xx_tim.c **** /**
 372:../Libraries/STM32F4xx_StdPeriph_Driver/src/stm32f4xx_tim.c ****   * @brief  Specifies the TIMx Counter Mode to be used.
 373:../Libraries/STM32F4xx_StdPeriph_Driver/src/stm32f4xx_tim.c ****   * @param  TIMx: where x can be  1, 2, 3, 4, 5 or 8 to select the TIM peripheral.
 374:../Libraries/STM32F4xx_StdPeriph_Driver/src/stm32f4xx_tim.c ****   * @param  TIM_CounterMode: specifies the Counter Mode to be used
 375:../Libraries/STM32F4xx_StdPeriph_Driver/src/stm32f4xx_tim.c ****   *          This parameter can be one of the following values:
 376:../Libraries/STM32F4xx_StdPeriph_Driver/src/stm32f4xx_tim.c ****   *            @arg TIM_CounterMode_Up: TIM Up Counting Mode
 377:../Libraries/STM32F4xx_StdPeriph_Driver/src/stm32f4xx_tim.c ****   *            @arg TIM_CounterMode_Down: TIM Down Counting Mode
 378:../Libraries/STM32F4xx_StdPeriph_Driver/src/stm32f4xx_tim.c ****   *            @arg TIM_CounterMode_CenterAligned1: TIM Center Aligned Mode1
 379:../Libraries/STM32F4xx_StdPeriph_Driver/src/stm32f4xx_tim.c ****   *            @arg TIM_CounterMode_CenterAligned2: TIM Center Aligned Mode2
 380:../Libraries/STM32F4xx_StdPeriph_Driver/src/stm32f4xx_tim.c ****   *            @arg TIM_CounterMode_CenterAligned3: TIM Center Aligned Mode3
 381:../Libraries/STM32F4xx_StdPeriph_Driver/src/stm32f4xx_tim.c ****   * @retval None
 382:../Libraries/STM32F4xx_StdPeriph_Driver/src/stm32f4xx_tim.c ****   */
 383:../Libraries/STM32F4xx_StdPeriph_Driver/src/stm32f4xx_tim.c **** void TIM_CounterModeConfig(TIM_TypeDef* TIMx, uint16_t TIM_CounterMode)
 384:../Libraries/STM32F4xx_StdPeriph_Driver/src/stm32f4xx_tim.c **** {
 25082              		.loc 1 384 0
 25083              		.cfi_startproc
 25084              		@ args = 0, pretend = 0, frame = 16
 25085              		@ frame_needed = 1, uses_anonymous_args = 0
 25086              		@ link register save eliminated.
 25087 0360 80B4     		push	{r7}
 25088              	.LCFI12:
 25089              		.cfi_def_cfa_offset 4
 25090 0362 85B0     		sub	sp, sp, #20
 25091              	.LCFI13:
 25092              		.cfi_def_cfa_offset 24
 25093 0364 00AF     		add	r7, sp, #0
 25094              		.cfi_offset 7, -4
 25095              	.LCFI14:
 25096              		.cfi_def_cfa_register 7
 25097 0366 7860     		str	r0, [r7, #4]
 25098 0368 0B46     		mov	r3, r1
 25099 036a 7B80     		strh	r3, [r7, #2]	@ movhi
 385:../Libraries/STM32F4xx_StdPeriph_Driver/src/stm32f4xx_tim.c ****   uint16_t tmpcr1 = 0;
 25100              		.loc 1 385 0
 25101 036c 4FF00003 		mov	r3, #0
 25102 0370 FB81     		strh	r3, [r7, #14]	@ movhi
 386:../Libraries/STM32F4xx_StdPeriph_Driver/src/stm32f4xx_tim.c **** 
 387:../Libraries/STM32F4xx_StdPeriph_Driver/src/stm32f4xx_tim.c ****   /* Check the parameters */
 388:../Libraries/STM32F4xx_StdPeriph_Driver/src/stm32f4xx_tim.c ****   assert_param(IS_TIM_LIST3_PERIPH(TIMx));
 389:../Libraries/STM32F4xx_StdPeriph_Driver/src/stm32f4xx_tim.c ****   assert_param(IS_TIM_COUNTER_MODE(TIM_CounterMode));
 390:../Libraries/STM32F4xx_StdPeriph_Driver/src/stm32f4xx_tim.c **** 
 391:../Libraries/STM32F4xx_StdPeriph_Driver/src/stm32f4xx_tim.c ****   tmpcr1 = TIMx->CR1;
 25103              		.loc 1 391 0
 25104 0372 7B68     		ldr	r3, [r7, #4]
 25105 0374 1B88     		ldrh	r3, [r3, #0]	@ movhi
 25106 0376 FB81     		strh	r3, [r7, #14]	@ movhi
 392:../Libraries/STM32F4xx_StdPeriph_Driver/src/stm32f4xx_tim.c **** 
 393:../Libraries/STM32F4xx_StdPeriph_Driver/src/stm32f4xx_tim.c ****   /* Reset the CMS and DIR Bits */
 394:../Libraries/STM32F4xx_StdPeriph_Driver/src/stm32f4xx_tim.c ****   tmpcr1 &= (uint16_t)~(TIM_CR1_DIR | TIM_CR1_CMS);
 25107              		.loc 1 394 0
 25108 0378 FB89     		ldrh	r3, [r7, #14]	@ movhi
 25109 037a 23F07003 		bic	r3, r3, #112
 25110 037e FB81     		strh	r3, [r7, #14]	@ movhi
 395:../Libraries/STM32F4xx_StdPeriph_Driver/src/stm32f4xx_tim.c **** 
 396:../Libraries/STM32F4xx_StdPeriph_Driver/src/stm32f4xx_tim.c ****   /* Set the Counter Mode */
 397:../Libraries/STM32F4xx_StdPeriph_Driver/src/stm32f4xx_tim.c ****   tmpcr1 |= TIM_CounterMode;
 25111              		.loc 1 397 0
 25112 0380 FA89     		ldrh	r2, [r7, #14]	@ movhi
 25113 0382 7B88     		ldrh	r3, [r7, #2]	@ movhi
 25114 0384 42EA0303 		orr	r3, r2, r3
 25115 0388 FB81     		strh	r3, [r7, #14]	@ movhi
 398:../Libraries/STM32F4xx_StdPeriph_Driver/src/stm32f4xx_tim.c **** 
 399:../Libraries/STM32F4xx_StdPeriph_Driver/src/stm32f4xx_tim.c ****   /* Write to TIMx CR1 register */
 400:../Libraries/STM32F4xx_StdPeriph_Driver/src/stm32f4xx_tim.c ****   TIMx->CR1 = tmpcr1;
 25116              		.loc 1 400 0
 25117 038a 7B68     		ldr	r3, [r7, #4]
 25118 038c FA89     		ldrh	r2, [r7, #14]	@ movhi
 25119 038e 1A80     		strh	r2, [r3, #0]	@ movhi
 401:../Libraries/STM32F4xx_StdPeriph_Driver/src/stm32f4xx_tim.c **** }
 25120              		.loc 1 401 0
 25121 0390 07F11407 		add	r7, r7, #20
 25122 0394 BD46     		mov	sp, r7
 25123 0396 80BC     		pop	{r7}
 25124 0398 7047     		bx	lr
 25125              		.cfi_endproc
 25126              	.LFE114:
 25128 039a 00BF     		.align	2
 25129              		.global	TIM_SetCounter
 25130              		.thumb
 25131              		.thumb_func
 25133              	TIM_SetCounter:
 25134              	.LFB115:
 402:../Libraries/STM32F4xx_StdPeriph_Driver/src/stm32f4xx_tim.c **** 
 403:../Libraries/STM32F4xx_StdPeriph_Driver/src/stm32f4xx_tim.c **** /**
 404:../Libraries/STM32F4xx_StdPeriph_Driver/src/stm32f4xx_tim.c ****   * @brief  Sets the TIMx Counter Register value
 405:../Libraries/STM32F4xx_StdPeriph_Driver/src/stm32f4xx_tim.c ****   * @param  TIMx: where x can be 1 to 14 to select the TIM peripheral.
 406:../Libraries/STM32F4xx_StdPeriph_Driver/src/stm32f4xx_tim.c ****   * @param  Counter: specifies the Counter register new value.
 407:../Libraries/STM32F4xx_StdPeriph_Driver/src/stm32f4xx_tim.c ****   * @retval None
 408:../Libraries/STM32F4xx_StdPeriph_Driver/src/stm32f4xx_tim.c ****   */
 409:../Libraries/STM32F4xx_StdPeriph_Driver/src/stm32f4xx_tim.c **** void TIM_SetCounter(TIM_TypeDef* TIMx, uint32_t Counter)
 410:../Libraries/STM32F4xx_StdPeriph_Driver/src/stm32f4xx_tim.c **** {
 25135              		.loc 1 410 0
 25136              		.cfi_startproc
 25137              		@ args = 0, pretend = 0, frame = 8
 25138              		@ frame_needed = 1, uses_anonymous_args = 0
 25139              		@ link register save eliminated.
 25140 039c 80B4     		push	{r7}
 25141              	.LCFI15:
 25142              		.cfi_def_cfa_offset 4
 25143 039e 83B0     		sub	sp, sp, #12
 25144              	.LCFI16:
 25145              		.cfi_def_cfa_offset 16
 25146 03a0 00AF     		add	r7, sp, #0
 25147              		.cfi_offset 7, -4
 25148              	.LCFI17:
 25149              		.cfi_def_cfa_register 7
 25150 03a2 7860     		str	r0, [r7, #4]
 25151 03a4 3960     		str	r1, [r7, #0]
 411:../Libraries/STM32F4xx_StdPeriph_Driver/src/stm32f4xx_tim.c ****   /* Check the parameters */
 412:../Libraries/STM32F4xx_StdPeriph_Driver/src/stm32f4xx_tim.c ****    assert_param(IS_TIM_ALL_PERIPH(TIMx));
 413:../Libraries/STM32F4xx_StdPeriph_Driver/src/stm32f4xx_tim.c **** 
 414:../Libraries/STM32F4xx_StdPeriph_Driver/src/stm32f4xx_tim.c ****   /* Set the Counter Register value */
 415:../Libraries/STM32F4xx_StdPeriph_Driver/src/stm32f4xx_tim.c ****   TIMx->CNT = Counter;
 25152              		.loc 1 415 0
 25153 03a6 7B68     		ldr	r3, [r7, #4]
 25154 03a8 3A68     		ldr	r2, [r7, #0]
 25155 03aa 5A62     		str	r2, [r3, #36]
 416:../Libraries/STM32F4xx_StdPeriph_Driver/src/stm32f4xx_tim.c **** }
 25156              		.loc 1 416 0
 25157 03ac 07F10C07 		add	r7, r7, #12
 25158 03b0 BD46     		mov	sp, r7
 25159 03b2 80BC     		pop	{r7}
 25160 03b4 7047     		bx	lr
 25161              		.cfi_endproc
 25162              	.LFE115:
 25164 03b6 00BF     		.align	2
 25165              		.global	TIM_SetAutoreload
 25166              		.thumb
 25167              		.thumb_func
 25169              	TIM_SetAutoreload:
 25170              	.LFB116:
 417:../Libraries/STM32F4xx_StdPeriph_Driver/src/stm32f4xx_tim.c **** 
 418:../Libraries/STM32F4xx_StdPeriph_Driver/src/stm32f4xx_tim.c **** /**
 419:../Libraries/STM32F4xx_StdPeriph_Driver/src/stm32f4xx_tim.c ****   * @brief  Sets the TIMx Autoreload Register value
 420:../Libraries/STM32F4xx_StdPeriph_Driver/src/stm32f4xx_tim.c ****   * @param  TIMx: where x can be 1 to 14 to select the TIM peripheral.
 421:../Libraries/STM32F4xx_StdPeriph_Driver/src/stm32f4xx_tim.c ****   * @param  Autoreload: specifies the Autoreload register new value.
 422:../Libraries/STM32F4xx_StdPeriph_Driver/src/stm32f4xx_tim.c ****   * @retval None
 423:../Libraries/STM32F4xx_StdPeriph_Driver/src/stm32f4xx_tim.c ****   */
 424:../Libraries/STM32F4xx_StdPeriph_Driver/src/stm32f4xx_tim.c **** void TIM_SetAutoreload(TIM_TypeDef* TIMx, uint32_t Autoreload)
 425:../Libraries/STM32F4xx_StdPeriph_Driver/src/stm32f4xx_tim.c **** {
 25171              		.loc 1 425 0
 25172              		.cfi_startproc
 25173              		@ args = 0, pretend = 0, frame = 8
 25174              		@ frame_needed = 1, uses_anonymous_args = 0
 25175              		@ link register save eliminated.
 25176 03b8 80B4     		push	{r7}
 25177              	.LCFI18:
 25178              		.cfi_def_cfa_offset 4
 25179 03ba 83B0     		sub	sp, sp, #12
 25180              	.LCFI19:
 25181              		.cfi_def_cfa_offset 16
 25182 03bc 00AF     		add	r7, sp, #0
 25183              		.cfi_offset 7, -4
 25184              	.LCFI20:
 25185              		.cfi_def_cfa_register 7
 25186 03be 7860     		str	r0, [r7, #4]
 25187 03c0 3960     		str	r1, [r7, #0]
 426:../Libraries/STM32F4xx_StdPeriph_Driver/src/stm32f4xx_tim.c ****   /* Check the parameters */
 427:../Libraries/STM32F4xx_StdPeriph_Driver/src/stm32f4xx_tim.c ****   assert_param(IS_TIM_ALL_PERIPH(TIMx));
 428:../Libraries/STM32F4xx_StdPeriph_Driver/src/stm32f4xx_tim.c ****   
 429:../Libraries/STM32F4xx_StdPeriph_Driver/src/stm32f4xx_tim.c ****   /* Set the Autoreload Register value */
 430:../Libraries/STM32F4xx_StdPeriph_Driver/src/stm32f4xx_tim.c ****   TIMx->ARR = Autoreload;
 25188              		.loc 1 430 0
 25189 03c2 7B68     		ldr	r3, [r7, #4]
 25190 03c4 3A68     		ldr	r2, [r7, #0]
 25191 03c6 DA62     		str	r2, [r3, #44]
 431:../Libraries/STM32F4xx_StdPeriph_Driver/src/stm32f4xx_tim.c **** }
 25192              		.loc 1 431 0
 25193 03c8 07F10C07 		add	r7, r7, #12
 25194 03cc BD46     		mov	sp, r7
 25195 03ce 80BC     		pop	{r7}
 25196 03d0 7047     		bx	lr
 25197              		.cfi_endproc
 25198              	.LFE116:
 25200 03d2 00BF     		.align	2
 25201              		.global	TIM_GetCounter
 25202              		.thumb
 25203              		.thumb_func
 25205              	TIM_GetCounter:
 25206              	.LFB117:
 432:../Libraries/STM32F4xx_StdPeriph_Driver/src/stm32f4xx_tim.c **** 
 433:../Libraries/STM32F4xx_StdPeriph_Driver/src/stm32f4xx_tim.c **** /**
 434:../Libraries/STM32F4xx_StdPeriph_Driver/src/stm32f4xx_tim.c ****   * @brief  Gets the TIMx Counter value.
 435:../Libraries/STM32F4xx_StdPeriph_Driver/src/stm32f4xx_tim.c ****   * @param  TIMx: where x can be 1 to 14 to select the TIM peripheral.
 436:../Libraries/STM32F4xx_StdPeriph_Driver/src/stm32f4xx_tim.c ****   * @retval Counter Register value
 437:../Libraries/STM32F4xx_StdPeriph_Driver/src/stm32f4xx_tim.c ****   */
 438:../Libraries/STM32F4xx_StdPeriph_Driver/src/stm32f4xx_tim.c **** uint32_t TIM_GetCounter(TIM_TypeDef* TIMx)
 439:../Libraries/STM32F4xx_StdPeriph_Driver/src/stm32f4xx_tim.c **** {
 25207              		.loc 1 439 0
 25208              		.cfi_startproc
 25209              		@ args = 0, pretend = 0, frame = 8
 25210              		@ frame_needed = 1, uses_anonymous_args = 0
 25211              		@ link register save eliminated.
 25212 03d4 80B4     		push	{r7}
 25213              	.LCFI21:
 25214              		.cfi_def_cfa_offset 4
 25215 03d6 83B0     		sub	sp, sp, #12
 25216              	.LCFI22:
 25217              		.cfi_def_cfa_offset 16
 25218 03d8 00AF     		add	r7, sp, #0
 25219              		.cfi_offset 7, -4
 25220              	.LCFI23:
 25221              		.cfi_def_cfa_register 7
 25222 03da 7860     		str	r0, [r7, #4]
 440:../Libraries/STM32F4xx_StdPeriph_Driver/src/stm32f4xx_tim.c ****   /* Check the parameters */
 441:../Libraries/STM32F4xx_StdPeriph_Driver/src/stm32f4xx_tim.c ****   assert_param(IS_TIM_ALL_PERIPH(TIMx));
 442:../Libraries/STM32F4xx_StdPeriph_Driver/src/stm32f4xx_tim.c **** 
 443:../Libraries/STM32F4xx_StdPeriph_Driver/src/stm32f4xx_tim.c ****   /* Get the Counter Register value */
 444:../Libraries/STM32F4xx_StdPeriph_Driver/src/stm32f4xx_tim.c ****   return TIMx->CNT;
 25223              		.loc 1 444 0
 25224 03dc 7B68     		ldr	r3, [r7, #4]
 25225 03de 5B6A     		ldr	r3, [r3, #36]
 445:../Libraries/STM32F4xx_StdPeriph_Driver/src/stm32f4xx_tim.c **** }
 25226              		.loc 1 445 0
 25227 03e0 1846     		mov	r0, r3
 25228 03e2 07F10C07 		add	r7, r7, #12
 25229 03e6 BD46     		mov	sp, r7
 25230 03e8 80BC     		pop	{r7}
 25231 03ea 7047     		bx	lr
 25232              		.cfi_endproc
 25233              	.LFE117:
 25235              		.align	2
 25236              		.global	TIM_GetPrescaler
 25237              		.thumb
 25238              		.thumb_func
 25240              	TIM_GetPrescaler:
 25241              	.LFB118:
 446:../Libraries/STM32F4xx_StdPeriph_Driver/src/stm32f4xx_tim.c **** 
 447:../Libraries/STM32F4xx_StdPeriph_Driver/src/stm32f4xx_tim.c **** /**
 448:../Libraries/STM32F4xx_StdPeriph_Driver/src/stm32f4xx_tim.c ****   * @brief  Gets the TIMx Prescaler value.
 449:../Libraries/STM32F4xx_StdPeriph_Driver/src/stm32f4xx_tim.c ****   * @param  TIMx: where x can be 1 to 14 to select the TIM peripheral.
 450:../Libraries/STM32F4xx_StdPeriph_Driver/src/stm32f4xx_tim.c ****   * @retval Prescaler Register value.
 451:../Libraries/STM32F4xx_StdPeriph_Driver/src/stm32f4xx_tim.c ****   */
 452:../Libraries/STM32F4xx_StdPeriph_Driver/src/stm32f4xx_tim.c **** uint16_t TIM_GetPrescaler(TIM_TypeDef* TIMx)
 453:../Libraries/STM32F4xx_StdPeriph_Driver/src/stm32f4xx_tim.c **** {
 25242              		.loc 1 453 0
 25243              		.cfi_startproc
 25244              		@ args = 0, pretend = 0, frame = 8
 25245              		@ frame_needed = 1, uses_anonymous_args = 0
 25246              		@ link register save eliminated.
 25247 03ec 80B4     		push	{r7}
 25248              	.LCFI24:
 25249              		.cfi_def_cfa_offset 4
 25250 03ee 83B0     		sub	sp, sp, #12
 25251              	.LCFI25:
 25252              		.cfi_def_cfa_offset 16
 25253 03f0 00AF     		add	r7, sp, #0
 25254              		.cfi_offset 7, -4
 25255              	.LCFI26:
 25256              		.cfi_def_cfa_register 7
 25257 03f2 7860     		str	r0, [r7, #4]
 454:../Libraries/STM32F4xx_StdPeriph_Driver/src/stm32f4xx_tim.c ****   /* Check the parameters */
 455:../Libraries/STM32F4xx_StdPeriph_Driver/src/stm32f4xx_tim.c ****   assert_param(IS_TIM_ALL_PERIPH(TIMx));
 456:../Libraries/STM32F4xx_StdPeriph_Driver/src/stm32f4xx_tim.c **** 
 457:../Libraries/STM32F4xx_StdPeriph_Driver/src/stm32f4xx_tim.c ****   /* Get the Prescaler Register value */
 458:../Libraries/STM32F4xx_StdPeriph_Driver/src/stm32f4xx_tim.c ****   return TIMx->PSC;
 25258              		.loc 1 458 0
 25259 03f4 7B68     		ldr	r3, [r7, #4]
 25260 03f6 1B8D     		ldrh	r3, [r3, #40]	@ movhi
 25261 03f8 9BB2     		uxth	r3, r3
 459:../Libraries/STM32F4xx_StdPeriph_Driver/src/stm32f4xx_tim.c **** }
 25262              		.loc 1 459 0
 25263 03fa 1846     		mov	r0, r3
 25264 03fc 07F10C07 		add	r7, r7, #12
 25265 0400 BD46     		mov	sp, r7
 25266 0402 80BC     		pop	{r7}
 25267 0404 7047     		bx	lr
 25268              		.cfi_endproc
 25269              	.LFE118:
 25271 0406 00BF     		.align	2
 25272              		.global	TIM_UpdateDisableConfig
 25273              		.thumb
 25274              		.thumb_func
 25276              	TIM_UpdateDisableConfig:
 25277              	.LFB119:
 460:../Libraries/STM32F4xx_StdPeriph_Driver/src/stm32f4xx_tim.c **** 
 461:../Libraries/STM32F4xx_StdPeriph_Driver/src/stm32f4xx_tim.c **** /**
 462:../Libraries/STM32F4xx_StdPeriph_Driver/src/stm32f4xx_tim.c ****   * @brief  Enables or Disables the TIMx Update event.
 463:../Libraries/STM32F4xx_StdPeriph_Driver/src/stm32f4xx_tim.c ****   * @param  TIMx: where x can be 1 to 14 to select the TIM peripheral.
 464:../Libraries/STM32F4xx_StdPeriph_Driver/src/stm32f4xx_tim.c ****   * @param  NewState: new state of the TIMx UDIS bit
 465:../Libraries/STM32F4xx_StdPeriph_Driver/src/stm32f4xx_tim.c ****   *          This parameter can be: ENABLE or DISABLE.
 466:../Libraries/STM32F4xx_StdPeriph_Driver/src/stm32f4xx_tim.c ****   * @retval None
 467:../Libraries/STM32F4xx_StdPeriph_Driver/src/stm32f4xx_tim.c ****   */
 468:../Libraries/STM32F4xx_StdPeriph_Driver/src/stm32f4xx_tim.c **** void TIM_UpdateDisableConfig(TIM_TypeDef* TIMx, FunctionalState NewState)
 469:../Libraries/STM32F4xx_StdPeriph_Driver/src/stm32f4xx_tim.c **** {
 25278              		.loc 1 469 0
 25279              		.cfi_startproc
 25280              		@ args = 0, pretend = 0, frame = 8
 25281              		@ frame_needed = 1, uses_anonymous_args = 0
 25282              		@ link register save eliminated.
 25283 0408 80B4     		push	{r7}
 25284              	.LCFI27:
 25285              		.cfi_def_cfa_offset 4
 25286 040a 83B0     		sub	sp, sp, #12
 25287              	.LCFI28:
 25288              		.cfi_def_cfa_offset 16
 25289 040c 00AF     		add	r7, sp, #0
 25290              		.cfi_offset 7, -4
 25291              	.LCFI29:
 25292              		.cfi_def_cfa_register 7
 25293 040e 7860     		str	r0, [r7, #4]
 25294 0410 0B46     		mov	r3, r1
 25295 0412 FB70     		strb	r3, [r7, #3]
 470:../Libraries/STM32F4xx_StdPeriph_Driver/src/stm32f4xx_tim.c ****   /* Check the parameters */
 471:../Libraries/STM32F4xx_StdPeriph_Driver/src/stm32f4xx_tim.c ****   assert_param(IS_TIM_ALL_PERIPH(TIMx));
 472:../Libraries/STM32F4xx_StdPeriph_Driver/src/stm32f4xx_tim.c ****   assert_param(IS_FUNCTIONAL_STATE(NewState));
 473:../Libraries/STM32F4xx_StdPeriph_Driver/src/stm32f4xx_tim.c **** 
 474:../Libraries/STM32F4xx_StdPeriph_Driver/src/stm32f4xx_tim.c ****   if (NewState != DISABLE)
 25296              		.loc 1 474 0
 25297 0414 FB78     		ldrb	r3, [r7, #3]	@ zero_extendqisi2
 25298 0416 002B     		cmp	r3, #0
 25299 0418 08D0     		beq	.L34
 475:../Libraries/STM32F4xx_StdPeriph_Driver/src/stm32f4xx_tim.c ****   {
 476:../Libraries/STM32F4xx_StdPeriph_Driver/src/stm32f4xx_tim.c ****     /* Set the Update Disable Bit */
 477:../Libraries/STM32F4xx_StdPeriph_Driver/src/stm32f4xx_tim.c ****     TIMx->CR1 |= TIM_CR1_UDIS;
 25300              		.loc 1 477 0
 25301 041a 7B68     		ldr	r3, [r7, #4]
 25302 041c 1B88     		ldrh	r3, [r3, #0]	@ movhi
 25303 041e 9BB2     		uxth	r3, r3
 25304 0420 43F00203 		orr	r3, r3, #2
 25305 0424 9AB2     		uxth	r2, r3
 25306 0426 7B68     		ldr	r3, [r7, #4]
 25307 0428 1A80     		strh	r2, [r3, #0]	@ movhi
 25308 042a 07E0     		b	.L33
 25309              	.L34:
 478:../Libraries/STM32F4xx_StdPeriph_Driver/src/stm32f4xx_tim.c ****   }
 479:../Libraries/STM32F4xx_StdPeriph_Driver/src/stm32f4xx_tim.c ****   else
 480:../Libraries/STM32F4xx_StdPeriph_Driver/src/stm32f4xx_tim.c ****   {
 481:../Libraries/STM32F4xx_StdPeriph_Driver/src/stm32f4xx_tim.c ****     /* Reset the Update Disable Bit */
 482:../Libraries/STM32F4xx_StdPeriph_Driver/src/stm32f4xx_tim.c ****     TIMx->CR1 &= (uint16_t)~TIM_CR1_UDIS;
 25310              		.loc 1 482 0
 25311 042c 7B68     		ldr	r3, [r7, #4]
 25312 042e 1B88     		ldrh	r3, [r3, #0]	@ movhi
 25313 0430 9BB2     		uxth	r3, r3
 25314 0432 23F00203 		bic	r3, r3, #2
 25315 0436 9AB2     		uxth	r2, r3
 25316 0438 7B68     		ldr	r3, [r7, #4]
 25317 043a 1A80     		strh	r2, [r3, #0]	@ movhi
 25318              	.L33:
 483:../Libraries/STM32F4xx_StdPeriph_Driver/src/stm32f4xx_tim.c ****   }
 484:../Libraries/STM32F4xx_StdPeriph_Driver/src/stm32f4xx_tim.c **** }
 25319              		.loc 1 484 0
 25320 043c 07F10C07 		add	r7, r7, #12
 25321 0440 BD46     		mov	sp, r7
 25322 0442 80BC     		pop	{r7}
 25323 0444 7047     		bx	lr
 25324              		.cfi_endproc
 25325              	.LFE119:
 25327 0446 00BF     		.align	2
 25328              		.global	TIM_UpdateRequestConfig
 25329              		.thumb
 25330              		.thumb_func
 25332              	TIM_UpdateRequestConfig:
 25333              	.LFB120:
 485:../Libraries/STM32F4xx_StdPeriph_Driver/src/stm32f4xx_tim.c **** 
 486:../Libraries/STM32F4xx_StdPeriph_Driver/src/stm32f4xx_tim.c **** /**
 487:../Libraries/STM32F4xx_StdPeriph_Driver/src/stm32f4xx_tim.c ****   * @brief  Configures the TIMx Update Request Interrupt source.
 488:../Libraries/STM32F4xx_StdPeriph_Driver/src/stm32f4xx_tim.c ****   * @param  TIMx: where x can be 1 to 14 to select the TIM peripheral.
 489:../Libraries/STM32F4xx_StdPeriph_Driver/src/stm32f4xx_tim.c ****   * @param  TIM_UpdateSource: specifies the Update source.
 490:../Libraries/STM32F4xx_StdPeriph_Driver/src/stm32f4xx_tim.c ****   *          This parameter can be one of the following values:
 491:../Libraries/STM32F4xx_StdPeriph_Driver/src/stm32f4xx_tim.c ****   *            @arg TIM_UpdateSource_Global: Source of update is the counter
 492:../Libraries/STM32F4xx_StdPeriph_Driver/src/stm32f4xx_tim.c ****   *                 overflow/underflow or the setting of UG bit, or an update
 493:../Libraries/STM32F4xx_StdPeriph_Driver/src/stm32f4xx_tim.c ****   *                 generation through the slave mode controller.
 494:../Libraries/STM32F4xx_StdPeriph_Driver/src/stm32f4xx_tim.c ****   *            @arg TIM_UpdateSource_Regular: Source of update is counter overflow/underflow.
 495:../Libraries/STM32F4xx_StdPeriph_Driver/src/stm32f4xx_tim.c ****   * @retval None
 496:../Libraries/STM32F4xx_StdPeriph_Driver/src/stm32f4xx_tim.c ****   */
 497:../Libraries/STM32F4xx_StdPeriph_Driver/src/stm32f4xx_tim.c **** void TIM_UpdateRequestConfig(TIM_TypeDef* TIMx, uint16_t TIM_UpdateSource)
 498:../Libraries/STM32F4xx_StdPeriph_Driver/src/stm32f4xx_tim.c **** {
 25334              		.loc 1 498 0
 25335              		.cfi_startproc
 25336              		@ args = 0, pretend = 0, frame = 8
 25337              		@ frame_needed = 1, uses_anonymous_args = 0
 25338              		@ link register save eliminated.
 25339 0448 80B4     		push	{r7}
 25340              	.LCFI30:
 25341              		.cfi_def_cfa_offset 4
 25342 044a 83B0     		sub	sp, sp, #12
 25343              	.LCFI31:
 25344              		.cfi_def_cfa_offset 16
 25345 044c 00AF     		add	r7, sp, #0
 25346              		.cfi_offset 7, -4
 25347              	.LCFI32:
 25348              		.cfi_def_cfa_register 7
 25349 044e 7860     		str	r0, [r7, #4]
 25350 0450 0B46     		mov	r3, r1
 25351 0452 7B80     		strh	r3, [r7, #2]	@ movhi
 499:../Libraries/STM32F4xx_StdPeriph_Driver/src/stm32f4xx_tim.c ****   /* Check the parameters */
 500:../Libraries/STM32F4xx_StdPeriph_Driver/src/stm32f4xx_tim.c ****   assert_param(IS_TIM_ALL_PERIPH(TIMx));
 501:../Libraries/STM32F4xx_StdPeriph_Driver/src/stm32f4xx_tim.c ****   assert_param(IS_TIM_UPDATE_SOURCE(TIM_UpdateSource));
 502:../Libraries/STM32F4xx_StdPeriph_Driver/src/stm32f4xx_tim.c **** 
 503:../Libraries/STM32F4xx_StdPeriph_Driver/src/stm32f4xx_tim.c ****   if (TIM_UpdateSource != TIM_UpdateSource_Global)
 25352              		.loc 1 503 0
 25353 0454 7B88     		ldrh	r3, [r7, #2]
 25354 0456 002B     		cmp	r3, #0
 25355 0458 08D0     		beq	.L37
 504:../Libraries/STM32F4xx_StdPeriph_Driver/src/stm32f4xx_tim.c ****   {
 505:../Libraries/STM32F4xx_StdPeriph_Driver/src/stm32f4xx_tim.c ****     /* Set the URS Bit */
 506:../Libraries/STM32F4xx_StdPeriph_Driver/src/stm32f4xx_tim.c ****     TIMx->CR1 |= TIM_CR1_URS;
 25356              		.loc 1 506 0
 25357 045a 7B68     		ldr	r3, [r7, #4]
 25358 045c 1B88     		ldrh	r3, [r3, #0]	@ movhi
 25359 045e 9BB2     		uxth	r3, r3
 25360 0460 43F00403 		orr	r3, r3, #4
 25361 0464 9AB2     		uxth	r2, r3
 25362 0466 7B68     		ldr	r3, [r7, #4]
 25363 0468 1A80     		strh	r2, [r3, #0]	@ movhi
 25364 046a 07E0     		b	.L36
 25365              	.L37:
 507:../Libraries/STM32F4xx_StdPeriph_Driver/src/stm32f4xx_tim.c ****   }
 508:../Libraries/STM32F4xx_StdPeriph_Driver/src/stm32f4xx_tim.c ****   else
 509:../Libraries/STM32F4xx_StdPeriph_Driver/src/stm32f4xx_tim.c ****   {
 510:../Libraries/STM32F4xx_StdPeriph_Driver/src/stm32f4xx_tim.c ****     /* Reset the URS Bit */
 511:../Libraries/STM32F4xx_StdPeriph_Driver/src/stm32f4xx_tim.c ****     TIMx->CR1 &= (uint16_t)~TIM_CR1_URS;
 25366              		.loc 1 511 0
 25367 046c 7B68     		ldr	r3, [r7, #4]
 25368 046e 1B88     		ldrh	r3, [r3, #0]	@ movhi
 25369 0470 9BB2     		uxth	r3, r3
 25370 0472 23F00403 		bic	r3, r3, #4
 25371 0476 9AB2     		uxth	r2, r3
 25372 0478 7B68     		ldr	r3, [r7, #4]
 25373 047a 1A80     		strh	r2, [r3, #0]	@ movhi
 25374              	.L36:
 512:../Libraries/STM32F4xx_StdPeriph_Driver/src/stm32f4xx_tim.c ****   }
 513:../Libraries/STM32F4xx_StdPeriph_Driver/src/stm32f4xx_tim.c **** }
 25375              		.loc 1 513 0
 25376 047c 07F10C07 		add	r7, r7, #12
 25377 0480 BD46     		mov	sp, r7
 25378 0482 80BC     		pop	{r7}
 25379 0484 7047     		bx	lr
 25380              		.cfi_endproc
 25381              	.LFE120:
 25383 0486 00BF     		.align	2
 25384              		.global	TIM_ARRPreloadConfig
 25385              		.thumb
 25386              		.thumb_func
 25388              	TIM_ARRPreloadConfig:
 25389              	.LFB121:
 514:../Libraries/STM32F4xx_StdPeriph_Driver/src/stm32f4xx_tim.c **** 
 515:../Libraries/STM32F4xx_StdPeriph_Driver/src/stm32f4xx_tim.c **** /**
 516:../Libraries/STM32F4xx_StdPeriph_Driver/src/stm32f4xx_tim.c ****   * @brief  Enables or disables TIMx peripheral Preload register on ARR.
 517:../Libraries/STM32F4xx_StdPeriph_Driver/src/stm32f4xx_tim.c ****   * @param  TIMx: where x can be 1 to 14 to select the TIM peripheral.
 518:../Libraries/STM32F4xx_StdPeriph_Driver/src/stm32f4xx_tim.c ****   * @param  NewState: new state of the TIMx peripheral Preload register
 519:../Libraries/STM32F4xx_StdPeriph_Driver/src/stm32f4xx_tim.c ****   *          This parameter can be: ENABLE or DISABLE.
 520:../Libraries/STM32F4xx_StdPeriph_Driver/src/stm32f4xx_tim.c ****   * @retval None
 521:../Libraries/STM32F4xx_StdPeriph_Driver/src/stm32f4xx_tim.c ****   */
 522:../Libraries/STM32F4xx_StdPeriph_Driver/src/stm32f4xx_tim.c **** void TIM_ARRPreloadConfig(TIM_TypeDef* TIMx, FunctionalState NewState)
 523:../Libraries/STM32F4xx_StdPeriph_Driver/src/stm32f4xx_tim.c **** {
 25390              		.loc 1 523 0
 25391              		.cfi_startproc
 25392              		@ args = 0, pretend = 0, frame = 8
 25393              		@ frame_needed = 1, uses_anonymous_args = 0
 25394              		@ link register save eliminated.
 25395 0488 80B4     		push	{r7}
 25396              	.LCFI33:
 25397              		.cfi_def_cfa_offset 4
 25398 048a 83B0     		sub	sp, sp, #12
 25399              	.LCFI34:
 25400              		.cfi_def_cfa_offset 16
 25401 048c 00AF     		add	r7, sp, #0
 25402              		.cfi_offset 7, -4
 25403              	.LCFI35:
 25404              		.cfi_def_cfa_register 7
 25405 048e 7860     		str	r0, [r7, #4]
 25406 0490 0B46     		mov	r3, r1
 25407 0492 FB70     		strb	r3, [r7, #3]
 524:../Libraries/STM32F4xx_StdPeriph_Driver/src/stm32f4xx_tim.c ****   /* Check the parameters */
 525:../Libraries/STM32F4xx_StdPeriph_Driver/src/stm32f4xx_tim.c ****   assert_param(IS_TIM_ALL_PERIPH(TIMx));
 526:../Libraries/STM32F4xx_StdPeriph_Driver/src/stm32f4xx_tim.c ****   assert_param(IS_FUNCTIONAL_STATE(NewState));
 527:../Libraries/STM32F4xx_StdPeriph_Driver/src/stm32f4xx_tim.c **** 
 528:../Libraries/STM32F4xx_StdPeriph_Driver/src/stm32f4xx_tim.c ****   if (NewState != DISABLE)
 25408              		.loc 1 528 0
 25409 0494 FB78     		ldrb	r3, [r7, #3]	@ zero_extendqisi2
 25410 0496 002B     		cmp	r3, #0
 25411 0498 08D0     		beq	.L40
 529:../Libraries/STM32F4xx_StdPeriph_Driver/src/stm32f4xx_tim.c ****   {
 530:../Libraries/STM32F4xx_StdPeriph_Driver/src/stm32f4xx_tim.c ****     /* Set the ARR Preload Bit */
 531:../Libraries/STM32F4xx_StdPeriph_Driver/src/stm32f4xx_tim.c ****     TIMx->CR1 |= TIM_CR1_ARPE;
 25412              		.loc 1 531 0
 25413 049a 7B68     		ldr	r3, [r7, #4]
 25414 049c 1B88     		ldrh	r3, [r3, #0]	@ movhi
 25415 049e 9BB2     		uxth	r3, r3
 25416 04a0 43F08003 		orr	r3, r3, #128
 25417 04a4 9AB2     		uxth	r2, r3
 25418 04a6 7B68     		ldr	r3, [r7, #4]
 25419 04a8 1A80     		strh	r2, [r3, #0]	@ movhi
 25420 04aa 07E0     		b	.L39
 25421              	.L40:
 532:../Libraries/STM32F4xx_StdPeriph_Driver/src/stm32f4xx_tim.c ****   }
 533:../Libraries/STM32F4xx_StdPeriph_Driver/src/stm32f4xx_tim.c ****   else
 534:../Libraries/STM32F4xx_StdPeriph_Driver/src/stm32f4xx_tim.c ****   {
 535:../Libraries/STM32F4xx_StdPeriph_Driver/src/stm32f4xx_tim.c ****     /* Reset the ARR Preload Bit */
 536:../Libraries/STM32F4xx_StdPeriph_Driver/src/stm32f4xx_tim.c ****     TIMx->CR1 &= (uint16_t)~TIM_CR1_ARPE;
 25422              		.loc 1 536 0
 25423 04ac 7B68     		ldr	r3, [r7, #4]
 25424 04ae 1B88     		ldrh	r3, [r3, #0]	@ movhi
 25425 04b0 9BB2     		uxth	r3, r3
 25426 04b2 23F08003 		bic	r3, r3, #128
 25427 04b6 9AB2     		uxth	r2, r3
 25428 04b8 7B68     		ldr	r3, [r7, #4]
 25429 04ba 1A80     		strh	r2, [r3, #0]	@ movhi
 25430              	.L39:
 537:../Libraries/STM32F4xx_StdPeriph_Driver/src/stm32f4xx_tim.c ****   }
 538:../Libraries/STM32F4xx_StdPeriph_Driver/src/stm32f4xx_tim.c **** }
 25431              		.loc 1 538 0
 25432 04bc 07F10C07 		add	r7, r7, #12
 25433 04c0 BD46     		mov	sp, r7
 25434 04c2 80BC     		pop	{r7}
 25435 04c4 7047     		bx	lr
 25436              		.cfi_endproc
 25437              	.LFE121:
 25439 04c6 00BF     		.align	2
 25440              		.global	TIM_SelectOnePulseMode
 25441              		.thumb
 25442              		.thumb_func
 25444              	TIM_SelectOnePulseMode:
 25445              	.LFB122:
 539:../Libraries/STM32F4xx_StdPeriph_Driver/src/stm32f4xx_tim.c **** 
 540:../Libraries/STM32F4xx_StdPeriph_Driver/src/stm32f4xx_tim.c **** /**
 541:../Libraries/STM32F4xx_StdPeriph_Driver/src/stm32f4xx_tim.c ****   * @brief  Selects the TIMx's One Pulse Mode.
 542:../Libraries/STM32F4xx_StdPeriph_Driver/src/stm32f4xx_tim.c ****   * @param  TIMx: where x can be 1 to 14 to select the TIM peripheral.
 543:../Libraries/STM32F4xx_StdPeriph_Driver/src/stm32f4xx_tim.c ****   * @param  TIM_OPMode: specifies the OPM Mode to be used.
 544:../Libraries/STM32F4xx_StdPeriph_Driver/src/stm32f4xx_tim.c ****   *          This parameter can be one of the following values:
 545:../Libraries/STM32F4xx_StdPeriph_Driver/src/stm32f4xx_tim.c ****   *            @arg TIM_OPMode_Single
 546:../Libraries/STM32F4xx_StdPeriph_Driver/src/stm32f4xx_tim.c ****   *            @arg TIM_OPMode_Repetitive
 547:../Libraries/STM32F4xx_StdPeriph_Driver/src/stm32f4xx_tim.c ****   * @retval None
 548:../Libraries/STM32F4xx_StdPeriph_Driver/src/stm32f4xx_tim.c ****   */
 549:../Libraries/STM32F4xx_StdPeriph_Driver/src/stm32f4xx_tim.c **** void TIM_SelectOnePulseMode(TIM_TypeDef* TIMx, uint16_t TIM_OPMode)
 550:../Libraries/STM32F4xx_StdPeriph_Driver/src/stm32f4xx_tim.c **** {
 25446              		.loc 1 550 0
 25447              		.cfi_startproc
 25448              		@ args = 0, pretend = 0, frame = 8
 25449              		@ frame_needed = 1, uses_anonymous_args = 0
 25450              		@ link register save eliminated.
 25451 04c8 80B4     		push	{r7}
 25452              	.LCFI36:
 25453              		.cfi_def_cfa_offset 4
 25454 04ca 83B0     		sub	sp, sp, #12
 25455              	.LCFI37:
 25456              		.cfi_def_cfa_offset 16
 25457 04cc 00AF     		add	r7, sp, #0
 25458              		.cfi_offset 7, -4
 25459              	.LCFI38:
 25460              		.cfi_def_cfa_register 7
 25461 04ce 7860     		str	r0, [r7, #4]
 25462 04d0 0B46     		mov	r3, r1
 25463 04d2 7B80     		strh	r3, [r7, #2]	@ movhi
 551:../Libraries/STM32F4xx_StdPeriph_Driver/src/stm32f4xx_tim.c ****   /* Check the parameters */
 552:../Libraries/STM32F4xx_StdPeriph_Driver/src/stm32f4xx_tim.c ****   assert_param(IS_TIM_ALL_PERIPH(TIMx));
 553:../Libraries/STM32F4xx_StdPeriph_Driver/src/stm32f4xx_tim.c ****   assert_param(IS_TIM_OPM_MODE(TIM_OPMode));
 554:../Libraries/STM32F4xx_StdPeriph_Driver/src/stm32f4xx_tim.c **** 
 555:../Libraries/STM32F4xx_StdPeriph_Driver/src/stm32f4xx_tim.c ****   /* Reset the OPM Bit */
 556:../Libraries/STM32F4xx_StdPeriph_Driver/src/stm32f4xx_tim.c ****   TIMx->CR1 &= (uint16_t)~TIM_CR1_OPM;
 25464              		.loc 1 556 0
 25465 04d4 7B68     		ldr	r3, [r7, #4]
 25466 04d6 1B88     		ldrh	r3, [r3, #0]	@ movhi
 25467 04d8 9BB2     		uxth	r3, r3
 25468 04da 23F00803 		bic	r3, r3, #8
 25469 04de 9AB2     		uxth	r2, r3
 25470 04e0 7B68     		ldr	r3, [r7, #4]
 25471 04e2 1A80     		strh	r2, [r3, #0]	@ movhi
 557:../Libraries/STM32F4xx_StdPeriph_Driver/src/stm32f4xx_tim.c **** 
 558:../Libraries/STM32F4xx_StdPeriph_Driver/src/stm32f4xx_tim.c ****   /* Configure the OPM Mode */
 559:../Libraries/STM32F4xx_StdPeriph_Driver/src/stm32f4xx_tim.c ****   TIMx->CR1 |= TIM_OPMode;
 25472              		.loc 1 559 0
 25473 04e4 7B68     		ldr	r3, [r7, #4]
 25474 04e6 1B88     		ldrh	r3, [r3, #0]	@ movhi
 25475 04e8 9AB2     		uxth	r2, r3
 25476 04ea 7B88     		ldrh	r3, [r7, #2]	@ movhi
 25477 04ec 42EA0303 		orr	r3, r2, r3
 25478 04f0 9AB2     		uxth	r2, r3
 25479 04f2 7B68     		ldr	r3, [r7, #4]
 25480 04f4 1A80     		strh	r2, [r3, #0]	@ movhi
 560:../Libraries/STM32F4xx_StdPeriph_Driver/src/stm32f4xx_tim.c **** }
 25481              		.loc 1 560 0
 25482 04f6 07F10C07 		add	r7, r7, #12
 25483 04fa BD46     		mov	sp, r7
 25484 04fc 80BC     		pop	{r7}
 25485 04fe 7047     		bx	lr
 25486              		.cfi_endproc
 25487              	.LFE122:
 25489              		.align	2
 25490              		.global	TIM_SetClockDivision
 25491              		.thumb
 25492              		.thumb_func
 25494              	TIM_SetClockDivision:
 25495              	.LFB123:
 561:../Libraries/STM32F4xx_StdPeriph_Driver/src/stm32f4xx_tim.c **** 
 562:../Libraries/STM32F4xx_StdPeriph_Driver/src/stm32f4xx_tim.c **** /**
 563:../Libraries/STM32F4xx_StdPeriph_Driver/src/stm32f4xx_tim.c ****   * @brief  Sets the TIMx Clock Division value.
 564:../Libraries/STM32F4xx_StdPeriph_Driver/src/stm32f4xx_tim.c ****   * @param  TIMx: where x can be 1 to 14 except 6 and 7, to select the TIM peripheral.
 565:../Libraries/STM32F4xx_StdPeriph_Driver/src/stm32f4xx_tim.c ****   * @param  TIM_CKD: specifies the clock division value.
 566:../Libraries/STM32F4xx_StdPeriph_Driver/src/stm32f4xx_tim.c ****   *          This parameter can be one of the following value:
 567:../Libraries/STM32F4xx_StdPeriph_Driver/src/stm32f4xx_tim.c ****   *            @arg TIM_CKD_DIV1: TDTS = Tck_tim
 568:../Libraries/STM32F4xx_StdPeriph_Driver/src/stm32f4xx_tim.c ****   *            @arg TIM_CKD_DIV2: TDTS = 2*Tck_tim
 569:../Libraries/STM32F4xx_StdPeriph_Driver/src/stm32f4xx_tim.c ****   *            @arg TIM_CKD_DIV4: TDTS = 4*Tck_tim
 570:../Libraries/STM32F4xx_StdPeriph_Driver/src/stm32f4xx_tim.c ****   * @retval None
 571:../Libraries/STM32F4xx_StdPeriph_Driver/src/stm32f4xx_tim.c ****   */
 572:../Libraries/STM32F4xx_StdPeriph_Driver/src/stm32f4xx_tim.c **** void TIM_SetClockDivision(TIM_TypeDef* TIMx, uint16_t TIM_CKD)
 573:../Libraries/STM32F4xx_StdPeriph_Driver/src/stm32f4xx_tim.c **** {
 25496              		.loc 1 573 0
 25497              		.cfi_startproc
 25498              		@ args = 0, pretend = 0, frame = 8
 25499              		@ frame_needed = 1, uses_anonymous_args = 0
 25500              		@ link register save eliminated.
 25501 0500 80B4     		push	{r7}
 25502              	.LCFI39:
 25503              		.cfi_def_cfa_offset 4
 25504 0502 83B0     		sub	sp, sp, #12
 25505              	.LCFI40:
 25506              		.cfi_def_cfa_offset 16
 25507 0504 00AF     		add	r7, sp, #0
 25508              		.cfi_offset 7, -4
 25509              	.LCFI41:
 25510              		.cfi_def_cfa_register 7
 25511 0506 7860     		str	r0, [r7, #4]
 25512 0508 0B46     		mov	r3, r1
 25513 050a 7B80     		strh	r3, [r7, #2]	@ movhi
 574:../Libraries/STM32F4xx_StdPeriph_Driver/src/stm32f4xx_tim.c ****   /* Check the parameters */
 575:../Libraries/STM32F4xx_StdPeriph_Driver/src/stm32f4xx_tim.c ****   assert_param(IS_TIM_LIST1_PERIPH(TIMx));
 576:../Libraries/STM32F4xx_StdPeriph_Driver/src/stm32f4xx_tim.c ****   assert_param(IS_TIM_CKD_DIV(TIM_CKD));
 577:../Libraries/STM32F4xx_StdPeriph_Driver/src/stm32f4xx_tim.c **** 
 578:../Libraries/STM32F4xx_StdPeriph_Driver/src/stm32f4xx_tim.c ****   /* Reset the CKD Bits */
 579:../Libraries/STM32F4xx_StdPeriph_Driver/src/stm32f4xx_tim.c ****   TIMx->CR1 &= (uint16_t)(~TIM_CR1_CKD);
 25514              		.loc 1 579 0
 25515 050c 7B68     		ldr	r3, [r7, #4]
 25516 050e 1B88     		ldrh	r3, [r3, #0]	@ movhi
 25517 0510 9BB2     		uxth	r3, r3
 25518 0512 23F44073 		bic	r3, r3, #768
 25519 0516 9AB2     		uxth	r2, r3
 25520 0518 7B68     		ldr	r3, [r7, #4]
 25521 051a 1A80     		strh	r2, [r3, #0]	@ movhi
 580:../Libraries/STM32F4xx_StdPeriph_Driver/src/stm32f4xx_tim.c **** 
 581:../Libraries/STM32F4xx_StdPeriph_Driver/src/stm32f4xx_tim.c ****   /* Set the CKD value */
 582:../Libraries/STM32F4xx_StdPeriph_Driver/src/stm32f4xx_tim.c ****   TIMx->CR1 |= TIM_CKD;
 25522              		.loc 1 582 0
 25523 051c 7B68     		ldr	r3, [r7, #4]
 25524 051e 1B88     		ldrh	r3, [r3, #0]	@ movhi
 25525 0520 9AB2     		uxth	r2, r3
 25526 0522 7B88     		ldrh	r3, [r7, #2]	@ movhi
 25527 0524 42EA0303 		orr	r3, r2, r3
 25528 0528 9AB2     		uxth	r2, r3
 25529 052a 7B68     		ldr	r3, [r7, #4]
 25530 052c 1A80     		strh	r2, [r3, #0]	@ movhi
 583:../Libraries/STM32F4xx_StdPeriph_Driver/src/stm32f4xx_tim.c **** }
 25531              		.loc 1 583 0
 25532 052e 07F10C07 		add	r7, r7, #12
 25533 0532 BD46     		mov	sp, r7
 25534 0534 80BC     		pop	{r7}
 25535 0536 7047     		bx	lr
 25536              		.cfi_endproc
 25537              	.LFE123:
 25539              		.align	2
 25540              		.global	TIM_Cmd
 25541              		.thumb
 25542              		.thumb_func
 25544              	TIM_Cmd:
 25545              	.LFB124:
 584:../Libraries/STM32F4xx_StdPeriph_Driver/src/stm32f4xx_tim.c **** 
 585:../Libraries/STM32F4xx_StdPeriph_Driver/src/stm32f4xx_tim.c **** /**
 586:../Libraries/STM32F4xx_StdPeriph_Driver/src/stm32f4xx_tim.c ****   * @brief  Enables or disables the specified TIM peripheral.
 587:../Libraries/STM32F4xx_StdPeriph_Driver/src/stm32f4xx_tim.c ****   * @param  TIMx: where x can be 1 to 14 to select the TIMx peripheral.
 588:../Libraries/STM32F4xx_StdPeriph_Driver/src/stm32f4xx_tim.c ****   * @param  NewState: new state of the TIMx peripheral.
 589:../Libraries/STM32F4xx_StdPeriph_Driver/src/stm32f4xx_tim.c ****   *          This parameter can be: ENABLE or DISABLE.
 590:../Libraries/STM32F4xx_StdPeriph_Driver/src/stm32f4xx_tim.c ****   * @retval None
 591:../Libraries/STM32F4xx_StdPeriph_Driver/src/stm32f4xx_tim.c ****   */
 592:../Libraries/STM32F4xx_StdPeriph_Driver/src/stm32f4xx_tim.c **** void TIM_Cmd(TIM_TypeDef* TIMx, FunctionalState NewState)
 593:../Libraries/STM32F4xx_StdPeriph_Driver/src/stm32f4xx_tim.c **** {
 25546              		.loc 1 593 0
 25547              		.cfi_startproc
 25548              		@ args = 0, pretend = 0, frame = 8
 25549              		@ frame_needed = 1, uses_anonymous_args = 0
 25550              		@ link register save eliminated.
 25551 0538 80B4     		push	{r7}
 25552              	.LCFI42:
 25553              		.cfi_def_cfa_offset 4
 25554 053a 83B0     		sub	sp, sp, #12
 25555              	.LCFI43:
 25556              		.cfi_def_cfa_offset 16
 25557 053c 00AF     		add	r7, sp, #0
 25558              		.cfi_offset 7, -4
 25559              	.LCFI44:
 25560              		.cfi_def_cfa_register 7
 25561 053e 7860     		str	r0, [r7, #4]
 25562 0540 0B46     		mov	r3, r1
 25563 0542 FB70     		strb	r3, [r7, #3]
 594:../Libraries/STM32F4xx_StdPeriph_Driver/src/stm32f4xx_tim.c ****   /* Check the parameters */
 595:../Libraries/STM32F4xx_StdPeriph_Driver/src/stm32f4xx_tim.c ****   assert_param(IS_TIM_ALL_PERIPH(TIMx)); 
 596:../Libraries/STM32F4xx_StdPeriph_Driver/src/stm32f4xx_tim.c ****   assert_param(IS_FUNCTIONAL_STATE(NewState));
 597:../Libraries/STM32F4xx_StdPeriph_Driver/src/stm32f4xx_tim.c ****   
 598:../Libraries/STM32F4xx_StdPeriph_Driver/src/stm32f4xx_tim.c ****   if (NewState != DISABLE)
 25564              		.loc 1 598 0
 25565 0544 FB78     		ldrb	r3, [r7, #3]	@ zero_extendqisi2
 25566 0546 002B     		cmp	r3, #0
 25567 0548 08D0     		beq	.L45
 599:../Libraries/STM32F4xx_StdPeriph_Driver/src/stm32f4xx_tim.c ****   {
 600:../Libraries/STM32F4xx_StdPeriph_Driver/src/stm32f4xx_tim.c ****     /* Enable the TIM Counter */
 601:../Libraries/STM32F4xx_StdPeriph_Driver/src/stm32f4xx_tim.c ****     TIMx->CR1 |= TIM_CR1_CEN;
 25568              		.loc 1 601 0
 25569 054a 7B68     		ldr	r3, [r7, #4]
 25570 054c 1B88     		ldrh	r3, [r3, #0]	@ movhi
 25571 054e 9BB2     		uxth	r3, r3
 25572 0550 43F00103 		orr	r3, r3, #1
 25573 0554 9AB2     		uxth	r2, r3
 25574 0556 7B68     		ldr	r3, [r7, #4]
 25575 0558 1A80     		strh	r2, [r3, #0]	@ movhi
 25576 055a 07E0     		b	.L44
 25577              	.L45:
 602:../Libraries/STM32F4xx_StdPeriph_Driver/src/stm32f4xx_tim.c ****   }
 603:../Libraries/STM32F4xx_StdPeriph_Driver/src/stm32f4xx_tim.c ****   else
 604:../Libraries/STM32F4xx_StdPeriph_Driver/src/stm32f4xx_tim.c ****   {
 605:../Libraries/STM32F4xx_StdPeriph_Driver/src/stm32f4xx_tim.c ****     /* Disable the TIM Counter */
 606:../Libraries/STM32F4xx_StdPeriph_Driver/src/stm32f4xx_tim.c ****     TIMx->CR1 &= (uint16_t)~TIM_CR1_CEN;
 25578              		.loc 1 606 0
 25579 055c 7B68     		ldr	r3, [r7, #4]
 25580 055e 1B88     		ldrh	r3, [r3, #0]	@ movhi
 25581 0560 9BB2     		uxth	r3, r3
 25582 0562 23F00103 		bic	r3, r3, #1
 25583 0566 9AB2     		uxth	r2, r3
 25584 0568 7B68     		ldr	r3, [r7, #4]
 25585 056a 1A80     		strh	r2, [r3, #0]	@ movhi
 25586              	.L44:
 607:../Libraries/STM32F4xx_StdPeriph_Driver/src/stm32f4xx_tim.c ****   }
 608:../Libraries/STM32F4xx_StdPeriph_Driver/src/stm32f4xx_tim.c **** }
 25587              		.loc 1 608 0
 25588 056c 07F10C07 		add	r7, r7, #12
 25589 0570 BD46     		mov	sp, r7
 25590 0572 80BC     		pop	{r7}
 25591 0574 7047     		bx	lr
 25592              		.cfi_endproc
 25593              	.LFE124:
 25595 0576 00BF     		.align	2
 25596              		.global	TIM_OC1Init
 25597              		.thumb
 25598              		.thumb_func
 25600              	TIM_OC1Init:
 25601              	.LFB125:
 609:../Libraries/STM32F4xx_StdPeriph_Driver/src/stm32f4xx_tim.c **** /**
 610:../Libraries/STM32F4xx_StdPeriph_Driver/src/stm32f4xx_tim.c ****   * @}
 611:../Libraries/STM32F4xx_StdPeriph_Driver/src/stm32f4xx_tim.c ****   */
 612:../Libraries/STM32F4xx_StdPeriph_Driver/src/stm32f4xx_tim.c **** 
 613:../Libraries/STM32F4xx_StdPeriph_Driver/src/stm32f4xx_tim.c **** /** @defgroup TIM_Group2 Output Compare management functions
 614:../Libraries/STM32F4xx_StdPeriph_Driver/src/stm32f4xx_tim.c ****  *  @brief    Output Compare management functions 
 615:../Libraries/STM32F4xx_StdPeriph_Driver/src/stm32f4xx_tim.c ****  *
 616:../Libraries/STM32F4xx_StdPeriph_Driver/src/stm32f4xx_tim.c **** @verbatim   
 617:../Libraries/STM32F4xx_StdPeriph_Driver/src/stm32f4xx_tim.c ****  ===============================================================================
 618:../Libraries/STM32F4xx_StdPeriph_Driver/src/stm32f4xx_tim.c ****                         Output Compare management functions
 619:../Libraries/STM32F4xx_StdPeriph_Driver/src/stm32f4xx_tim.c ****  ===============================================================================  
 620:../Libraries/STM32F4xx_StdPeriph_Driver/src/stm32f4xx_tim.c ****    
 621:../Libraries/STM32F4xx_StdPeriph_Driver/src/stm32f4xx_tim.c ****        ===================================================================      
 622:../Libraries/STM32F4xx_StdPeriph_Driver/src/stm32f4xx_tim.c ****               TIM Driver: how to use it in Output Compare Mode
 623:../Libraries/STM32F4xx_StdPeriph_Driver/src/stm32f4xx_tim.c ****        =================================================================== 
 624:../Libraries/STM32F4xx_StdPeriph_Driver/src/stm32f4xx_tim.c ****        To use the Timer in Output Compare mode, the following steps are mandatory:
 625:../Libraries/STM32F4xx_StdPeriph_Driver/src/stm32f4xx_tim.c ****        
 626:../Libraries/STM32F4xx_StdPeriph_Driver/src/stm32f4xx_tim.c ****        1. Enable TIM clock using RCC_APBxPeriphClockCmd(RCC_APBxPeriph_TIMx, ENABLE) function
 627:../Libraries/STM32F4xx_StdPeriph_Driver/src/stm32f4xx_tim.c ****        
 628:../Libraries/STM32F4xx_StdPeriph_Driver/src/stm32f4xx_tim.c ****        2. Configure the TIM pins by configuring the corresponding GPIO pins
 629:../Libraries/STM32F4xx_StdPeriph_Driver/src/stm32f4xx_tim.c ****        
 630:../Libraries/STM32F4xx_StdPeriph_Driver/src/stm32f4xx_tim.c ****        2. Configure the Time base unit as described in the first part of this driver, 
 631:../Libraries/STM32F4xx_StdPeriph_Driver/src/stm32f4xx_tim.c ****           if needed, else the Timer will run with the default configuration:
 632:../Libraries/STM32F4xx_StdPeriph_Driver/src/stm32f4xx_tim.c ****           - Autoreload value = 0xFFFF
 633:../Libraries/STM32F4xx_StdPeriph_Driver/src/stm32f4xx_tim.c ****           - Prescaler value = 0x0000
 634:../Libraries/STM32F4xx_StdPeriph_Driver/src/stm32f4xx_tim.c ****           - Counter mode = Up counting
 635:../Libraries/STM32F4xx_StdPeriph_Driver/src/stm32f4xx_tim.c ****           - Clock Division = TIM_CKD_DIV1
 636:../Libraries/STM32F4xx_StdPeriph_Driver/src/stm32f4xx_tim.c ****           
 637:../Libraries/STM32F4xx_StdPeriph_Driver/src/stm32f4xx_tim.c ****        3. Fill the TIM_OCInitStruct with the desired parameters including:
 638:../Libraries/STM32F4xx_StdPeriph_Driver/src/stm32f4xx_tim.c ****           - The TIM Output Compare mode: TIM_OCMode
 639:../Libraries/STM32F4xx_StdPeriph_Driver/src/stm32f4xx_tim.c ****           - TIM Output State: TIM_OutputState
 640:../Libraries/STM32F4xx_StdPeriph_Driver/src/stm32f4xx_tim.c ****           - TIM Pulse value: TIM_Pulse
 641:../Libraries/STM32F4xx_StdPeriph_Driver/src/stm32f4xx_tim.c ****           - TIM Output Compare Polarity : TIM_OCPolarity
 642:../Libraries/STM32F4xx_StdPeriph_Driver/src/stm32f4xx_tim.c ****        
 643:../Libraries/STM32F4xx_StdPeriph_Driver/src/stm32f4xx_tim.c ****        4. Call TIM_OCxInit(TIMx, &TIM_OCInitStruct) to configure the desired channel with the 
 644:../Libraries/STM32F4xx_StdPeriph_Driver/src/stm32f4xx_tim.c ****           corresponding configuration
 645:../Libraries/STM32F4xx_StdPeriph_Driver/src/stm32f4xx_tim.c ****        
 646:../Libraries/STM32F4xx_StdPeriph_Driver/src/stm32f4xx_tim.c ****        5. Call the TIM_Cmd(ENABLE) function to enable the TIM counter.
 647:../Libraries/STM32F4xx_StdPeriph_Driver/src/stm32f4xx_tim.c ****        
 648:../Libraries/STM32F4xx_StdPeriph_Driver/src/stm32f4xx_tim.c ****        Note1: All other functions can be used separately to modify, if needed,
 649:../Libraries/STM32F4xx_StdPeriph_Driver/src/stm32f4xx_tim.c ****               a specific feature of the Timer. 
 650:../Libraries/STM32F4xx_StdPeriph_Driver/src/stm32f4xx_tim.c ****           
 651:../Libraries/STM32F4xx_StdPeriph_Driver/src/stm32f4xx_tim.c ****        Note2: In case of PWM mode, this function is mandatory:
 652:../Libraries/STM32F4xx_StdPeriph_Driver/src/stm32f4xx_tim.c ****               TIM_OCxPreloadConfig(TIMx, TIM_OCPreload_ENABLE); 
 653:../Libraries/STM32F4xx_StdPeriph_Driver/src/stm32f4xx_tim.c ****               
 654:../Libraries/STM32F4xx_StdPeriph_Driver/src/stm32f4xx_tim.c ****        Note3: If the corresponding interrupt or DMA request are needed, the user should:
 655:../Libraries/STM32F4xx_StdPeriph_Driver/src/stm32f4xx_tim.c ****                 1. Enable the NVIC (or the DMA) to use the TIM interrupts (or DMA requests). 
 656:../Libraries/STM32F4xx_StdPeriph_Driver/src/stm32f4xx_tim.c ****                 2. Enable the corresponding interrupt (or DMA request) using the function 
 657:../Libraries/STM32F4xx_StdPeriph_Driver/src/stm32f4xx_tim.c ****                    TIM_ITConfig(TIMx, TIM_IT_CCx) (or TIM_DMA_Cmd(TIMx, TIM_DMA_CCx))   
 658:../Libraries/STM32F4xx_StdPeriph_Driver/src/stm32f4xx_tim.c **** 
 659:../Libraries/STM32F4xx_StdPeriph_Driver/src/stm32f4xx_tim.c **** @endverbatim
 660:../Libraries/STM32F4xx_StdPeriph_Driver/src/stm32f4xx_tim.c ****   * @{
 661:../Libraries/STM32F4xx_StdPeriph_Driver/src/stm32f4xx_tim.c ****   */
 662:../Libraries/STM32F4xx_StdPeriph_Driver/src/stm32f4xx_tim.c **** 
 663:../Libraries/STM32F4xx_StdPeriph_Driver/src/stm32f4xx_tim.c **** /**
 664:../Libraries/STM32F4xx_StdPeriph_Driver/src/stm32f4xx_tim.c ****   * @brief  Initializes the TIMx Channel1 according to the specified parameters in
 665:../Libraries/STM32F4xx_StdPeriph_Driver/src/stm32f4xx_tim.c ****   *         the TIM_OCInitStruct.
 666:../Libraries/STM32F4xx_StdPeriph_Driver/src/stm32f4xx_tim.c ****   * @param  TIMx: where x can be 1 to 14 except 6 and 7, to select the TIM peripheral.
 667:../Libraries/STM32F4xx_StdPeriph_Driver/src/stm32f4xx_tim.c ****   * @param  TIM_OCInitStruct: pointer to a TIM_OCInitTypeDef structure that contains
 668:../Libraries/STM32F4xx_StdPeriph_Driver/src/stm32f4xx_tim.c ****   *         the configuration information for the specified TIM peripheral.
 669:../Libraries/STM32F4xx_StdPeriph_Driver/src/stm32f4xx_tim.c ****   * @retval None
 670:../Libraries/STM32F4xx_StdPeriph_Driver/src/stm32f4xx_tim.c ****   */
 671:../Libraries/STM32F4xx_StdPeriph_Driver/src/stm32f4xx_tim.c **** void TIM_OC1Init(TIM_TypeDef* TIMx, TIM_OCInitTypeDef* TIM_OCInitStruct)
 672:../Libraries/STM32F4xx_StdPeriph_Driver/src/stm32f4xx_tim.c **** {
 25602              		.loc 1 672 0
 25603              		.cfi_startproc
 25604              		@ args = 0, pretend = 0, frame = 16
 25605              		@ frame_needed = 1, uses_anonymous_args = 0
 25606              		@ link register save eliminated.
 25607 0578 80B4     		push	{r7}
 25608              	.LCFI45:
 25609              		.cfi_def_cfa_offset 4
 25610 057a 85B0     		sub	sp, sp, #20
 25611              	.LCFI46:
 25612              		.cfi_def_cfa_offset 24
 25613 057c 00AF     		add	r7, sp, #0
 25614              		.cfi_offset 7, -4
 25615              	.LCFI47:
 25616              		.cfi_def_cfa_register 7
 25617 057e 7860     		str	r0, [r7, #4]
 25618 0580 3960     		str	r1, [r7, #0]
 673:../Libraries/STM32F4xx_StdPeriph_Driver/src/stm32f4xx_tim.c ****   uint16_t tmpccmrx = 0, tmpccer = 0, tmpcr2 = 0;
 25619              		.loc 1 673 0
 25620 0582 4FF00003 		mov	r3, #0
 25621 0586 7B81     		strh	r3, [r7, #10]	@ movhi
 25622 0588 4FF00003 		mov	r3, #0
 25623 058c FB81     		strh	r3, [r7, #14]	@ movhi
 25624 058e 4FF00003 		mov	r3, #0
 25625 0592 BB81     		strh	r3, [r7, #12]	@ movhi
 674:../Libraries/STM32F4xx_StdPeriph_Driver/src/stm32f4xx_tim.c ****    
 675:../Libraries/STM32F4xx_StdPeriph_Driver/src/stm32f4xx_tim.c ****   /* Check the parameters */
 676:../Libraries/STM32F4xx_StdPeriph_Driver/src/stm32f4xx_tim.c ****   assert_param(IS_TIM_LIST1_PERIPH(TIMx)); 
 677:../Libraries/STM32F4xx_StdPeriph_Driver/src/stm32f4xx_tim.c ****   assert_param(IS_TIM_OC_MODE(TIM_OCInitStruct->TIM_OCMode));
 678:../Libraries/STM32F4xx_StdPeriph_Driver/src/stm32f4xx_tim.c ****   assert_param(IS_TIM_OUTPUT_STATE(TIM_OCInitStruct->TIM_OutputState));
 679:../Libraries/STM32F4xx_StdPeriph_Driver/src/stm32f4xx_tim.c ****   assert_param(IS_TIM_OC_POLARITY(TIM_OCInitStruct->TIM_OCPolarity));   
 680:../Libraries/STM32F4xx_StdPeriph_Driver/src/stm32f4xx_tim.c **** 
 681:../Libraries/STM32F4xx_StdPeriph_Driver/src/stm32f4xx_tim.c ****   /* Disable the Channel 1: Reset the CC1E Bit */
 682:../Libraries/STM32F4xx_StdPeriph_Driver/src/stm32f4xx_tim.c ****   TIMx->CCER &= (uint16_t)~TIM_CCER_CC1E;
 25626              		.loc 1 682 0
 25627 0594 7B68     		ldr	r3, [r7, #4]
 25628 0596 1B8C     		ldrh	r3, [r3, #32]	@ movhi
 25629 0598 9BB2     		uxth	r3, r3
 25630 059a 23F00103 		bic	r3, r3, #1
 25631 059e 9AB2     		uxth	r2, r3
 25632 05a0 7B68     		ldr	r3, [r7, #4]
 25633 05a2 1A84     		strh	r2, [r3, #32]	@ movhi
 683:../Libraries/STM32F4xx_StdPeriph_Driver/src/stm32f4xx_tim.c ****   
 684:../Libraries/STM32F4xx_StdPeriph_Driver/src/stm32f4xx_tim.c ****   /* Get the TIMx CCER register value */
 685:../Libraries/STM32F4xx_StdPeriph_Driver/src/stm32f4xx_tim.c ****   tmpccer = TIMx->CCER;
 25634              		.loc 1 685 0
 25635 05a4 7B68     		ldr	r3, [r7, #4]
 25636 05a6 1B8C     		ldrh	r3, [r3, #32]	@ movhi
 25637 05a8 FB81     		strh	r3, [r7, #14]	@ movhi
 686:../Libraries/STM32F4xx_StdPeriph_Driver/src/stm32f4xx_tim.c ****   /* Get the TIMx CR2 register value */
 687:../Libraries/STM32F4xx_StdPeriph_Driver/src/stm32f4xx_tim.c ****   tmpcr2 =  TIMx->CR2;
 25638              		.loc 1 687 0
 25639 05aa 7B68     		ldr	r3, [r7, #4]
 25640 05ac 9B88     		ldrh	r3, [r3, #4]	@ movhi
 25641 05ae BB81     		strh	r3, [r7, #12]	@ movhi
 688:../Libraries/STM32F4xx_StdPeriph_Driver/src/stm32f4xx_tim.c ****   
 689:../Libraries/STM32F4xx_StdPeriph_Driver/src/stm32f4xx_tim.c ****   /* Get the TIMx CCMR1 register value */
 690:../Libraries/STM32F4xx_StdPeriph_Driver/src/stm32f4xx_tim.c ****   tmpccmrx = TIMx->CCMR1;
 25642              		.loc 1 690 0
 25643 05b0 7B68     		ldr	r3, [r7, #4]
 25644 05b2 1B8B     		ldrh	r3, [r3, #24]	@ movhi
 25645 05b4 7B81     		strh	r3, [r7, #10]	@ movhi
 691:../Libraries/STM32F4xx_StdPeriph_Driver/src/stm32f4xx_tim.c ****     
 692:../Libraries/STM32F4xx_StdPeriph_Driver/src/stm32f4xx_tim.c ****   /* Reset the Output Compare Mode Bits */
 693:../Libraries/STM32F4xx_StdPeriph_Driver/src/stm32f4xx_tim.c ****   tmpccmrx &= (uint16_t)~TIM_CCMR1_OC1M;
 25646              		.loc 1 693 0
 25647 05b6 7B89     		ldrh	r3, [r7, #10]	@ movhi
 25648 05b8 23F07003 		bic	r3, r3, #112
 25649 05bc 7B81     		strh	r3, [r7, #10]	@ movhi
 694:../Libraries/STM32F4xx_StdPeriph_Driver/src/stm32f4xx_tim.c ****   tmpccmrx &= (uint16_t)~TIM_CCMR1_CC1S;
 25650              		.loc 1 694 0
 25651 05be 7B89     		ldrh	r3, [r7, #10]	@ movhi
 25652 05c0 23F00303 		bic	r3, r3, #3
 25653 05c4 7B81     		strh	r3, [r7, #10]	@ movhi
 695:../Libraries/STM32F4xx_StdPeriph_Driver/src/stm32f4xx_tim.c ****   /* Select the Output Compare Mode */
 696:../Libraries/STM32F4xx_StdPeriph_Driver/src/stm32f4xx_tim.c ****   tmpccmrx |= TIM_OCInitStruct->TIM_OCMode;
 25654              		.loc 1 696 0
 25655 05c6 3B68     		ldr	r3, [r7, #0]
 25656 05c8 1A88     		ldrh	r2, [r3, #0]
 25657 05ca 7B89     		ldrh	r3, [r7, #10]	@ movhi
 25658 05cc 42EA0303 		orr	r3, r2, r3
 25659 05d0 7B81     		strh	r3, [r7, #10]	@ movhi
 697:../Libraries/STM32F4xx_StdPeriph_Driver/src/stm32f4xx_tim.c ****   
 698:../Libraries/STM32F4xx_StdPeriph_Driver/src/stm32f4xx_tim.c ****   /* Reset the Output Polarity level */
 699:../Libraries/STM32F4xx_StdPeriph_Driver/src/stm32f4xx_tim.c ****   tmpccer &= (uint16_t)~TIM_CCER_CC1P;
 25660              		.loc 1 699 0
 25661 05d2 FB89     		ldrh	r3, [r7, #14]	@ movhi
 25662 05d4 23F00203 		bic	r3, r3, #2
 25663 05d8 FB81     		strh	r3, [r7, #14]	@ movhi
 700:../Libraries/STM32F4xx_StdPeriph_Driver/src/stm32f4xx_tim.c ****   /* Set the Output Compare Polarity */
 701:../Libraries/STM32F4xx_StdPeriph_Driver/src/stm32f4xx_tim.c ****   tmpccer |= TIM_OCInitStruct->TIM_OCPolarity;
 25664              		.loc 1 701 0
 25665 05da 3B68     		ldr	r3, [r7, #0]
 25666 05dc 9A89     		ldrh	r2, [r3, #12]
 25667 05de FB89     		ldrh	r3, [r7, #14]	@ movhi
 25668 05e0 42EA0303 		orr	r3, r2, r3
 25669 05e4 FB81     		strh	r3, [r7, #14]	@ movhi
 702:../Libraries/STM32F4xx_StdPeriph_Driver/src/stm32f4xx_tim.c ****   
 703:../Libraries/STM32F4xx_StdPeriph_Driver/src/stm32f4xx_tim.c ****   /* Set the Output State */
 704:../Libraries/STM32F4xx_StdPeriph_Driver/src/stm32f4xx_tim.c ****   tmpccer |= TIM_OCInitStruct->TIM_OutputState;
 25670              		.loc 1 704 0
 25671 05e6 3B68     		ldr	r3, [r7, #0]
 25672 05e8 5A88     		ldrh	r2, [r3, #2]
 25673 05ea FB89     		ldrh	r3, [r7, #14]	@ movhi
 25674 05ec 42EA0303 		orr	r3, r2, r3
 25675 05f0 FB81     		strh	r3, [r7, #14]	@ movhi
 705:../Libraries/STM32F4xx_StdPeriph_Driver/src/stm32f4xx_tim.c ****     
 706:../Libraries/STM32F4xx_StdPeriph_Driver/src/stm32f4xx_tim.c ****   if((TIMx == TIM1) || (TIMx == TIM8))
 25676              		.loc 1 706 0
 25677 05f2 7A68     		ldr	r2, [r7, #4]
 25678 05f4 204B     		ldr	r3, .L50
 25679 05f6 9A42     		cmp	r2, r3
 25680 05f8 03D0     		beq	.L48
 25681              		.loc 1 706 0 is_stmt 0 discriminator 1
 25682 05fa 7A68     		ldr	r2, [r7, #4]
 25683 05fc 1F4B     		ldr	r3, .L50+4
 25684 05fe 9A42     		cmp	r2, r3
 25685 0600 27D1     		bne	.L49
 25686              	.L48:
 707:../Libraries/STM32F4xx_StdPeriph_Driver/src/stm32f4xx_tim.c ****   {
 708:../Libraries/STM32F4xx_StdPeriph_Driver/src/stm32f4xx_tim.c ****     assert_param(IS_TIM_OUTPUTN_STATE(TIM_OCInitStruct->TIM_OutputNState));
 709:../Libraries/STM32F4xx_StdPeriph_Driver/src/stm32f4xx_tim.c ****     assert_param(IS_TIM_OCN_POLARITY(TIM_OCInitStruct->TIM_OCNPolarity));
 710:../Libraries/STM32F4xx_StdPeriph_Driver/src/stm32f4xx_tim.c ****     assert_param(IS_TIM_OCNIDLE_STATE(TIM_OCInitStruct->TIM_OCNIdleState));
 711:../Libraries/STM32F4xx_StdPeriph_Driver/src/stm32f4xx_tim.c ****     assert_param(IS_TIM_OCIDLE_STATE(TIM_OCInitStruct->TIM_OCIdleState));
 712:../Libraries/STM32F4xx_StdPeriph_Driver/src/stm32f4xx_tim.c ****     
 713:../Libraries/STM32F4xx_StdPeriph_Driver/src/stm32f4xx_tim.c ****     /* Reset the Output N Polarity level */
 714:../Libraries/STM32F4xx_StdPeriph_Driver/src/stm32f4xx_tim.c ****     tmpccer &= (uint16_t)~TIM_CCER_CC1NP;
 25687              		.loc 1 714 0 is_stmt 1
 25688 0602 FB89     		ldrh	r3, [r7, #14]	@ movhi
 25689 0604 23F00803 		bic	r3, r3, #8
 25690 0608 FB81     		strh	r3, [r7, #14]	@ movhi
 715:../Libraries/STM32F4xx_StdPeriph_Driver/src/stm32f4xx_tim.c ****     /* Set the Output N Polarity */
 716:../Libraries/STM32F4xx_StdPeriph_Driver/src/stm32f4xx_tim.c ****     tmpccer |= TIM_OCInitStruct->TIM_OCNPolarity;
 25691              		.loc 1 716 0
 25692 060a 3B68     		ldr	r3, [r7, #0]
 25693 060c DA89     		ldrh	r2, [r3, #14]
 25694 060e FB89     		ldrh	r3, [r7, #14]	@ movhi
 25695 0610 42EA0303 		orr	r3, r2, r3
 25696 0614 FB81     		strh	r3, [r7, #14]	@ movhi
 717:../Libraries/STM32F4xx_StdPeriph_Driver/src/stm32f4xx_tim.c ****     /* Reset the Output N State */
 718:../Libraries/STM32F4xx_StdPeriph_Driver/src/stm32f4xx_tim.c ****     tmpccer &= (uint16_t)~TIM_CCER_CC1NE;
 25697              		.loc 1 718 0
 25698 0616 FB89     		ldrh	r3, [r7, #14]	@ movhi
 25699 0618 23F00403 		bic	r3, r3, #4
 25700 061c FB81     		strh	r3, [r7, #14]	@ movhi
 719:../Libraries/STM32F4xx_StdPeriph_Driver/src/stm32f4xx_tim.c ****     
 720:../Libraries/STM32F4xx_StdPeriph_Driver/src/stm32f4xx_tim.c ****     /* Set the Output N State */
 721:../Libraries/STM32F4xx_StdPeriph_Driver/src/stm32f4xx_tim.c ****     tmpccer |= TIM_OCInitStruct->TIM_OutputNState;
 25701              		.loc 1 721 0
 25702 061e 3B68     		ldr	r3, [r7, #0]
 25703 0620 9A88     		ldrh	r2, [r3, #4]
 25704 0622 FB89     		ldrh	r3, [r7, #14]	@ movhi
 25705 0624 42EA0303 		orr	r3, r2, r3
 25706 0628 FB81     		strh	r3, [r7, #14]	@ movhi
 722:../Libraries/STM32F4xx_StdPeriph_Driver/src/stm32f4xx_tim.c ****     /* Reset the Output Compare and Output Compare N IDLE State */
 723:../Libraries/STM32F4xx_StdPeriph_Driver/src/stm32f4xx_tim.c ****     tmpcr2 &= (uint16_t)~TIM_CR2_OIS1;
 25707              		.loc 1 723 0
 25708 062a BB89     		ldrh	r3, [r7, #12]	@ movhi
 25709 062c 23F48073 		bic	r3, r3, #256
 25710 0630 BB81     		strh	r3, [r7, #12]	@ movhi
 724:../Libraries/STM32F4xx_StdPeriph_Driver/src/stm32f4xx_tim.c ****     tmpcr2 &= (uint16_t)~TIM_CR2_OIS1N;
 25711              		.loc 1 724 0
 25712 0632 BB89     		ldrh	r3, [r7, #12]	@ movhi
 25713 0634 23F40073 		bic	r3, r3, #512
 25714 0638 BB81     		strh	r3, [r7, #12]	@ movhi
 725:../Libraries/STM32F4xx_StdPeriph_Driver/src/stm32f4xx_tim.c ****     /* Set the Output Idle state */
 726:../Libraries/STM32F4xx_StdPeriph_Driver/src/stm32f4xx_tim.c ****     tmpcr2 |= TIM_OCInitStruct->TIM_OCIdleState;
 25715              		.loc 1 726 0
 25716 063a 3B68     		ldr	r3, [r7, #0]
 25717 063c 1A8A     		ldrh	r2, [r3, #16]
 25718 063e BB89     		ldrh	r3, [r7, #12]	@ movhi
 25719 0640 42EA0303 		orr	r3, r2, r3
 25720 0644 BB81     		strh	r3, [r7, #12]	@ movhi
 727:../Libraries/STM32F4xx_StdPeriph_Driver/src/stm32f4xx_tim.c ****     /* Set the Output N Idle state */
 728:../Libraries/STM32F4xx_StdPeriph_Driver/src/stm32f4xx_tim.c ****     tmpcr2 |= TIM_OCInitStruct->TIM_OCNIdleState;
 25721              		.loc 1 728 0
 25722 0646 3B68     		ldr	r3, [r7, #0]
 25723 0648 5A8A     		ldrh	r2, [r3, #18]
 25724 064a BB89     		ldrh	r3, [r7, #12]	@ movhi
 25725 064c 42EA0303 		orr	r3, r2, r3
 25726 0650 BB81     		strh	r3, [r7, #12]	@ movhi
 25727              	.L49:
 729:../Libraries/STM32F4xx_StdPeriph_Driver/src/stm32f4xx_tim.c ****   }
 730:../Libraries/STM32F4xx_StdPeriph_Driver/src/stm32f4xx_tim.c ****   /* Write to TIMx CR2 */
 731:../Libraries/STM32F4xx_StdPeriph_Driver/src/stm32f4xx_tim.c ****   TIMx->CR2 = tmpcr2;
 25728              		.loc 1 731 0
 25729 0652 7B68     		ldr	r3, [r7, #4]
 25730 0654 BA89     		ldrh	r2, [r7, #12]	@ movhi
 25731 0656 9A80     		strh	r2, [r3, #4]	@ movhi
 732:../Libraries/STM32F4xx_StdPeriph_Driver/src/stm32f4xx_tim.c ****   
 733:../Libraries/STM32F4xx_StdPeriph_Driver/src/stm32f4xx_tim.c ****   /* Write to TIMx CCMR1 */
 734:../Libraries/STM32F4xx_StdPeriph_Driver/src/stm32f4xx_tim.c ****   TIMx->CCMR1 = tmpccmrx;
 25732              		.loc 1 734 0
 25733 0658 7B68     		ldr	r3, [r7, #4]
 25734 065a 7A89     		ldrh	r2, [r7, #10]	@ movhi
 25735 065c 1A83     		strh	r2, [r3, #24]	@ movhi
 735:../Libraries/STM32F4xx_StdPeriph_Driver/src/stm32f4xx_tim.c ****   
 736:../Libraries/STM32F4xx_StdPeriph_Driver/src/stm32f4xx_tim.c ****   /* Set the Capture Compare Register value */
 737:../Libraries/STM32F4xx_StdPeriph_Driver/src/stm32f4xx_tim.c ****   TIMx->CCR1 = TIM_OCInitStruct->TIM_Pulse;
 25736              		.loc 1 737 0
 25737 065e 3B68     		ldr	r3, [r7, #0]
 25738 0660 9A68     		ldr	r2, [r3, #8]
 25739 0662 7B68     		ldr	r3, [r7, #4]
 25740 0664 5A63     		str	r2, [r3, #52]
 738:../Libraries/STM32F4xx_StdPeriph_Driver/src/stm32f4xx_tim.c ****   
 739:../Libraries/STM32F4xx_StdPeriph_Driver/src/stm32f4xx_tim.c ****   /* Write to TIMx CCER */
 740:../Libraries/STM32F4xx_StdPeriph_Driver/src/stm32f4xx_tim.c ****   TIMx->CCER = tmpccer;
 25741              		.loc 1 740 0
 25742 0666 7B68     		ldr	r3, [r7, #4]
 25743 0668 FA89     		ldrh	r2, [r7, #14]	@ movhi
 25744 066a 1A84     		strh	r2, [r3, #32]	@ movhi
 741:../Libraries/STM32F4xx_StdPeriph_Driver/src/stm32f4xx_tim.c **** }
 25745              		.loc 1 741 0
 25746 066c 07F11407 		add	r7, r7, #20
 25747 0670 BD46     		mov	sp, r7
 25748 0672 80BC     		pop	{r7}
 25749 0674 7047     		bx	lr
 25750              	.L51:
 25751 0676 00BF     		.align	2
 25752              	.L50:
 25753 0678 00000140 		.word	1073807360
 25754 067c 00040140 		.word	1073808384
 25755              		.cfi_endproc
 25756              	.LFE125:
 25758              		.align	2
 25759              		.global	TIM_OC2Init
 25760              		.thumb
 25761              		.thumb_func
 25763              	TIM_OC2Init:
 25764              	.LFB126:
 742:../Libraries/STM32F4xx_StdPeriph_Driver/src/stm32f4xx_tim.c **** 
 743:../Libraries/STM32F4xx_StdPeriph_Driver/src/stm32f4xx_tim.c **** /**
 744:../Libraries/STM32F4xx_StdPeriph_Driver/src/stm32f4xx_tim.c ****   * @brief  Initializes the TIMx Channel2 according to the specified parameters 
 745:../Libraries/STM32F4xx_StdPeriph_Driver/src/stm32f4xx_tim.c ****   *         in the TIM_OCInitStruct.
 746:../Libraries/STM32F4xx_StdPeriph_Driver/src/stm32f4xx_tim.c ****   * @param  TIMx: where x can be 1, 2, 3, 4, 5, 8, 9 or 12 to select the TIM 
 747:../Libraries/STM32F4xx_StdPeriph_Driver/src/stm32f4xx_tim.c ****   *         peripheral.
 748:../Libraries/STM32F4xx_StdPeriph_Driver/src/stm32f4xx_tim.c ****   * @param  TIM_OCInitStruct: pointer to a TIM_OCInitTypeDef structure that contains
 749:../Libraries/STM32F4xx_StdPeriph_Driver/src/stm32f4xx_tim.c ****   *         the configuration information for the specified TIM peripheral.
 750:../Libraries/STM32F4xx_StdPeriph_Driver/src/stm32f4xx_tim.c ****   * @retval None
 751:../Libraries/STM32F4xx_StdPeriph_Driver/src/stm32f4xx_tim.c ****   */
 752:../Libraries/STM32F4xx_StdPeriph_Driver/src/stm32f4xx_tim.c **** void TIM_OC2Init(TIM_TypeDef* TIMx, TIM_OCInitTypeDef* TIM_OCInitStruct)
 753:../Libraries/STM32F4xx_StdPeriph_Driver/src/stm32f4xx_tim.c **** {
 25765              		.loc 1 753 0
 25766              		.cfi_startproc
 25767              		@ args = 0, pretend = 0, frame = 16
 25768              		@ frame_needed = 1, uses_anonymous_args = 0
 25769              		@ link register save eliminated.
 25770 0680 80B4     		push	{r7}
 25771              	.LCFI48:
 25772              		.cfi_def_cfa_offset 4
 25773 0682 85B0     		sub	sp, sp, #20
 25774              	.LCFI49:
 25775              		.cfi_def_cfa_offset 24
 25776 0684 00AF     		add	r7, sp, #0
 25777              		.cfi_offset 7, -4
 25778              	.LCFI50:
 25779              		.cfi_def_cfa_register 7
 25780 0686 7860     		str	r0, [r7, #4]
 25781 0688 3960     		str	r1, [r7, #0]
 754:../Libraries/STM32F4xx_StdPeriph_Driver/src/stm32f4xx_tim.c ****   uint16_t tmpccmrx = 0, tmpccer = 0, tmpcr2 = 0;
 25782              		.loc 1 754 0
 25783 068a 4FF00003 		mov	r3, #0
 25784 068e 7B81     		strh	r3, [r7, #10]	@ movhi
 25785 0690 4FF00003 		mov	r3, #0
 25786 0694 FB81     		strh	r3, [r7, #14]	@ movhi
 25787 0696 4FF00003 		mov	r3, #0
 25788 069a BB81     		strh	r3, [r7, #12]	@ movhi
 755:../Libraries/STM32F4xx_StdPeriph_Driver/src/stm32f4xx_tim.c ****    
 756:../Libraries/STM32F4xx_StdPeriph_Driver/src/stm32f4xx_tim.c ****   /* Check the parameters */
 757:../Libraries/STM32F4xx_StdPeriph_Driver/src/stm32f4xx_tim.c ****   assert_param(IS_TIM_LIST2_PERIPH(TIMx)); 
 758:../Libraries/STM32F4xx_StdPeriph_Driver/src/stm32f4xx_tim.c ****   assert_param(IS_TIM_OC_MODE(TIM_OCInitStruct->TIM_OCMode));
 759:../Libraries/STM32F4xx_StdPeriph_Driver/src/stm32f4xx_tim.c ****   assert_param(IS_TIM_OUTPUT_STATE(TIM_OCInitStruct->TIM_OutputState));
 760:../Libraries/STM32F4xx_StdPeriph_Driver/src/stm32f4xx_tim.c ****   assert_param(IS_TIM_OC_POLARITY(TIM_OCInitStruct->TIM_OCPolarity));   
 761:../Libraries/STM32F4xx_StdPeriph_Driver/src/stm32f4xx_tim.c **** 
 762:../Libraries/STM32F4xx_StdPeriph_Driver/src/stm32f4xx_tim.c ****   /* Disable the Channel 2: Reset the CC2E Bit */
 763:../Libraries/STM32F4xx_StdPeriph_Driver/src/stm32f4xx_tim.c ****   TIMx->CCER &= (uint16_t)~TIM_CCER_CC2E;
 25789              		.loc 1 763 0
 25790 069c 7B68     		ldr	r3, [r7, #4]
 25791 069e 1B8C     		ldrh	r3, [r3, #32]	@ movhi
 25792 06a0 9BB2     		uxth	r3, r3
 25793 06a2 23F01003 		bic	r3, r3, #16
 25794 06a6 9AB2     		uxth	r2, r3
 25795 06a8 7B68     		ldr	r3, [r7, #4]
 25796 06aa 1A84     		strh	r2, [r3, #32]	@ movhi
 764:../Libraries/STM32F4xx_StdPeriph_Driver/src/stm32f4xx_tim.c ****   
 765:../Libraries/STM32F4xx_StdPeriph_Driver/src/stm32f4xx_tim.c ****   /* Get the TIMx CCER register value */  
 766:../Libraries/STM32F4xx_StdPeriph_Driver/src/stm32f4xx_tim.c ****   tmpccer = TIMx->CCER;
 25797              		.loc 1 766 0
 25798 06ac 7B68     		ldr	r3, [r7, #4]
 25799 06ae 1B8C     		ldrh	r3, [r3, #32]	@ movhi
 25800 06b0 FB81     		strh	r3, [r7, #14]	@ movhi
 767:../Libraries/STM32F4xx_StdPeriph_Driver/src/stm32f4xx_tim.c ****   /* Get the TIMx CR2 register value */
 768:../Libraries/STM32F4xx_StdPeriph_Driver/src/stm32f4xx_tim.c ****   tmpcr2 =  TIMx->CR2;
 25801              		.loc 1 768 0
 25802 06b2 7B68     		ldr	r3, [r7, #4]
 25803 06b4 9B88     		ldrh	r3, [r3, #4]	@ movhi
 25804 06b6 BB81     		strh	r3, [r7, #12]	@ movhi
 769:../Libraries/STM32F4xx_StdPeriph_Driver/src/stm32f4xx_tim.c ****   
 770:../Libraries/STM32F4xx_StdPeriph_Driver/src/stm32f4xx_tim.c ****   /* Get the TIMx CCMR1 register value */
 771:../Libraries/STM32F4xx_StdPeriph_Driver/src/stm32f4xx_tim.c ****   tmpccmrx = TIMx->CCMR1;
 25805              		.loc 1 771 0
 25806 06b8 7B68     		ldr	r3, [r7, #4]
 25807 06ba 1B8B     		ldrh	r3, [r3, #24]	@ movhi
 25808 06bc 7B81     		strh	r3, [r7, #10]	@ movhi
 772:../Libraries/STM32F4xx_StdPeriph_Driver/src/stm32f4xx_tim.c ****     
 773:../Libraries/STM32F4xx_StdPeriph_Driver/src/stm32f4xx_tim.c ****   /* Reset the Output Compare mode and Capture/Compare selection Bits */
 774:../Libraries/STM32F4xx_StdPeriph_Driver/src/stm32f4xx_tim.c ****   tmpccmrx &= (uint16_t)~TIM_CCMR1_OC2M;
 25809              		.loc 1 774 0
 25810 06be 7B89     		ldrh	r3, [r7, #10]	@ movhi
 25811 06c0 23F4E043 		bic	r3, r3, #28672
 25812 06c4 7B81     		strh	r3, [r7, #10]	@ movhi
 775:../Libraries/STM32F4xx_StdPeriph_Driver/src/stm32f4xx_tim.c ****   tmpccmrx &= (uint16_t)~TIM_CCMR1_CC2S;
 25813              		.loc 1 775 0
 25814 06c6 7B89     		ldrh	r3, [r7, #10]	@ movhi
 25815 06c8 23F44073 		bic	r3, r3, #768
 25816 06cc 7B81     		strh	r3, [r7, #10]	@ movhi
 776:../Libraries/STM32F4xx_StdPeriph_Driver/src/stm32f4xx_tim.c ****   
 777:../Libraries/STM32F4xx_StdPeriph_Driver/src/stm32f4xx_tim.c ****   /* Select the Output Compare Mode */
 778:../Libraries/STM32F4xx_StdPeriph_Driver/src/stm32f4xx_tim.c ****   tmpccmrx |= (uint16_t)(TIM_OCInitStruct->TIM_OCMode << 8);
 25817              		.loc 1 778 0
 25818 06ce 3B68     		ldr	r3, [r7, #0]
 25819 06d0 1B88     		ldrh	r3, [r3, #0]
 25820 06d2 4FEA0323 		lsl	r3, r3, #8
 25821 06d6 9AB2     		uxth	r2, r3
 25822 06d8 7B89     		ldrh	r3, [r7, #10]	@ movhi
 25823 06da 42EA0303 		orr	r3, r2, r3
 25824 06de 7B81     		strh	r3, [r7, #10]	@ movhi
 779:../Libraries/STM32F4xx_StdPeriph_Driver/src/stm32f4xx_tim.c ****   
 780:../Libraries/STM32F4xx_StdPeriph_Driver/src/stm32f4xx_tim.c ****   /* Reset the Output Polarity level */
 781:../Libraries/STM32F4xx_StdPeriph_Driver/src/stm32f4xx_tim.c ****   tmpccer &= (uint16_t)~TIM_CCER_CC2P;
 25825              		.loc 1 781 0
 25826 06e0 FB89     		ldrh	r3, [r7, #14]	@ movhi
 25827 06e2 23F02003 		bic	r3, r3, #32
 25828 06e6 FB81     		strh	r3, [r7, #14]	@ movhi
 782:../Libraries/STM32F4xx_StdPeriph_Driver/src/stm32f4xx_tim.c ****   /* Set the Output Compare Polarity */
 783:../Libraries/STM32F4xx_StdPeriph_Driver/src/stm32f4xx_tim.c ****   tmpccer |= (uint16_t)(TIM_OCInitStruct->TIM_OCPolarity << 4);
 25829              		.loc 1 783 0
 25830 06e8 3B68     		ldr	r3, [r7, #0]
 25831 06ea 9B89     		ldrh	r3, [r3, #12]
 25832 06ec 4FEA0313 		lsl	r3, r3, #4
 25833 06f0 9AB2     		uxth	r2, r3
 25834 06f2 FB89     		ldrh	r3, [r7, #14]	@ movhi
 25835 06f4 42EA0303 		orr	r3, r2, r3
 25836 06f8 FB81     		strh	r3, [r7, #14]	@ movhi
 784:../Libraries/STM32F4xx_StdPeriph_Driver/src/stm32f4xx_tim.c ****   
 785:../Libraries/STM32F4xx_StdPeriph_Driver/src/stm32f4xx_tim.c ****   /* Set the Output State */
 786:../Libraries/STM32F4xx_StdPeriph_Driver/src/stm32f4xx_tim.c ****   tmpccer |= (uint16_t)(TIM_OCInitStruct->TIM_OutputState << 4);
 25837              		.loc 1 786 0
 25838 06fa 3B68     		ldr	r3, [r7, #0]
 25839 06fc 5B88     		ldrh	r3, [r3, #2]
 25840 06fe 4FEA0313 		lsl	r3, r3, #4
 25841 0702 9AB2     		uxth	r2, r3
 25842 0704 FB89     		ldrh	r3, [r7, #14]	@ movhi
 25843 0706 42EA0303 		orr	r3, r2, r3
 25844 070a FB81     		strh	r3, [r7, #14]	@ movhi
 787:../Libraries/STM32F4xx_StdPeriph_Driver/src/stm32f4xx_tim.c ****     
 788:../Libraries/STM32F4xx_StdPeriph_Driver/src/stm32f4xx_tim.c ****   if((TIMx == TIM1) || (TIMx == TIM8))
 25845              		.loc 1 788 0
 25846 070c 7A68     		ldr	r2, [r7, #4]
 25847 070e 264B     		ldr	r3, .L55
 25848 0710 9A42     		cmp	r2, r3
 25849 0712 03D0     		beq	.L53
 25850              		.loc 1 788 0 is_stmt 0 discriminator 1
 25851 0714 7A68     		ldr	r2, [r7, #4]
 25852 0716 254B     		ldr	r3, .L55+4
 25853 0718 9A42     		cmp	r2, r3
 25854 071a 33D1     		bne	.L54
 25855              	.L53:
 789:../Libraries/STM32F4xx_StdPeriph_Driver/src/stm32f4xx_tim.c ****   {
 790:../Libraries/STM32F4xx_StdPeriph_Driver/src/stm32f4xx_tim.c ****     assert_param(IS_TIM_OUTPUTN_STATE(TIM_OCInitStruct->TIM_OutputNState));
 791:../Libraries/STM32F4xx_StdPeriph_Driver/src/stm32f4xx_tim.c ****     assert_param(IS_TIM_OCN_POLARITY(TIM_OCInitStruct->TIM_OCNPolarity));
 792:../Libraries/STM32F4xx_StdPeriph_Driver/src/stm32f4xx_tim.c ****     assert_param(IS_TIM_OCNIDLE_STATE(TIM_OCInitStruct->TIM_OCNIdleState));
 793:../Libraries/STM32F4xx_StdPeriph_Driver/src/stm32f4xx_tim.c ****     assert_param(IS_TIM_OCIDLE_STATE(TIM_OCInitStruct->TIM_OCIdleState));
 794:../Libraries/STM32F4xx_StdPeriph_Driver/src/stm32f4xx_tim.c ****     
 795:../Libraries/STM32F4xx_StdPeriph_Driver/src/stm32f4xx_tim.c ****     /* Reset the Output N Polarity level */
 796:../Libraries/STM32F4xx_StdPeriph_Driver/src/stm32f4xx_tim.c ****     tmpccer &= (uint16_t)~TIM_CCER_CC2NP;
 25856              		.loc 1 796 0 is_stmt 1
 25857 071c FB89     		ldrh	r3, [r7, #14]	@ movhi
 25858 071e 23F08003 		bic	r3, r3, #128
 25859 0722 FB81     		strh	r3, [r7, #14]	@ movhi
 797:../Libraries/STM32F4xx_StdPeriph_Driver/src/stm32f4xx_tim.c ****     /* Set the Output N Polarity */
 798:../Libraries/STM32F4xx_StdPeriph_Driver/src/stm32f4xx_tim.c ****     tmpccer |= (uint16_t)(TIM_OCInitStruct->TIM_OCNPolarity << 4);
 25860              		.loc 1 798 0
 25861 0724 3B68     		ldr	r3, [r7, #0]
 25862 0726 DB89     		ldrh	r3, [r3, #14]
 25863 0728 4FEA0313 		lsl	r3, r3, #4
 25864 072c 9AB2     		uxth	r2, r3
 25865 072e FB89     		ldrh	r3, [r7, #14]	@ movhi
 25866 0730 42EA0303 		orr	r3, r2, r3
 25867 0734 FB81     		strh	r3, [r7, #14]	@ movhi
 799:../Libraries/STM32F4xx_StdPeriph_Driver/src/stm32f4xx_tim.c ****     /* Reset the Output N State */
 800:../Libraries/STM32F4xx_StdPeriph_Driver/src/stm32f4xx_tim.c ****     tmpccer &= (uint16_t)~TIM_CCER_CC2NE;
 25868              		.loc 1 800 0
 25869 0736 FB89     		ldrh	r3, [r7, #14]	@ movhi
 25870 0738 23F04003 		bic	r3, r3, #64
 25871 073c FB81     		strh	r3, [r7, #14]	@ movhi
 801:../Libraries/STM32F4xx_StdPeriph_Driver/src/stm32f4xx_tim.c ****     
 802:../Libraries/STM32F4xx_StdPeriph_Driver/src/stm32f4xx_tim.c ****     /* Set the Output N State */
 803:../Libraries/STM32F4xx_StdPeriph_Driver/src/stm32f4xx_tim.c ****     tmpccer |= (uint16_t)(TIM_OCInitStruct->TIM_OutputNState << 4);
 25872              		.loc 1 803 0
 25873 073e 3B68     		ldr	r3, [r7, #0]
 25874 0740 9B88     		ldrh	r3, [r3, #4]
 25875 0742 4FEA0313 		lsl	r3, r3, #4
 25876 0746 9AB2     		uxth	r2, r3
 25877 0748 FB89     		ldrh	r3, [r7, #14]	@ movhi
 25878 074a 42EA0303 		orr	r3, r2, r3
 25879 074e FB81     		strh	r3, [r7, #14]	@ movhi
 804:../Libraries/STM32F4xx_StdPeriph_Driver/src/stm32f4xx_tim.c ****     /* Reset the Output Compare and Output Compare N IDLE State */
 805:../Libraries/STM32F4xx_StdPeriph_Driver/src/stm32f4xx_tim.c ****     tmpcr2 &= (uint16_t)~TIM_CR2_OIS2;
 25880              		.loc 1 805 0
 25881 0750 BB89     		ldrh	r3, [r7, #12]	@ movhi
 25882 0752 23F48063 		bic	r3, r3, #1024
 25883 0756 BB81     		strh	r3, [r7, #12]	@ movhi
 806:../Libraries/STM32F4xx_StdPeriph_Driver/src/stm32f4xx_tim.c ****     tmpcr2 &= (uint16_t)~TIM_CR2_OIS2N;
 25884              		.loc 1 806 0
 25885 0758 BB89     		ldrh	r3, [r7, #12]	@ movhi
 25886 075a 23F40063 		bic	r3, r3, #2048
 25887 075e BB81     		strh	r3, [r7, #12]	@ movhi
 807:../Libraries/STM32F4xx_StdPeriph_Driver/src/stm32f4xx_tim.c ****     /* Set the Output Idle state */
 808:../Libraries/STM32F4xx_StdPeriph_Driver/src/stm32f4xx_tim.c ****     tmpcr2 |= (uint16_t)(TIM_OCInitStruct->TIM_OCIdleState << 2);
 25888              		.loc 1 808 0
 25889 0760 3B68     		ldr	r3, [r7, #0]
 25890 0762 1B8A     		ldrh	r3, [r3, #16]
 25891 0764 4FEA8303 		lsl	r3, r3, #2
 25892 0768 9AB2     		uxth	r2, r3
 25893 076a BB89     		ldrh	r3, [r7, #12]	@ movhi
 25894 076c 42EA0303 		orr	r3, r2, r3
 25895 0770 BB81     		strh	r3, [r7, #12]	@ movhi
 809:../Libraries/STM32F4xx_StdPeriph_Driver/src/stm32f4xx_tim.c ****     /* Set the Output N Idle state */
 810:../Libraries/STM32F4xx_StdPeriph_Driver/src/stm32f4xx_tim.c ****     tmpcr2 |= (uint16_t)(TIM_OCInitStruct->TIM_OCNIdleState << 2);
 25896              		.loc 1 810 0
 25897 0772 3B68     		ldr	r3, [r7, #0]
 25898 0774 5B8A     		ldrh	r3, [r3, #18]
 25899 0776 4FEA8303 		lsl	r3, r3, #2
 25900 077a 9AB2     		uxth	r2, r3
 25901 077c BB89     		ldrh	r3, [r7, #12]	@ movhi
 25902 077e 42EA0303 		orr	r3, r2, r3
 25903 0782 BB81     		strh	r3, [r7, #12]	@ movhi
 25904              	.L54:
 811:../Libraries/STM32F4xx_StdPeriph_Driver/src/stm32f4xx_tim.c ****   }
 812:../Libraries/STM32F4xx_StdPeriph_Driver/src/stm32f4xx_tim.c ****   /* Write to TIMx CR2 */
 813:../Libraries/STM32F4xx_StdPeriph_Driver/src/stm32f4xx_tim.c ****   TIMx->CR2 = tmpcr2;
 25905              		.loc 1 813 0
 25906 0784 7B68     		ldr	r3, [r7, #4]
 25907 0786 BA89     		ldrh	r2, [r7, #12]	@ movhi
 25908 0788 9A80     		strh	r2, [r3, #4]	@ movhi
 814:../Libraries/STM32F4xx_StdPeriph_Driver/src/stm32f4xx_tim.c ****   
 815:../Libraries/STM32F4xx_StdPeriph_Driver/src/stm32f4xx_tim.c ****   /* Write to TIMx CCMR1 */
 816:../Libraries/STM32F4xx_StdPeriph_Driver/src/stm32f4xx_tim.c ****   TIMx->CCMR1 = tmpccmrx;
 25909              		.loc 1 816 0
 25910 078a 7B68     		ldr	r3, [r7, #4]
 25911 078c 7A89     		ldrh	r2, [r7, #10]	@ movhi
 25912 078e 1A83     		strh	r2, [r3, #24]	@ movhi
 817:../Libraries/STM32F4xx_StdPeriph_Driver/src/stm32f4xx_tim.c ****   
 818:../Libraries/STM32F4xx_StdPeriph_Driver/src/stm32f4xx_tim.c ****   /* Set the Capture Compare Register value */
 819:../Libraries/STM32F4xx_StdPeriph_Driver/src/stm32f4xx_tim.c ****   TIMx->CCR2 = TIM_OCInitStruct->TIM_Pulse;
 25913              		.loc 1 819 0
 25914 0790 3B68     		ldr	r3, [r7, #0]
 25915 0792 9A68     		ldr	r2, [r3, #8]
 25916 0794 7B68     		ldr	r3, [r7, #4]
 25917 0796 9A63     		str	r2, [r3, #56]
 820:../Libraries/STM32F4xx_StdPeriph_Driver/src/stm32f4xx_tim.c ****   
 821:../Libraries/STM32F4xx_StdPeriph_Driver/src/stm32f4xx_tim.c ****   /* Write to TIMx CCER */
 822:../Libraries/STM32F4xx_StdPeriph_Driver/src/stm32f4xx_tim.c ****   TIMx->CCER = tmpccer;
 25918              		.loc 1 822 0
 25919 0798 7B68     		ldr	r3, [r7, #4]
 25920 079a FA89     		ldrh	r2, [r7, #14]	@ movhi
 25921 079c 1A84     		strh	r2, [r3, #32]	@ movhi
 823:../Libraries/STM32F4xx_StdPeriph_Driver/src/stm32f4xx_tim.c **** }
 25922              		.loc 1 823 0
 25923 079e 07F11407 		add	r7, r7, #20
 25924 07a2 BD46     		mov	sp, r7
 25925 07a4 80BC     		pop	{r7}
 25926 07a6 7047     		bx	lr
 25927              	.L56:
 25928              		.align	2
 25929              	.L55:
 25930 07a8 00000140 		.word	1073807360
 25931 07ac 00040140 		.word	1073808384
 25932              		.cfi_endproc
 25933              	.LFE126:
 25935              		.align	2
 25936              		.global	TIM_OC3Init
 25937              		.thumb
 25938              		.thumb_func
 25940              	TIM_OC3Init:
 25941              	.LFB127:
 824:../Libraries/STM32F4xx_StdPeriph_Driver/src/stm32f4xx_tim.c **** 
 825:../Libraries/STM32F4xx_StdPeriph_Driver/src/stm32f4xx_tim.c **** /**
 826:../Libraries/STM32F4xx_StdPeriph_Driver/src/stm32f4xx_tim.c ****   * @brief  Initializes the TIMx Channel3 according to the specified parameters
 827:../Libraries/STM32F4xx_StdPeriph_Driver/src/stm32f4xx_tim.c ****   *         in the TIM_OCInitStruct.
 828:../Libraries/STM32F4xx_StdPeriph_Driver/src/stm32f4xx_tim.c ****   * @param  TIMx: where x can be 1, 2, 3, 4, 5 or 8 to select the TIM peripheral.
 829:../Libraries/STM32F4xx_StdPeriph_Driver/src/stm32f4xx_tim.c ****   * @param  TIM_OCInitStruct: pointer to a TIM_OCInitTypeDef structure that contains
 830:../Libraries/STM32F4xx_StdPeriph_Driver/src/stm32f4xx_tim.c ****   *         the configuration information for the specified TIM peripheral.
 831:../Libraries/STM32F4xx_StdPeriph_Driver/src/stm32f4xx_tim.c ****   * @retval None
 832:../Libraries/STM32F4xx_StdPeriph_Driver/src/stm32f4xx_tim.c ****   */
 833:../Libraries/STM32F4xx_StdPeriph_Driver/src/stm32f4xx_tim.c **** void TIM_OC3Init(TIM_TypeDef* TIMx, TIM_OCInitTypeDef* TIM_OCInitStruct)
 834:../Libraries/STM32F4xx_StdPeriph_Driver/src/stm32f4xx_tim.c **** {
 25942              		.loc 1 834 0
 25943              		.cfi_startproc
 25944              		@ args = 0, pretend = 0, frame = 16
 25945              		@ frame_needed = 1, uses_anonymous_args = 0
 25946              		@ link register save eliminated.
 25947 07b0 80B4     		push	{r7}
 25948              	.LCFI51:
 25949              		.cfi_def_cfa_offset 4
 25950 07b2 85B0     		sub	sp, sp, #20
 25951              	.LCFI52:
 25952              		.cfi_def_cfa_offset 24
 25953 07b4 00AF     		add	r7, sp, #0
 25954              		.cfi_offset 7, -4
 25955              	.LCFI53:
 25956              		.cfi_def_cfa_register 7
 25957 07b6 7860     		str	r0, [r7, #4]
 25958 07b8 3960     		str	r1, [r7, #0]
 835:../Libraries/STM32F4xx_StdPeriph_Driver/src/stm32f4xx_tim.c ****   uint16_t tmpccmrx = 0, tmpccer = 0, tmpcr2 = 0;
 25959              		.loc 1 835 0
 25960 07ba 4FF00003 		mov	r3, #0
 25961 07be 7B81     		strh	r3, [r7, #10]	@ movhi
 25962 07c0 4FF00003 		mov	r3, #0
 25963 07c4 FB81     		strh	r3, [r7, #14]	@ movhi
 25964 07c6 4FF00003 		mov	r3, #0
 25965 07ca BB81     		strh	r3, [r7, #12]	@ movhi
 836:../Libraries/STM32F4xx_StdPeriph_Driver/src/stm32f4xx_tim.c ****    
 837:../Libraries/STM32F4xx_StdPeriph_Driver/src/stm32f4xx_tim.c ****   /* Check the parameters */
 838:../Libraries/STM32F4xx_StdPeriph_Driver/src/stm32f4xx_tim.c ****   assert_param(IS_TIM_LIST3_PERIPH(TIMx)); 
 839:../Libraries/STM32F4xx_StdPeriph_Driver/src/stm32f4xx_tim.c ****   assert_param(IS_TIM_OC_MODE(TIM_OCInitStruct->TIM_OCMode));
 840:../Libraries/STM32F4xx_StdPeriph_Driver/src/stm32f4xx_tim.c ****   assert_param(IS_TIM_OUTPUT_STATE(TIM_OCInitStruct->TIM_OutputState));
 841:../Libraries/STM32F4xx_StdPeriph_Driver/src/stm32f4xx_tim.c ****   assert_param(IS_TIM_OC_POLARITY(TIM_OCInitStruct->TIM_OCPolarity));   
 842:../Libraries/STM32F4xx_StdPeriph_Driver/src/stm32f4xx_tim.c **** 
 843:../Libraries/STM32F4xx_StdPeriph_Driver/src/stm32f4xx_tim.c ****   /* Disable the Channel 3: Reset the CC2E Bit */
 844:../Libraries/STM32F4xx_StdPeriph_Driver/src/stm32f4xx_tim.c ****   TIMx->CCER &= (uint16_t)~TIM_CCER_CC3E;
 25966              		.loc 1 844 0
 25967 07cc 7B68     		ldr	r3, [r7, #4]
 25968 07ce 1B8C     		ldrh	r3, [r3, #32]	@ movhi
 25969 07d0 9BB2     		uxth	r3, r3
 25970 07d2 23F48073 		bic	r3, r3, #256
 25971 07d6 9AB2     		uxth	r2, r3
 25972 07d8 7B68     		ldr	r3, [r7, #4]
 25973 07da 1A84     		strh	r2, [r3, #32]	@ movhi
 845:../Libraries/STM32F4xx_StdPeriph_Driver/src/stm32f4xx_tim.c ****   
 846:../Libraries/STM32F4xx_StdPeriph_Driver/src/stm32f4xx_tim.c ****   /* Get the TIMx CCER register value */
 847:../Libraries/STM32F4xx_StdPeriph_Driver/src/stm32f4xx_tim.c ****   tmpccer = TIMx->CCER;
 25974              		.loc 1 847 0
 25975 07dc 7B68     		ldr	r3, [r7, #4]
 25976 07de 1B8C     		ldrh	r3, [r3, #32]	@ movhi
 25977 07e0 FB81     		strh	r3, [r7, #14]	@ movhi
 848:../Libraries/STM32F4xx_StdPeriph_Driver/src/stm32f4xx_tim.c ****   /* Get the TIMx CR2 register value */
 849:../Libraries/STM32F4xx_StdPeriph_Driver/src/stm32f4xx_tim.c ****   tmpcr2 =  TIMx->CR2;
 25978              		.loc 1 849 0
 25979 07e2 7B68     		ldr	r3, [r7, #4]
 25980 07e4 9B88     		ldrh	r3, [r3, #4]	@ movhi
 25981 07e6 BB81     		strh	r3, [r7, #12]	@ movhi
 850:../Libraries/STM32F4xx_StdPeriph_Driver/src/stm32f4xx_tim.c ****   
 851:../Libraries/STM32F4xx_StdPeriph_Driver/src/stm32f4xx_tim.c ****   /* Get the TIMx CCMR2 register value */
 852:../Libraries/STM32F4xx_StdPeriph_Driver/src/stm32f4xx_tim.c ****   tmpccmrx = TIMx->CCMR2;
 25982              		.loc 1 852 0
 25983 07e8 7B68     		ldr	r3, [r7, #4]
 25984 07ea 9B8B     		ldrh	r3, [r3, #28]	@ movhi
 25985 07ec 7B81     		strh	r3, [r7, #10]	@ movhi
 853:../Libraries/STM32F4xx_StdPeriph_Driver/src/stm32f4xx_tim.c ****     
 854:../Libraries/STM32F4xx_StdPeriph_Driver/src/stm32f4xx_tim.c ****   /* Reset the Output Compare mode and Capture/Compare selection Bits */
 855:../Libraries/STM32F4xx_StdPeriph_Driver/src/stm32f4xx_tim.c ****   tmpccmrx &= (uint16_t)~TIM_CCMR2_OC3M;
 25986              		.loc 1 855 0
 25987 07ee 7B89     		ldrh	r3, [r7, #10]	@ movhi
 25988 07f0 23F07003 		bic	r3, r3, #112
 25989 07f4 7B81     		strh	r3, [r7, #10]	@ movhi
 856:../Libraries/STM32F4xx_StdPeriph_Driver/src/stm32f4xx_tim.c ****   tmpccmrx &= (uint16_t)~TIM_CCMR2_CC3S;  
 25990              		.loc 1 856 0
 25991 07f6 7B89     		ldrh	r3, [r7, #10]	@ movhi
 25992 07f8 23F00303 		bic	r3, r3, #3
 25993 07fc 7B81     		strh	r3, [r7, #10]	@ movhi
 857:../Libraries/STM32F4xx_StdPeriph_Driver/src/stm32f4xx_tim.c ****   /* Select the Output Compare Mode */
 858:../Libraries/STM32F4xx_StdPeriph_Driver/src/stm32f4xx_tim.c ****   tmpccmrx |= TIM_OCInitStruct->TIM_OCMode;
 25994              		.loc 1 858 0
 25995 07fe 3B68     		ldr	r3, [r7, #0]
 25996 0800 1A88     		ldrh	r2, [r3, #0]
 25997 0802 7B89     		ldrh	r3, [r7, #10]	@ movhi
 25998 0804 42EA0303 		orr	r3, r2, r3
 25999 0808 7B81     		strh	r3, [r7, #10]	@ movhi
 859:../Libraries/STM32F4xx_StdPeriph_Driver/src/stm32f4xx_tim.c ****   
 860:../Libraries/STM32F4xx_StdPeriph_Driver/src/stm32f4xx_tim.c ****   /* Reset the Output Polarity level */
 861:../Libraries/STM32F4xx_StdPeriph_Driver/src/stm32f4xx_tim.c ****   tmpccer &= (uint16_t)~TIM_CCER_CC3P;
 26000              		.loc 1 861 0
 26001 080a FB89     		ldrh	r3, [r7, #14]	@ movhi
 26002 080c 23F40073 		bic	r3, r3, #512
 26003 0810 FB81     		strh	r3, [r7, #14]	@ movhi
 862:../Libraries/STM32F4xx_StdPeriph_Driver/src/stm32f4xx_tim.c ****   /* Set the Output Compare Polarity */
 863:../Libraries/STM32F4xx_StdPeriph_Driver/src/stm32f4xx_tim.c ****   tmpccer |= (uint16_t)(TIM_OCInitStruct->TIM_OCPolarity << 8);
 26004              		.loc 1 863 0
 26005 0812 3B68     		ldr	r3, [r7, #0]
 26006 0814 9B89     		ldrh	r3, [r3, #12]
 26007 0816 4FEA0323 		lsl	r3, r3, #8
 26008 081a 9AB2     		uxth	r2, r3
 26009 081c FB89     		ldrh	r3, [r7, #14]	@ movhi
 26010 081e 42EA0303 		orr	r3, r2, r3
 26011 0822 FB81     		strh	r3, [r7, #14]	@ movhi
 864:../Libraries/STM32F4xx_StdPeriph_Driver/src/stm32f4xx_tim.c ****   
 865:../Libraries/STM32F4xx_StdPeriph_Driver/src/stm32f4xx_tim.c ****   /* Set the Output State */
 866:../Libraries/STM32F4xx_StdPeriph_Driver/src/stm32f4xx_tim.c ****   tmpccer |= (uint16_t)(TIM_OCInitStruct->TIM_OutputState << 8);
 26012              		.loc 1 866 0
 26013 0824 3B68     		ldr	r3, [r7, #0]
 26014 0826 5B88     		ldrh	r3, [r3, #2]
 26015 0828 4FEA0323 		lsl	r3, r3, #8
 26016 082c 9AB2     		uxth	r2, r3
 26017 082e FB89     		ldrh	r3, [r7, #14]	@ movhi
 26018 0830 42EA0303 		orr	r3, r2, r3
 26019 0834 FB81     		strh	r3, [r7, #14]	@ movhi
 867:../Libraries/STM32F4xx_StdPeriph_Driver/src/stm32f4xx_tim.c ****     
 868:../Libraries/STM32F4xx_StdPeriph_Driver/src/stm32f4xx_tim.c ****   if((TIMx == TIM1) || (TIMx == TIM8))
 26020              		.loc 1 868 0
 26021 0836 7A68     		ldr	r2, [r7, #4]
 26022 0838 264B     		ldr	r3, .L60
 26023 083a 9A42     		cmp	r2, r3
 26024 083c 03D0     		beq	.L58
 26025              		.loc 1 868 0 is_stmt 0 discriminator 1
 26026 083e 7A68     		ldr	r2, [r7, #4]
 26027 0840 254B     		ldr	r3, .L60+4
 26028 0842 9A42     		cmp	r2, r3
 26029 0844 33D1     		bne	.L59
 26030              	.L58:
 869:../Libraries/STM32F4xx_StdPeriph_Driver/src/stm32f4xx_tim.c ****   {
 870:../Libraries/STM32F4xx_StdPeriph_Driver/src/stm32f4xx_tim.c ****     assert_param(IS_TIM_OUTPUTN_STATE(TIM_OCInitStruct->TIM_OutputNState));
 871:../Libraries/STM32F4xx_StdPeriph_Driver/src/stm32f4xx_tim.c ****     assert_param(IS_TIM_OCN_POLARITY(TIM_OCInitStruct->TIM_OCNPolarity));
 872:../Libraries/STM32F4xx_StdPeriph_Driver/src/stm32f4xx_tim.c ****     assert_param(IS_TIM_OCNIDLE_STATE(TIM_OCInitStruct->TIM_OCNIdleState));
 873:../Libraries/STM32F4xx_StdPeriph_Driver/src/stm32f4xx_tim.c ****     assert_param(IS_TIM_OCIDLE_STATE(TIM_OCInitStruct->TIM_OCIdleState));
 874:../Libraries/STM32F4xx_StdPeriph_Driver/src/stm32f4xx_tim.c ****     
 875:../Libraries/STM32F4xx_StdPeriph_Driver/src/stm32f4xx_tim.c ****     /* Reset the Output N Polarity level */
 876:../Libraries/STM32F4xx_StdPeriph_Driver/src/stm32f4xx_tim.c ****     tmpccer &= (uint16_t)~TIM_CCER_CC3NP;
 26031              		.loc 1 876 0 is_stmt 1
 26032 0846 FB89     		ldrh	r3, [r7, #14]	@ movhi
 26033 0848 23F40063 		bic	r3, r3, #2048
 26034 084c FB81     		strh	r3, [r7, #14]	@ movhi
 877:../Libraries/STM32F4xx_StdPeriph_Driver/src/stm32f4xx_tim.c ****     /* Set the Output N Polarity */
 878:../Libraries/STM32F4xx_StdPeriph_Driver/src/stm32f4xx_tim.c ****     tmpccer |= (uint16_t)(TIM_OCInitStruct->TIM_OCNPolarity << 8);
 26035              		.loc 1 878 0
 26036 084e 3B68     		ldr	r3, [r7, #0]
 26037 0850 DB89     		ldrh	r3, [r3, #14]
 26038 0852 4FEA0323 		lsl	r3, r3, #8
 26039 0856 9AB2     		uxth	r2, r3
 26040 0858 FB89     		ldrh	r3, [r7, #14]	@ movhi
 26041 085a 42EA0303 		orr	r3, r2, r3
 26042 085e FB81     		strh	r3, [r7, #14]	@ movhi
 879:../Libraries/STM32F4xx_StdPeriph_Driver/src/stm32f4xx_tim.c ****     /* Reset the Output N State */
 880:../Libraries/STM32F4xx_StdPeriph_Driver/src/stm32f4xx_tim.c ****     tmpccer &= (uint16_t)~TIM_CCER_CC3NE;
 26043              		.loc 1 880 0
 26044 0860 FB89     		ldrh	r3, [r7, #14]	@ movhi
 26045 0862 23F48063 		bic	r3, r3, #1024
 26046 0866 FB81     		strh	r3, [r7, #14]	@ movhi
 881:../Libraries/STM32F4xx_StdPeriph_Driver/src/stm32f4xx_tim.c ****     
 882:../Libraries/STM32F4xx_StdPeriph_Driver/src/stm32f4xx_tim.c ****     /* Set the Output N State */
 883:../Libraries/STM32F4xx_StdPeriph_Driver/src/stm32f4xx_tim.c ****     tmpccer |= (uint16_t)(TIM_OCInitStruct->TIM_OutputNState << 8);
 26047              		.loc 1 883 0
 26048 0868 3B68     		ldr	r3, [r7, #0]
 26049 086a 9B88     		ldrh	r3, [r3, #4]
 26050 086c 4FEA0323 		lsl	r3, r3, #8
 26051 0870 9AB2     		uxth	r2, r3
 26052 0872 FB89     		ldrh	r3, [r7, #14]	@ movhi
 26053 0874 42EA0303 		orr	r3, r2, r3
 26054 0878 FB81     		strh	r3, [r7, #14]	@ movhi
 884:../Libraries/STM32F4xx_StdPeriph_Driver/src/stm32f4xx_tim.c ****     /* Reset the Output Compare and Output Compare N IDLE State */
 885:../Libraries/STM32F4xx_StdPeriph_Driver/src/stm32f4xx_tim.c ****     tmpcr2 &= (uint16_t)~TIM_CR2_OIS3;
 26055              		.loc 1 885 0
 26056 087a BB89     		ldrh	r3, [r7, #12]	@ movhi
 26057 087c 23F48053 		bic	r3, r3, #4096
 26058 0880 BB81     		strh	r3, [r7, #12]	@ movhi
 886:../Libraries/STM32F4xx_StdPeriph_Driver/src/stm32f4xx_tim.c ****     tmpcr2 &= (uint16_t)~TIM_CR2_OIS3N;
 26059              		.loc 1 886 0
 26060 0882 BB89     		ldrh	r3, [r7, #12]	@ movhi
 26061 0884 23F40053 		bic	r3, r3, #8192
 26062 0888 BB81     		strh	r3, [r7, #12]	@ movhi
 887:../Libraries/STM32F4xx_StdPeriph_Driver/src/stm32f4xx_tim.c ****     /* Set the Output Idle state */
 888:../Libraries/STM32F4xx_StdPeriph_Driver/src/stm32f4xx_tim.c ****     tmpcr2 |= (uint16_t)(TIM_OCInitStruct->TIM_OCIdleState << 4);
 26063              		.loc 1 888 0
 26064 088a 3B68     		ldr	r3, [r7, #0]
 26065 088c 1B8A     		ldrh	r3, [r3, #16]
 26066 088e 4FEA0313 		lsl	r3, r3, #4
 26067 0892 9AB2     		uxth	r2, r3
 26068 0894 BB89     		ldrh	r3, [r7, #12]	@ movhi
 26069 0896 42EA0303 		orr	r3, r2, r3
 26070 089a BB81     		strh	r3, [r7, #12]	@ movhi
 889:../Libraries/STM32F4xx_StdPeriph_Driver/src/stm32f4xx_tim.c ****     /* Set the Output N Idle state */
 890:../Libraries/STM32F4xx_StdPeriph_Driver/src/stm32f4xx_tim.c ****     tmpcr2 |= (uint16_t)(TIM_OCInitStruct->TIM_OCNIdleState << 4);
 26071              		.loc 1 890 0
 26072 089c 3B68     		ldr	r3, [r7, #0]
 26073 089e 5B8A     		ldrh	r3, [r3, #18]
 26074 08a0 4FEA0313 		lsl	r3, r3, #4
 26075 08a4 9AB2     		uxth	r2, r3
 26076 08a6 BB89     		ldrh	r3, [r7, #12]	@ movhi
 26077 08a8 42EA0303 		orr	r3, r2, r3
 26078 08ac BB81     		strh	r3, [r7, #12]	@ movhi
 26079              	.L59:
 891:../Libraries/STM32F4xx_StdPeriph_Driver/src/stm32f4xx_tim.c ****   }
 892:../Libraries/STM32F4xx_StdPeriph_Driver/src/stm32f4xx_tim.c ****   /* Write to TIMx CR2 */
 893:../Libraries/STM32F4xx_StdPeriph_Driver/src/stm32f4xx_tim.c ****   TIMx->CR2 = tmpcr2;
 26080              		.loc 1 893 0
 26081 08ae 7B68     		ldr	r3, [r7, #4]
 26082 08b0 BA89     		ldrh	r2, [r7, #12]	@ movhi
 26083 08b2 9A80     		strh	r2, [r3, #4]	@ movhi
 894:../Libraries/STM32F4xx_StdPeriph_Driver/src/stm32f4xx_tim.c ****   
 895:../Libraries/STM32F4xx_StdPeriph_Driver/src/stm32f4xx_tim.c ****   /* Write to TIMx CCMR2 */
 896:../Libraries/STM32F4xx_StdPeriph_Driver/src/stm32f4xx_tim.c ****   TIMx->CCMR2 = tmpccmrx;
 26084              		.loc 1 896 0
 26085 08b4 7B68     		ldr	r3, [r7, #4]
 26086 08b6 7A89     		ldrh	r2, [r7, #10]	@ movhi
 26087 08b8 9A83     		strh	r2, [r3, #28]	@ movhi
 897:../Libraries/STM32F4xx_StdPeriph_Driver/src/stm32f4xx_tim.c ****   
 898:../Libraries/STM32F4xx_StdPeriph_Driver/src/stm32f4xx_tim.c ****   /* Set the Capture Compare Register value */
 899:../Libraries/STM32F4xx_StdPeriph_Driver/src/stm32f4xx_tim.c ****   TIMx->CCR3 = TIM_OCInitStruct->TIM_Pulse;
 26088              		.loc 1 899 0
 26089 08ba 3B68     		ldr	r3, [r7, #0]
 26090 08bc 9A68     		ldr	r2, [r3, #8]
 26091 08be 7B68     		ldr	r3, [r7, #4]
 26092 08c0 DA63     		str	r2, [r3, #60]
 900:../Libraries/STM32F4xx_StdPeriph_Driver/src/stm32f4xx_tim.c ****   
 901:../Libraries/STM32F4xx_StdPeriph_Driver/src/stm32f4xx_tim.c ****   /* Write to TIMx CCER */
 902:../Libraries/STM32F4xx_StdPeriph_Driver/src/stm32f4xx_tim.c ****   TIMx->CCER = tmpccer;
 26093              		.loc 1 902 0
 26094 08c2 7B68     		ldr	r3, [r7, #4]
 26095 08c4 FA89     		ldrh	r2, [r7, #14]	@ movhi
 26096 08c6 1A84     		strh	r2, [r3, #32]	@ movhi
 903:../Libraries/STM32F4xx_StdPeriph_Driver/src/stm32f4xx_tim.c **** }
 26097              		.loc 1 903 0
 26098 08c8 07F11407 		add	r7, r7, #20
 26099 08cc BD46     		mov	sp, r7
 26100 08ce 80BC     		pop	{r7}
 26101 08d0 7047     		bx	lr
 26102              	.L61:
 26103 08d2 00BF     		.align	2
 26104              	.L60:
 26105 08d4 00000140 		.word	1073807360
 26106 08d8 00040140 		.word	1073808384
 26107              		.cfi_endproc
 26108              	.LFE127:
 26110              		.align	2
 26111              		.global	TIM_OC4Init
 26112              		.thumb
 26113              		.thumb_func
 26115              	TIM_OC4Init:
 26116              	.LFB128:
 904:../Libraries/STM32F4xx_StdPeriph_Driver/src/stm32f4xx_tim.c **** 
 905:../Libraries/STM32F4xx_StdPeriph_Driver/src/stm32f4xx_tim.c **** /**
 906:../Libraries/STM32F4xx_StdPeriph_Driver/src/stm32f4xx_tim.c ****   * @brief  Initializes the TIMx Channel4 according to the specified parameters
 907:../Libraries/STM32F4xx_StdPeriph_Driver/src/stm32f4xx_tim.c ****   *         in the TIM_OCInitStruct.
 908:../Libraries/STM32F4xx_StdPeriph_Driver/src/stm32f4xx_tim.c ****   * @param  TIMx: where x can be 1, 2, 3, 4, 5 or 8 to select the TIM peripheral.
 909:../Libraries/STM32F4xx_StdPeriph_Driver/src/stm32f4xx_tim.c ****   * @param  TIM_OCInitStruct: pointer to a TIM_OCInitTypeDef structure that contains
 910:../Libraries/STM32F4xx_StdPeriph_Driver/src/stm32f4xx_tim.c ****   *         the configuration information for the specified TIM peripheral.
 911:../Libraries/STM32F4xx_StdPeriph_Driver/src/stm32f4xx_tim.c ****   * @retval None
 912:../Libraries/STM32F4xx_StdPeriph_Driver/src/stm32f4xx_tim.c ****   */
 913:../Libraries/STM32F4xx_StdPeriph_Driver/src/stm32f4xx_tim.c **** void TIM_OC4Init(TIM_TypeDef* TIMx, TIM_OCInitTypeDef* TIM_OCInitStruct)
 914:../Libraries/STM32F4xx_StdPeriph_Driver/src/stm32f4xx_tim.c **** {
 26117              		.loc 1 914 0
 26118              		.cfi_startproc
 26119              		@ args = 0, pretend = 0, frame = 16
 26120              		@ frame_needed = 1, uses_anonymous_args = 0
 26121              		@ link register save eliminated.
 26122 08dc 80B4     		push	{r7}
 26123              	.LCFI54:
 26124              		.cfi_def_cfa_offset 4
 26125 08de 85B0     		sub	sp, sp, #20
 26126              	.LCFI55:
 26127              		.cfi_def_cfa_offset 24
 26128 08e0 00AF     		add	r7, sp, #0
 26129              		.cfi_offset 7, -4
 26130              	.LCFI56:
 26131              		.cfi_def_cfa_register 7
 26132 08e2 7860     		str	r0, [r7, #4]
 26133 08e4 3960     		str	r1, [r7, #0]
 915:../Libraries/STM32F4xx_StdPeriph_Driver/src/stm32f4xx_tim.c ****   uint16_t tmpccmrx = 0, tmpccer = 0, tmpcr2 = 0;
 26134              		.loc 1 915 0
 26135 08e6 4FF00003 		mov	r3, #0
 26136 08ea BB81     		strh	r3, [r7, #12]	@ movhi
 26137 08ec 4FF00003 		mov	r3, #0
 26138 08f0 7B81     		strh	r3, [r7, #10]	@ movhi
 26139 08f2 4FF00003 		mov	r3, #0
 26140 08f6 FB81     		strh	r3, [r7, #14]	@ movhi
 916:../Libraries/STM32F4xx_StdPeriph_Driver/src/stm32f4xx_tim.c ****    
 917:../Libraries/STM32F4xx_StdPeriph_Driver/src/stm32f4xx_tim.c ****   /* Check the parameters */
 918:../Libraries/STM32F4xx_StdPeriph_Driver/src/stm32f4xx_tim.c ****   assert_param(IS_TIM_LIST3_PERIPH(TIMx)); 
 919:../Libraries/STM32F4xx_StdPeriph_Driver/src/stm32f4xx_tim.c ****   assert_param(IS_TIM_OC_MODE(TIM_OCInitStruct->TIM_OCMode));
 920:../Libraries/STM32F4xx_StdPeriph_Driver/src/stm32f4xx_tim.c ****   assert_param(IS_TIM_OUTPUT_STATE(TIM_OCInitStruct->TIM_OutputState));
 921:../Libraries/STM32F4xx_StdPeriph_Driver/src/stm32f4xx_tim.c ****   assert_param(IS_TIM_OC_POLARITY(TIM_OCInitStruct->TIM_OCPolarity));   
 922:../Libraries/STM32F4xx_StdPeriph_Driver/src/stm32f4xx_tim.c **** 
 923:../Libraries/STM32F4xx_StdPeriph_Driver/src/stm32f4xx_tim.c ****   /* Disable the Channel 4: Reset the CC4E Bit */
 924:../Libraries/STM32F4xx_StdPeriph_Driver/src/stm32f4xx_tim.c ****   TIMx->CCER &= (uint16_t)~TIM_CCER_CC4E;
 26141              		.loc 1 924 0
 26142 08f8 7B68     		ldr	r3, [r7, #4]
 26143 08fa 1B8C     		ldrh	r3, [r3, #32]	@ movhi
 26144 08fc 9BB2     		uxth	r3, r3
 26145 08fe 23F48053 		bic	r3, r3, #4096
 26146 0902 9AB2     		uxth	r2, r3
 26147 0904 7B68     		ldr	r3, [r7, #4]
 26148 0906 1A84     		strh	r2, [r3, #32]	@ movhi
 925:../Libraries/STM32F4xx_StdPeriph_Driver/src/stm32f4xx_tim.c ****   
 926:../Libraries/STM32F4xx_StdPeriph_Driver/src/stm32f4xx_tim.c ****   /* Get the TIMx CCER register value */
 927:../Libraries/STM32F4xx_StdPeriph_Driver/src/stm32f4xx_tim.c ****   tmpccer = TIMx->CCER;
 26149              		.loc 1 927 0
 26150 0908 7B68     		ldr	r3, [r7, #4]
 26151 090a 1B8C     		ldrh	r3, [r3, #32]	@ movhi
 26152 090c 7B81     		strh	r3, [r7, #10]	@ movhi
 928:../Libraries/STM32F4xx_StdPeriph_Driver/src/stm32f4xx_tim.c ****   /* Get the TIMx CR2 register value */
 929:../Libraries/STM32F4xx_StdPeriph_Driver/src/stm32f4xx_tim.c ****   tmpcr2 =  TIMx->CR2;
 26153              		.loc 1 929 0
 26154 090e 7B68     		ldr	r3, [r7, #4]
 26155 0910 9B88     		ldrh	r3, [r3, #4]	@ movhi
 26156 0912 FB81     		strh	r3, [r7, #14]	@ movhi
 930:../Libraries/STM32F4xx_StdPeriph_Driver/src/stm32f4xx_tim.c ****   
 931:../Libraries/STM32F4xx_StdPeriph_Driver/src/stm32f4xx_tim.c ****   /* Get the TIMx CCMR2 register value */
 932:../Libraries/STM32F4xx_StdPeriph_Driver/src/stm32f4xx_tim.c ****   tmpccmrx = TIMx->CCMR2;
 26157              		.loc 1 932 0
 26158 0914 7B68     		ldr	r3, [r7, #4]
 26159 0916 9B8B     		ldrh	r3, [r3, #28]	@ movhi
 26160 0918 BB81     		strh	r3, [r7, #12]	@ movhi
 933:../Libraries/STM32F4xx_StdPeriph_Driver/src/stm32f4xx_tim.c ****     
 934:../Libraries/STM32F4xx_StdPeriph_Driver/src/stm32f4xx_tim.c ****   /* Reset the Output Compare mode and Capture/Compare selection Bits */
 935:../Libraries/STM32F4xx_StdPeriph_Driver/src/stm32f4xx_tim.c ****   tmpccmrx &= (uint16_t)~TIM_CCMR2_OC4M;
 26161              		.loc 1 935 0
 26162 091a BB89     		ldrh	r3, [r7, #12]	@ movhi
 26163 091c 23F4E043 		bic	r3, r3, #28672
 26164 0920 BB81     		strh	r3, [r7, #12]	@ movhi
 936:../Libraries/STM32F4xx_StdPeriph_Driver/src/stm32f4xx_tim.c ****   tmpccmrx &= (uint16_t)~TIM_CCMR2_CC4S;
 26165              		.loc 1 936 0
 26166 0922 BB89     		ldrh	r3, [r7, #12]	@ movhi
 26167 0924 23F44073 		bic	r3, r3, #768
 26168 0928 BB81     		strh	r3, [r7, #12]	@ movhi
 937:../Libraries/STM32F4xx_StdPeriph_Driver/src/stm32f4xx_tim.c ****   
 938:../Libraries/STM32F4xx_StdPeriph_Driver/src/stm32f4xx_tim.c ****   /* Select the Output Compare Mode */
 939:../Libraries/STM32F4xx_StdPeriph_Driver/src/stm32f4xx_tim.c ****   tmpccmrx |= (uint16_t)(TIM_OCInitStruct->TIM_OCMode << 8);
 26169              		.loc 1 939 0
 26170 092a 3B68     		ldr	r3, [r7, #0]
 26171 092c 1B88     		ldrh	r3, [r3, #0]
 26172 092e 4FEA0323 		lsl	r3, r3, #8
 26173 0932 9AB2     		uxth	r2, r3
 26174 0934 BB89     		ldrh	r3, [r7, #12]	@ movhi
 26175 0936 42EA0303 		orr	r3, r2, r3
 26176 093a BB81     		strh	r3, [r7, #12]	@ movhi
 940:../Libraries/STM32F4xx_StdPeriph_Driver/src/stm32f4xx_tim.c ****   
 941:../Libraries/STM32F4xx_StdPeriph_Driver/src/stm32f4xx_tim.c ****   /* Reset the Output Polarity level */
 942:../Libraries/STM32F4xx_StdPeriph_Driver/src/stm32f4xx_tim.c ****   tmpccer &= (uint16_t)~TIM_CCER_CC4P;
 26177              		.loc 1 942 0
 26178 093c 7B89     		ldrh	r3, [r7, #10]	@ movhi
 26179 093e 23F40053 		bic	r3, r3, #8192
 26180 0942 7B81     		strh	r3, [r7, #10]	@ movhi
 943:../Libraries/STM32F4xx_StdPeriph_Driver/src/stm32f4xx_tim.c ****   /* Set the Output Compare Polarity */
 944:../Libraries/STM32F4xx_StdPeriph_Driver/src/stm32f4xx_tim.c ****   tmpccer |= (uint16_t)(TIM_OCInitStruct->TIM_OCPolarity << 12);
 26181              		.loc 1 944 0
 26182 0944 3B68     		ldr	r3, [r7, #0]
 26183 0946 9B89     		ldrh	r3, [r3, #12]
 26184 0948 4FEA0333 		lsl	r3, r3, #12
 26185 094c 9AB2     		uxth	r2, r3
 26186 094e 7B89     		ldrh	r3, [r7, #10]	@ movhi
 26187 0950 42EA0303 		orr	r3, r2, r3
 26188 0954 7B81     		strh	r3, [r7, #10]	@ movhi
 945:../Libraries/STM32F4xx_StdPeriph_Driver/src/stm32f4xx_tim.c ****   
 946:../Libraries/STM32F4xx_StdPeriph_Driver/src/stm32f4xx_tim.c ****   /* Set the Output State */
 947:../Libraries/STM32F4xx_StdPeriph_Driver/src/stm32f4xx_tim.c ****   tmpccer |= (uint16_t)(TIM_OCInitStruct->TIM_OutputState << 12);
 26189              		.loc 1 947 0
 26190 0956 3B68     		ldr	r3, [r7, #0]
 26191 0958 5B88     		ldrh	r3, [r3, #2]
 26192 095a 4FEA0333 		lsl	r3, r3, #12
 26193 095e 9AB2     		uxth	r2, r3
 26194 0960 7B89     		ldrh	r3, [r7, #10]	@ movhi
 26195 0962 42EA0303 		orr	r3, r2, r3
 26196 0966 7B81     		strh	r3, [r7, #10]	@ movhi
 948:../Libraries/STM32F4xx_StdPeriph_Driver/src/stm32f4xx_tim.c ****   
 949:../Libraries/STM32F4xx_StdPeriph_Driver/src/stm32f4xx_tim.c ****   if((TIMx == TIM1) || (TIMx == TIM8))
 26197              		.loc 1 949 0
 26198 0968 7A68     		ldr	r2, [r7, #4]
 26199 096a 134B     		ldr	r3, .L65
 26200 096c 9A42     		cmp	r2, r3
 26201 096e 03D0     		beq	.L63
 26202              		.loc 1 949 0 is_stmt 0 discriminator 1
 26203 0970 7A68     		ldr	r2, [r7, #4]
 26204 0972 124B     		ldr	r3, .L65+4
 26205 0974 9A42     		cmp	r2, r3
 26206 0976 0CD1     		bne	.L64
 26207              	.L63:
 950:../Libraries/STM32F4xx_StdPeriph_Driver/src/stm32f4xx_tim.c ****   {
 951:../Libraries/STM32F4xx_StdPeriph_Driver/src/stm32f4xx_tim.c ****     assert_param(IS_TIM_OCIDLE_STATE(TIM_OCInitStruct->TIM_OCIdleState));
 952:../Libraries/STM32F4xx_StdPeriph_Driver/src/stm32f4xx_tim.c ****     /* Reset the Output Compare IDLE State */
 953:../Libraries/STM32F4xx_StdPeriph_Driver/src/stm32f4xx_tim.c ****     tmpcr2 &=(uint16_t) ~TIM_CR2_OIS4;
 26208              		.loc 1 953 0 is_stmt 1
 26209 0978 FB89     		ldrh	r3, [r7, #14]	@ movhi
 26210 097a 23F48043 		bic	r3, r3, #16384
 26211 097e FB81     		strh	r3, [r7, #14]	@ movhi
 954:../Libraries/STM32F4xx_StdPeriph_Driver/src/stm32f4xx_tim.c ****     /* Set the Output Idle state */
 955:../Libraries/STM32F4xx_StdPeriph_Driver/src/stm32f4xx_tim.c ****     tmpcr2 |= (uint16_t)(TIM_OCInitStruct->TIM_OCIdleState << 6);
 26212              		.loc 1 955 0
 26213 0980 3B68     		ldr	r3, [r7, #0]
 26214 0982 1B8A     		ldrh	r3, [r3, #16]
 26215 0984 4FEA8313 		lsl	r3, r3, #6
 26216 0988 9AB2     		uxth	r2, r3
 26217 098a FB89     		ldrh	r3, [r7, #14]	@ movhi
 26218 098c 42EA0303 		orr	r3, r2, r3
 26219 0990 FB81     		strh	r3, [r7, #14]	@ movhi
 26220              	.L64:
 956:../Libraries/STM32F4xx_StdPeriph_Driver/src/stm32f4xx_tim.c ****   }
 957:../Libraries/STM32F4xx_StdPeriph_Driver/src/stm32f4xx_tim.c ****   /* Write to TIMx CR2 */
 958:../Libraries/STM32F4xx_StdPeriph_Driver/src/stm32f4xx_tim.c ****   TIMx->CR2 = tmpcr2;
 26221              		.loc 1 958 0
 26222 0992 7B68     		ldr	r3, [r7, #4]
 26223 0994 FA89     		ldrh	r2, [r7, #14]	@ movhi
 26224 0996 9A80     		strh	r2, [r3, #4]	@ movhi
 959:../Libraries/STM32F4xx_StdPeriph_Driver/src/stm32f4xx_tim.c ****   
 960:../Libraries/STM32F4xx_StdPeriph_Driver/src/stm32f4xx_tim.c ****   /* Write to TIMx CCMR2 */  
 961:../Libraries/STM32F4xx_StdPeriph_Driver/src/stm32f4xx_tim.c ****   TIMx->CCMR2 = tmpccmrx;
 26225              		.loc 1 961 0
 26226 0998 7B68     		ldr	r3, [r7, #4]
 26227 099a BA89     		ldrh	r2, [r7, #12]	@ movhi
 26228 099c 9A83     		strh	r2, [r3, #28]	@ movhi
 962:../Libraries/STM32F4xx_StdPeriph_Driver/src/stm32f4xx_tim.c ****     
 963:../Libraries/STM32F4xx_StdPeriph_Driver/src/stm32f4xx_tim.c ****   /* Set the Capture Compare Register value */
 964:../Libraries/STM32F4xx_StdPeriph_Driver/src/stm32f4xx_tim.c ****   TIMx->CCR4 = TIM_OCInitStruct->TIM_Pulse;
 26229              		.loc 1 964 0
 26230 099e 3B68     		ldr	r3, [r7, #0]
 26231 09a0 9A68     		ldr	r2, [r3, #8]
 26232 09a2 7B68     		ldr	r3, [r7, #4]
 26233 09a4 1A64     		str	r2, [r3, #64]
 965:../Libraries/STM32F4xx_StdPeriph_Driver/src/stm32f4xx_tim.c ****   
 966:../Libraries/STM32F4xx_StdPeriph_Driver/src/stm32f4xx_tim.c ****   /* Write to TIMx CCER */
 967:../Libraries/STM32F4xx_StdPeriph_Driver/src/stm32f4xx_tim.c ****   TIMx->CCER = tmpccer;
 26234              		.loc 1 967 0
 26235 09a6 7B68     		ldr	r3, [r7, #4]
 26236 09a8 7A89     		ldrh	r2, [r7, #10]	@ movhi
 26237 09aa 1A84     		strh	r2, [r3, #32]	@ movhi
 968:../Libraries/STM32F4xx_StdPeriph_Driver/src/stm32f4xx_tim.c **** }
 26238              		.loc 1 968 0
 26239 09ac 07F11407 		add	r7, r7, #20
 26240 09b0 BD46     		mov	sp, r7
 26241 09b2 80BC     		pop	{r7}
 26242 09b4 7047     		bx	lr
 26243              	.L66:
 26244 09b6 00BF     		.align	2
 26245              	.L65:
 26246 09b8 00000140 		.word	1073807360
 26247 09bc 00040140 		.word	1073808384
 26248              		.cfi_endproc
 26249              	.LFE128:
 26251              		.align	2
 26252              		.global	TIM_OCStructInit
 26253              		.thumb
 26254              		.thumb_func
 26256              	TIM_OCStructInit:
 26257              	.LFB129:
 969:../Libraries/STM32F4xx_StdPeriph_Driver/src/stm32f4xx_tim.c **** 
 970:../Libraries/STM32F4xx_StdPeriph_Driver/src/stm32f4xx_tim.c **** /**
 971:../Libraries/STM32F4xx_StdPeriph_Driver/src/stm32f4xx_tim.c ****   * @brief  Fills each TIM_OCInitStruct member with its default value.
 972:../Libraries/STM32F4xx_StdPeriph_Driver/src/stm32f4xx_tim.c ****   * @param  TIM_OCInitStruct: pointer to a TIM_OCInitTypeDef structure which will
 973:../Libraries/STM32F4xx_StdPeriph_Driver/src/stm32f4xx_tim.c ****   *         be initialized.
 974:../Libraries/STM32F4xx_StdPeriph_Driver/src/stm32f4xx_tim.c ****   * @retval None
 975:../Libraries/STM32F4xx_StdPeriph_Driver/src/stm32f4xx_tim.c ****   */
 976:../Libraries/STM32F4xx_StdPeriph_Driver/src/stm32f4xx_tim.c **** void TIM_OCStructInit(TIM_OCInitTypeDef* TIM_OCInitStruct)
 977:../Libraries/STM32F4xx_StdPeriph_Driver/src/stm32f4xx_tim.c **** {
 26258              		.loc 1 977 0
 26259              		.cfi_startproc
 26260              		@ args = 0, pretend = 0, frame = 8
 26261              		@ frame_needed = 1, uses_anonymous_args = 0
 26262              		@ link register save eliminated.
 26263 09c0 80B4     		push	{r7}
 26264              	.LCFI57:
 26265              		.cfi_def_cfa_offset 4
 26266 09c2 83B0     		sub	sp, sp, #12
 26267              	.LCFI58:
 26268              		.cfi_def_cfa_offset 16
 26269 09c4 00AF     		add	r7, sp, #0
 26270              		.cfi_offset 7, -4
 26271              	.LCFI59:
 26272              		.cfi_def_cfa_register 7
 26273 09c6 7860     		str	r0, [r7, #4]
 978:../Libraries/STM32F4xx_StdPeriph_Driver/src/stm32f4xx_tim.c ****   /* Set the default configuration */
 979:../Libraries/STM32F4xx_StdPeriph_Driver/src/stm32f4xx_tim.c ****   TIM_OCInitStruct->TIM_OCMode = TIM_OCMode_Timing;
 26274              		.loc 1 979 0
 26275 09c8 7B68     		ldr	r3, [r7, #4]
 26276 09ca 4FF00002 		mov	r2, #0
 26277 09ce 1A80     		strh	r2, [r3, #0]	@ movhi
 980:../Libraries/STM32F4xx_StdPeriph_Driver/src/stm32f4xx_tim.c ****   TIM_OCInitStruct->TIM_OutputState = TIM_OutputState_Disable;
 26278              		.loc 1 980 0
 26279 09d0 7B68     		ldr	r3, [r7, #4]
 26280 09d2 4FF00002 		mov	r2, #0
 26281 09d6 5A80     		strh	r2, [r3, #2]	@ movhi
 981:../Libraries/STM32F4xx_StdPeriph_Driver/src/stm32f4xx_tim.c ****   TIM_OCInitStruct->TIM_OutputNState = TIM_OutputNState_Disable;
 26282              		.loc 1 981 0
 26283 09d8 7B68     		ldr	r3, [r7, #4]
 26284 09da 4FF00002 		mov	r2, #0
 26285 09de 9A80     		strh	r2, [r3, #4]	@ movhi
 982:../Libraries/STM32F4xx_StdPeriph_Driver/src/stm32f4xx_tim.c ****   TIM_OCInitStruct->TIM_Pulse = 0x00000000;
 26286              		.loc 1 982 0
 26287 09e0 7B68     		ldr	r3, [r7, #4]
 26288 09e2 4FF00002 		mov	r2, #0
 26289 09e6 9A60     		str	r2, [r3, #8]
 983:../Libraries/STM32F4xx_StdPeriph_Driver/src/stm32f4xx_tim.c ****   TIM_OCInitStruct->TIM_OCPolarity = TIM_OCPolarity_High;
 26290              		.loc 1 983 0
 26291 09e8 7B68     		ldr	r3, [r7, #4]
 26292 09ea 4FF00002 		mov	r2, #0
 26293 09ee 9A81     		strh	r2, [r3, #12]	@ movhi
 984:../Libraries/STM32F4xx_StdPeriph_Driver/src/stm32f4xx_tim.c ****   TIM_OCInitStruct->TIM_OCNPolarity = TIM_OCPolarity_High;
 26294              		.loc 1 984 0
 26295 09f0 7B68     		ldr	r3, [r7, #4]
 26296 09f2 4FF00002 		mov	r2, #0
 26297 09f6 DA81     		strh	r2, [r3, #14]	@ movhi
 985:../Libraries/STM32F4xx_StdPeriph_Driver/src/stm32f4xx_tim.c ****   TIM_OCInitStruct->TIM_OCIdleState = TIM_OCIdleState_Reset;
 26298              		.loc 1 985 0
 26299 09f8 7B68     		ldr	r3, [r7, #4]
 26300 09fa 4FF00002 		mov	r2, #0
 26301 09fe 1A82     		strh	r2, [r3, #16]	@ movhi
 986:../Libraries/STM32F4xx_StdPeriph_Driver/src/stm32f4xx_tim.c ****   TIM_OCInitStruct->TIM_OCNIdleState = TIM_OCNIdleState_Reset;
 26302              		.loc 1 986 0
 26303 0a00 7B68     		ldr	r3, [r7, #4]
 26304 0a02 4FF00002 		mov	r2, #0
 26305 0a06 5A82     		strh	r2, [r3, #18]	@ movhi
 987:../Libraries/STM32F4xx_StdPeriph_Driver/src/stm32f4xx_tim.c **** }
 26306              		.loc 1 987 0
 26307 0a08 07F10C07 		add	r7, r7, #12
 26308 0a0c BD46     		mov	sp, r7
 26309 0a0e 80BC     		pop	{r7}
 26310 0a10 7047     		bx	lr
 26311              		.cfi_endproc
 26312              	.LFE129:
 26314 0a12 00BF     		.align	2
 26315              		.global	TIM_SelectOCxM
 26316              		.thumb
 26317              		.thumb_func
 26319              	TIM_SelectOCxM:
 26320              	.LFB130:
 988:../Libraries/STM32F4xx_StdPeriph_Driver/src/stm32f4xx_tim.c **** 
 989:../Libraries/STM32F4xx_StdPeriph_Driver/src/stm32f4xx_tim.c **** /**
 990:../Libraries/STM32F4xx_StdPeriph_Driver/src/stm32f4xx_tim.c ****   * @brief  Selects the TIM Output Compare Mode.
 991:../Libraries/STM32F4xx_StdPeriph_Driver/src/stm32f4xx_tim.c ****   * @note   This function disables the selected channel before changing the Output
 992:../Libraries/STM32F4xx_StdPeriph_Driver/src/stm32f4xx_tim.c ****   *         Compare Mode. If needed, user has to enable this channel using
 993:../Libraries/STM32F4xx_StdPeriph_Driver/src/stm32f4xx_tim.c ****   *         TIM_CCxCmd() and TIM_CCxNCmd() functions.
 994:../Libraries/STM32F4xx_StdPeriph_Driver/src/stm32f4xx_tim.c ****   * @param  TIMx: where x can be 1 to 14 except 6 and 7, to select the TIM peripheral.
 995:../Libraries/STM32F4xx_StdPeriph_Driver/src/stm32f4xx_tim.c ****   * @param  TIM_Channel: specifies the TIM Channel
 996:../Libraries/STM32F4xx_StdPeriph_Driver/src/stm32f4xx_tim.c ****   *          This parameter can be one of the following values:
 997:../Libraries/STM32F4xx_StdPeriph_Driver/src/stm32f4xx_tim.c ****   *            @arg TIM_Channel_1: TIM Channel 1
 998:../Libraries/STM32F4xx_StdPeriph_Driver/src/stm32f4xx_tim.c ****   *            @arg TIM_Channel_2: TIM Channel 2
 999:../Libraries/STM32F4xx_StdPeriph_Driver/src/stm32f4xx_tim.c ****   *            @arg TIM_Channel_3: TIM Channel 3
1000:../Libraries/STM32F4xx_StdPeriph_Driver/src/stm32f4xx_tim.c ****   *            @arg TIM_Channel_4: TIM Channel 4
1001:../Libraries/STM32F4xx_StdPeriph_Driver/src/stm32f4xx_tim.c ****   * @param  TIM_OCMode: specifies the TIM Output Compare Mode.
1002:../Libraries/STM32F4xx_StdPeriph_Driver/src/stm32f4xx_tim.c ****   *           This parameter can be one of the following values:
1003:../Libraries/STM32F4xx_StdPeriph_Driver/src/stm32f4xx_tim.c ****   *            @arg TIM_OCMode_Timing
1004:../Libraries/STM32F4xx_StdPeriph_Driver/src/stm32f4xx_tim.c ****   *            @arg TIM_OCMode_Active
1005:../Libraries/STM32F4xx_StdPeriph_Driver/src/stm32f4xx_tim.c ****   *            @arg TIM_OCMode_Toggle
1006:../Libraries/STM32F4xx_StdPeriph_Driver/src/stm32f4xx_tim.c ****   *            @arg TIM_OCMode_PWM1
1007:../Libraries/STM32F4xx_StdPeriph_Driver/src/stm32f4xx_tim.c ****   *            @arg TIM_OCMode_PWM2
1008:../Libraries/STM32F4xx_StdPeriph_Driver/src/stm32f4xx_tim.c ****   *            @arg TIM_ForcedAction_Active
1009:../Libraries/STM32F4xx_StdPeriph_Driver/src/stm32f4xx_tim.c ****   *            @arg TIM_ForcedAction_InActive
1010:../Libraries/STM32F4xx_StdPeriph_Driver/src/stm32f4xx_tim.c ****   * @retval None
1011:../Libraries/STM32F4xx_StdPeriph_Driver/src/stm32f4xx_tim.c ****   */
1012:../Libraries/STM32F4xx_StdPeriph_Driver/src/stm32f4xx_tim.c **** void TIM_SelectOCxM(TIM_TypeDef* TIMx, uint16_t TIM_Channel, uint16_t TIM_OCMode)
1013:../Libraries/STM32F4xx_StdPeriph_Driver/src/stm32f4xx_tim.c **** {
 26321              		.loc 1 1013 0
 26322              		.cfi_startproc
 26323              		@ args = 0, pretend = 0, frame = 16
 26324              		@ frame_needed = 1, uses_anonymous_args = 0
 26325              		@ link register save eliminated.
 26326 0a14 80B4     		push	{r7}
 26327              	.LCFI60:
 26328              		.cfi_def_cfa_offset 4
 26329 0a16 85B0     		sub	sp, sp, #20
 26330              	.LCFI61:
 26331              		.cfi_def_cfa_offset 24
 26332 0a18 00AF     		add	r7, sp, #0
 26333              		.cfi_offset 7, -4
 26334              	.LCFI62:
 26335              		.cfi_def_cfa_register 7
 26336 0a1a 7860     		str	r0, [r7, #4]
 26337 0a1c 1346     		mov	r3, r2
 26338 0a1e 0A46     		mov	r2, r1	@ movhi
 26339 0a20 7A80     		strh	r2, [r7, #2]	@ movhi
 26340 0a22 3B80     		strh	r3, [r7, #0]	@ movhi
1014:../Libraries/STM32F4xx_StdPeriph_Driver/src/stm32f4xx_tim.c ****   uint32_t tmp = 0;
 26341              		.loc 1 1014 0
 26342 0a24 4FF00003 		mov	r3, #0
 26343 0a28 FB60     		str	r3, [r7, #12]
1015:../Libraries/STM32F4xx_StdPeriph_Driver/src/stm32f4xx_tim.c ****   uint16_t tmp1 = 0;
 26344              		.loc 1 1015 0
 26345 0a2a 4FF00003 		mov	r3, #0
 26346 0a2e 7B81     		strh	r3, [r7, #10]	@ movhi
1016:../Libraries/STM32F4xx_StdPeriph_Driver/src/stm32f4xx_tim.c **** 
1017:../Libraries/STM32F4xx_StdPeriph_Driver/src/stm32f4xx_tim.c ****   /* Check the parameters */
1018:../Libraries/STM32F4xx_StdPeriph_Driver/src/stm32f4xx_tim.c ****   assert_param(IS_TIM_LIST1_PERIPH(TIMx));
1019:../Libraries/STM32F4xx_StdPeriph_Driver/src/stm32f4xx_tim.c ****   assert_param(IS_TIM_CHANNEL(TIM_Channel));
1020:../Libraries/STM32F4xx_StdPeriph_Driver/src/stm32f4xx_tim.c ****   assert_param(IS_TIM_OCM(TIM_OCMode));
1021:../Libraries/STM32F4xx_StdPeriph_Driver/src/stm32f4xx_tim.c **** 
1022:../Libraries/STM32F4xx_StdPeriph_Driver/src/stm32f4xx_tim.c ****   tmp = (uint32_t) TIMx;
 26347              		.loc 1 1022 0
 26348 0a30 7B68     		ldr	r3, [r7, #4]
 26349 0a32 FB60     		str	r3, [r7, #12]
1023:../Libraries/STM32F4xx_StdPeriph_Driver/src/stm32f4xx_tim.c ****   tmp += CCMR_OFFSET;
 26350              		.loc 1 1023 0
 26351 0a34 FB68     		ldr	r3, [r7, #12]
 26352 0a36 03F11803 		add	r3, r3, #24
 26353 0a3a FB60     		str	r3, [r7, #12]
1024:../Libraries/STM32F4xx_StdPeriph_Driver/src/stm32f4xx_tim.c **** 
1025:../Libraries/STM32F4xx_StdPeriph_Driver/src/stm32f4xx_tim.c ****   tmp1 = CCER_CCE_SET << (uint16_t)TIM_Channel;
 26354              		.loc 1 1025 0
 26355 0a3c 7B88     		ldrh	r3, [r7, #2]
 26356 0a3e 4FF00102 		mov	r2, #1
 26357 0a42 02FA03F3 		lsl	r3, r2, r3
 26358 0a46 7B81     		strh	r3, [r7, #10]	@ movhi
1026:../Libraries/STM32F4xx_StdPeriph_Driver/src/stm32f4xx_tim.c **** 
1027:../Libraries/STM32F4xx_StdPeriph_Driver/src/stm32f4xx_tim.c ****   /* Disable the Channel: Reset the CCxE Bit */
1028:../Libraries/STM32F4xx_StdPeriph_Driver/src/stm32f4xx_tim.c ****   TIMx->CCER &= (uint16_t) ~tmp1;
 26359              		.loc 1 1028 0
 26360 0a48 7B68     		ldr	r3, [r7, #4]
 26361 0a4a 1B8C     		ldrh	r3, [r3, #32]	@ movhi
 26362 0a4c 9AB2     		uxth	r2, r3
 26363 0a4e 7B89     		ldrh	r3, [r7, #10]	@ movhi
 26364 0a50 6FEA0303 		mvn	r3, r3
 26365 0a54 9BB2     		uxth	r3, r3
 26366 0a56 02EA0303 		and	r3, r2, r3
 26367 0a5a 9AB2     		uxth	r2, r3
 26368 0a5c 7B68     		ldr	r3, [r7, #4]
 26369 0a5e 1A84     		strh	r2, [r3, #32]	@ movhi
1029:../Libraries/STM32F4xx_StdPeriph_Driver/src/stm32f4xx_tim.c **** 
1030:../Libraries/STM32F4xx_StdPeriph_Driver/src/stm32f4xx_tim.c ****   if((TIM_Channel == TIM_Channel_1) ||(TIM_Channel == TIM_Channel_3))
 26370              		.loc 1 1030 0
 26371 0a60 7B88     		ldrh	r3, [r7, #2]
 26372 0a62 002B     		cmp	r3, #0
 26373 0a64 02D0     		beq	.L69
 26374              		.loc 1 1030 0 is_stmt 0 discriminator 1
 26375 0a66 7B88     		ldrh	r3, [r7, #2]
 26376 0a68 082B     		cmp	r3, #8
 26377 0a6a 16D1     		bne	.L70
 26378              	.L69:
1031:../Libraries/STM32F4xx_StdPeriph_Driver/src/stm32f4xx_tim.c ****   {
1032:../Libraries/STM32F4xx_StdPeriph_Driver/src/stm32f4xx_tim.c ****     tmp += (TIM_Channel>>1);
 26379              		.loc 1 1032 0 is_stmt 1
 26380 0a6c 7B88     		ldrh	r3, [r7, #2]
 26381 0a6e 4FEA5303 		lsr	r3, r3, #1
 26382 0a72 9BB2     		uxth	r3, r3
 26383 0a74 FA68     		ldr	r2, [r7, #12]
 26384 0a76 D318     		adds	r3, r2, r3
 26385 0a78 FB60     		str	r3, [r7, #12]
1033:../Libraries/STM32F4xx_StdPeriph_Driver/src/stm32f4xx_tim.c **** 
1034:../Libraries/STM32F4xx_StdPeriph_Driver/src/stm32f4xx_tim.c ****     /* Reset the OCxM bits in the CCMRx register */
1035:../Libraries/STM32F4xx_StdPeriph_Driver/src/stm32f4xx_tim.c ****     *(__IO uint32_t *) tmp &= CCMR_OC13M_MASK;
 26386              		.loc 1 1035 0
 26387 0a7a FA68     		ldr	r2, [r7, #12]
 26388 0a7c FB68     		ldr	r3, [r7, #12]
 26389 0a7e 1968     		ldr	r1, [r3, #0]
 26390 0a80 4FF68F73 		movw	r3, #65423
 26391 0a84 01EA0303 		and	r3, r1, r3
 26392 0a88 1360     		str	r3, [r2, #0]
1036:../Libraries/STM32F4xx_StdPeriph_Driver/src/stm32f4xx_tim.c ****    
1037:../Libraries/STM32F4xx_StdPeriph_Driver/src/stm32f4xx_tim.c ****     /* Configure the OCxM bits in the CCMRx register */
1038:../Libraries/STM32F4xx_StdPeriph_Driver/src/stm32f4xx_tim.c ****     *(__IO uint32_t *) tmp |= TIM_OCMode;
 26393              		.loc 1 1038 0
 26394 0a8a FB68     		ldr	r3, [r7, #12]
 26395 0a8c FA68     		ldr	r2, [r7, #12]
 26396 0a8e 1168     		ldr	r1, [r2, #0]
 26397 0a90 3A88     		ldrh	r2, [r7, #0]
 26398 0a92 41EA0202 		orr	r2, r1, r2
 26399 0a96 1A60     		str	r2, [r3, #0]
 26400 0a98 1BE0     		b	.L68
 26401              	.L70:
1039:../Libraries/STM32F4xx_StdPeriph_Driver/src/stm32f4xx_tim.c ****   }
1040:../Libraries/STM32F4xx_StdPeriph_Driver/src/stm32f4xx_tim.c ****   else
1041:../Libraries/STM32F4xx_StdPeriph_Driver/src/stm32f4xx_tim.c ****   {
1042:../Libraries/STM32F4xx_StdPeriph_Driver/src/stm32f4xx_tim.c ****     tmp += (uint16_t)(TIM_Channel - (uint16_t)4)>> (uint16_t)1;
 26402              		.loc 1 1042 0
 26403 0a9a 7B88     		ldrh	r3, [r7, #2]	@ movhi
 26404 0a9c A3F10403 		sub	r3, r3, #4
 26405 0aa0 9BB2     		uxth	r3, r3
 26406 0aa2 4FEA5303 		lsr	r3, r3, #1
 26407 0aa6 9BB2     		uxth	r3, r3
 26408 0aa8 FA68     		ldr	r2, [r7, #12]
 26409 0aaa D318     		adds	r3, r2, r3
 26410 0aac FB60     		str	r3, [r7, #12]
1043:../Libraries/STM32F4xx_StdPeriph_Driver/src/stm32f4xx_tim.c **** 
1044:../Libraries/STM32F4xx_StdPeriph_Driver/src/stm32f4xx_tim.c ****     /* Reset the OCxM bits in the CCMRx register */
1045:../Libraries/STM32F4xx_StdPeriph_Driver/src/stm32f4xx_tim.c ****     *(__IO uint32_t *) tmp &= CCMR_OC24M_MASK;
 26411              		.loc 1 1045 0
 26412 0aae FA68     		ldr	r2, [r7, #12]
 26413 0ab0 FB68     		ldr	r3, [r7, #12]
 26414 0ab2 1968     		ldr	r1, [r3, #0]
 26415 0ab4 48F6FF73 		movw	r3, #36863
 26416 0ab8 01EA0303 		and	r3, r1, r3
 26417 0abc 1360     		str	r3, [r2, #0]
1046:../Libraries/STM32F4xx_StdPeriph_Driver/src/stm32f4xx_tim.c ****     
1047:../Libraries/STM32F4xx_StdPeriph_Driver/src/stm32f4xx_tim.c ****     /* Configure the OCxM bits in the CCMRx register */
1048:../Libraries/STM32F4xx_StdPeriph_Driver/src/stm32f4xx_tim.c ****     *(__IO uint32_t *) tmp |= (uint16_t)(TIM_OCMode << 8);
 26418              		.loc 1 1048 0
 26419 0abe FB68     		ldr	r3, [r7, #12]
 26420 0ac0 FA68     		ldr	r2, [r7, #12]
 26421 0ac2 1168     		ldr	r1, [r2, #0]
 26422 0ac4 3A88     		ldrh	r2, [r7, #0]	@ movhi
 26423 0ac6 4FEA0222 		lsl	r2, r2, #8
 26424 0aca 92B2     		uxth	r2, r2
 26425 0acc 41EA0202 		orr	r2, r1, r2
 26426 0ad0 1A60     		str	r2, [r3, #0]
 26427              	.L68:
1049:../Libraries/STM32F4xx_StdPeriph_Driver/src/stm32f4xx_tim.c ****   }
1050:../Libraries/STM32F4xx_StdPeriph_Driver/src/stm32f4xx_tim.c **** }
 26428              		.loc 1 1050 0
 26429 0ad2 07F11407 		add	r7, r7, #20
 26430 0ad6 BD46     		mov	sp, r7
 26431 0ad8 80BC     		pop	{r7}
 26432 0ada 7047     		bx	lr
 26433              		.cfi_endproc
 26434              	.LFE130:
 26436              		.align	2
 26437              		.global	TIM_SetCompare1
 26438              		.thumb
 26439              		.thumb_func
 26441              	TIM_SetCompare1:
 26442              	.LFB131:
1051:../Libraries/STM32F4xx_StdPeriph_Driver/src/stm32f4xx_tim.c **** 
1052:../Libraries/STM32F4xx_StdPeriph_Driver/src/stm32f4xx_tim.c **** /**
1053:../Libraries/STM32F4xx_StdPeriph_Driver/src/stm32f4xx_tim.c ****   * @brief  Sets the TIMx Capture Compare1 Register value
1054:../Libraries/STM32F4xx_StdPeriph_Driver/src/stm32f4xx_tim.c ****   * @param  TIMx: where x can be 1 to 14 except 6 and 7, to select the TIM peripheral.
1055:../Libraries/STM32F4xx_StdPeriph_Driver/src/stm32f4xx_tim.c ****   * @param  Compare1: specifies the Capture Compare1 register new value.
1056:../Libraries/STM32F4xx_StdPeriph_Driver/src/stm32f4xx_tim.c ****   * @retval None
1057:../Libraries/STM32F4xx_StdPeriph_Driver/src/stm32f4xx_tim.c ****   */
1058:../Libraries/STM32F4xx_StdPeriph_Driver/src/stm32f4xx_tim.c **** void TIM_SetCompare1(TIM_TypeDef* TIMx, uint32_t Compare1)
1059:../Libraries/STM32F4xx_StdPeriph_Driver/src/stm32f4xx_tim.c **** {
 26443              		.loc 1 1059 0
 26444              		.cfi_startproc
 26445              		@ args = 0, pretend = 0, frame = 8
 26446              		@ frame_needed = 1, uses_anonymous_args = 0
 26447              		@ link register save eliminated.
 26448 0adc 80B4     		push	{r7}
 26449              	.LCFI63:
 26450              		.cfi_def_cfa_offset 4
 26451 0ade 83B0     		sub	sp, sp, #12
 26452              	.LCFI64:
 26453              		.cfi_def_cfa_offset 16
 26454 0ae0 00AF     		add	r7, sp, #0
 26455              		.cfi_offset 7, -4
 26456              	.LCFI65:
 26457              		.cfi_def_cfa_register 7
 26458 0ae2 7860     		str	r0, [r7, #4]
 26459 0ae4 3960     		str	r1, [r7, #0]
1060:../Libraries/STM32F4xx_StdPeriph_Driver/src/stm32f4xx_tim.c ****   /* Check the parameters */
1061:../Libraries/STM32F4xx_StdPeriph_Driver/src/stm32f4xx_tim.c ****   assert_param(IS_TIM_LIST1_PERIPH(TIMx));
1062:../Libraries/STM32F4xx_StdPeriph_Driver/src/stm32f4xx_tim.c **** 
1063:../Libraries/STM32F4xx_StdPeriph_Driver/src/stm32f4xx_tim.c ****   /* Set the Capture Compare1 Register value */
1064:../Libraries/STM32F4xx_StdPeriph_Driver/src/stm32f4xx_tim.c ****   TIMx->CCR1 = Compare1;
 26460              		.loc 1 1064 0
 26461 0ae6 7B68     		ldr	r3, [r7, #4]
 26462 0ae8 3A68     		ldr	r2, [r7, #0]
 26463 0aea 5A63     		str	r2, [r3, #52]
1065:../Libraries/STM32F4xx_StdPeriph_Driver/src/stm32f4xx_tim.c **** }
 26464              		.loc 1 1065 0
 26465 0aec 07F10C07 		add	r7, r7, #12
 26466 0af0 BD46     		mov	sp, r7
 26467 0af2 80BC     		pop	{r7}
 26468 0af4 7047     		bx	lr
 26469              		.cfi_endproc
 26470              	.LFE131:
 26472 0af6 00BF     		.align	2
 26473              		.global	TIM_SetCompare2
 26474              		.thumb
 26475              		.thumb_func
 26477              	TIM_SetCompare2:
 26478              	.LFB132:
1066:../Libraries/STM32F4xx_StdPeriph_Driver/src/stm32f4xx_tim.c **** 
1067:../Libraries/STM32F4xx_StdPeriph_Driver/src/stm32f4xx_tim.c **** /**
1068:../Libraries/STM32F4xx_StdPeriph_Driver/src/stm32f4xx_tim.c ****   * @brief  Sets the TIMx Capture Compare2 Register value
1069:../Libraries/STM32F4xx_StdPeriph_Driver/src/stm32f4xx_tim.c ****   * @param  TIMx: where x can be 1, 2, 3, 4, 5, 8, 9 or 12 to select the TIM 
1070:../Libraries/STM32F4xx_StdPeriph_Driver/src/stm32f4xx_tim.c ****   *         peripheral.
1071:../Libraries/STM32F4xx_StdPeriph_Driver/src/stm32f4xx_tim.c ****   * @param  Compare2: specifies the Capture Compare2 register new value.
1072:../Libraries/STM32F4xx_StdPeriph_Driver/src/stm32f4xx_tim.c ****   * @retval None
1073:../Libraries/STM32F4xx_StdPeriph_Driver/src/stm32f4xx_tim.c ****   */
1074:../Libraries/STM32F4xx_StdPeriph_Driver/src/stm32f4xx_tim.c **** void TIM_SetCompare2(TIM_TypeDef* TIMx, uint32_t Compare2)
1075:../Libraries/STM32F4xx_StdPeriph_Driver/src/stm32f4xx_tim.c **** {
 26479              		.loc 1 1075 0
 26480              		.cfi_startproc
 26481              		@ args = 0, pretend = 0, frame = 8
 26482              		@ frame_needed = 1, uses_anonymous_args = 0
 26483              		@ link register save eliminated.
 26484 0af8 80B4     		push	{r7}
 26485              	.LCFI66:
 26486              		.cfi_def_cfa_offset 4
 26487 0afa 83B0     		sub	sp, sp, #12
 26488              	.LCFI67:
 26489              		.cfi_def_cfa_offset 16
 26490 0afc 00AF     		add	r7, sp, #0
 26491              		.cfi_offset 7, -4
 26492              	.LCFI68:
 26493              		.cfi_def_cfa_register 7
 26494 0afe 7860     		str	r0, [r7, #4]
 26495 0b00 3960     		str	r1, [r7, #0]
1076:../Libraries/STM32F4xx_StdPeriph_Driver/src/stm32f4xx_tim.c ****   /* Check the parameters */
1077:../Libraries/STM32F4xx_StdPeriph_Driver/src/stm32f4xx_tim.c ****   assert_param(IS_TIM_LIST2_PERIPH(TIMx));
1078:../Libraries/STM32F4xx_StdPeriph_Driver/src/stm32f4xx_tim.c **** 
1079:../Libraries/STM32F4xx_StdPeriph_Driver/src/stm32f4xx_tim.c ****   /* Set the Capture Compare2 Register value */
1080:../Libraries/STM32F4xx_StdPeriph_Driver/src/stm32f4xx_tim.c ****   TIMx->CCR2 = Compare2;
 26496              		.loc 1 1080 0
 26497 0b02 7B68     		ldr	r3, [r7, #4]
 26498 0b04 3A68     		ldr	r2, [r7, #0]
 26499 0b06 9A63     		str	r2, [r3, #56]
1081:../Libraries/STM32F4xx_StdPeriph_Driver/src/stm32f4xx_tim.c **** }
 26500              		.loc 1 1081 0
 26501 0b08 07F10C07 		add	r7, r7, #12
 26502 0b0c BD46     		mov	sp, r7
 26503 0b0e 80BC     		pop	{r7}
 26504 0b10 7047     		bx	lr
 26505              		.cfi_endproc
 26506              	.LFE132:
 26508 0b12 00BF     		.align	2
 26509              		.global	TIM_SetCompare3
 26510              		.thumb
 26511              		.thumb_func
 26513              	TIM_SetCompare3:
 26514              	.LFB133:
1082:../Libraries/STM32F4xx_StdPeriph_Driver/src/stm32f4xx_tim.c **** 
1083:../Libraries/STM32F4xx_StdPeriph_Driver/src/stm32f4xx_tim.c **** /**
1084:../Libraries/STM32F4xx_StdPeriph_Driver/src/stm32f4xx_tim.c ****   * @brief  Sets the TIMx Capture Compare3 Register value
1085:../Libraries/STM32F4xx_StdPeriph_Driver/src/stm32f4xx_tim.c ****   * @param  TIMx: where x can be 1, 2, 3, 4, 5 or 8 to select the TIM peripheral.
1086:../Libraries/STM32F4xx_StdPeriph_Driver/src/stm32f4xx_tim.c ****   * @param  Compare3: specifies the Capture Compare3 register new value.
1087:../Libraries/STM32F4xx_StdPeriph_Driver/src/stm32f4xx_tim.c ****   * @retval None
1088:../Libraries/STM32F4xx_StdPeriph_Driver/src/stm32f4xx_tim.c ****   */
1089:../Libraries/STM32F4xx_StdPeriph_Driver/src/stm32f4xx_tim.c **** void TIM_SetCompare3(TIM_TypeDef* TIMx, uint32_t Compare3)
1090:../Libraries/STM32F4xx_StdPeriph_Driver/src/stm32f4xx_tim.c **** {
 26515              		.loc 1 1090 0
 26516              		.cfi_startproc
 26517              		@ args = 0, pretend = 0, frame = 8
 26518              		@ frame_needed = 1, uses_anonymous_args = 0
 26519              		@ link register save eliminated.
 26520 0b14 80B4     		push	{r7}
 26521              	.LCFI69:
 26522              		.cfi_def_cfa_offset 4
 26523 0b16 83B0     		sub	sp, sp, #12
 26524              	.LCFI70:
 26525              		.cfi_def_cfa_offset 16
 26526 0b18 00AF     		add	r7, sp, #0
 26527              		.cfi_offset 7, -4
 26528              	.LCFI71:
 26529              		.cfi_def_cfa_register 7
 26530 0b1a 7860     		str	r0, [r7, #4]
 26531 0b1c 3960     		str	r1, [r7, #0]
1091:../Libraries/STM32F4xx_StdPeriph_Driver/src/stm32f4xx_tim.c ****   /* Check the parameters */
1092:../Libraries/STM32F4xx_StdPeriph_Driver/src/stm32f4xx_tim.c ****   assert_param(IS_TIM_LIST3_PERIPH(TIMx));
1093:../Libraries/STM32F4xx_StdPeriph_Driver/src/stm32f4xx_tim.c **** 
1094:../Libraries/STM32F4xx_StdPeriph_Driver/src/stm32f4xx_tim.c ****   /* Set the Capture Compare3 Register value */
1095:../Libraries/STM32F4xx_StdPeriph_Driver/src/stm32f4xx_tim.c ****   TIMx->CCR3 = Compare3;
 26532              		.loc 1 1095 0
 26533 0b1e 7B68     		ldr	r3, [r7, #4]
 26534 0b20 3A68     		ldr	r2, [r7, #0]
 26535 0b22 DA63     		str	r2, [r3, #60]
1096:../Libraries/STM32F4xx_StdPeriph_Driver/src/stm32f4xx_tim.c **** }
 26536              		.loc 1 1096 0
 26537 0b24 07F10C07 		add	r7, r7, #12
 26538 0b28 BD46     		mov	sp, r7
 26539 0b2a 80BC     		pop	{r7}
 26540 0b2c 7047     		bx	lr
 26541              		.cfi_endproc
 26542              	.LFE133:
 26544 0b2e 00BF     		.align	2
 26545              		.global	TIM_SetCompare4
 26546              		.thumb
 26547              		.thumb_func
 26549              	TIM_SetCompare4:
 26550              	.LFB134:
1097:../Libraries/STM32F4xx_StdPeriph_Driver/src/stm32f4xx_tim.c **** 
1098:../Libraries/STM32F4xx_StdPeriph_Driver/src/stm32f4xx_tim.c **** /**
1099:../Libraries/STM32F4xx_StdPeriph_Driver/src/stm32f4xx_tim.c ****   * @brief  Sets the TIMx Capture Compare4 Register value
1100:../Libraries/STM32F4xx_StdPeriph_Driver/src/stm32f4xx_tim.c ****   * @param  TIMx: where x can be 1, 2, 3, 4, 5 or 8 to select the TIM peripheral.
1101:../Libraries/STM32F4xx_StdPeriph_Driver/src/stm32f4xx_tim.c ****   * @param  Compare4: specifies the Capture Compare4 register new value.
1102:../Libraries/STM32F4xx_StdPeriph_Driver/src/stm32f4xx_tim.c ****   * @retval None
1103:../Libraries/STM32F4xx_StdPeriph_Driver/src/stm32f4xx_tim.c ****   */
1104:../Libraries/STM32F4xx_StdPeriph_Driver/src/stm32f4xx_tim.c **** void TIM_SetCompare4(TIM_TypeDef* TIMx, uint32_t Compare4)
1105:../Libraries/STM32F4xx_StdPeriph_Driver/src/stm32f4xx_tim.c **** {
 26551              		.loc 1 1105 0
 26552              		.cfi_startproc
 26553              		@ args = 0, pretend = 0, frame = 8
 26554              		@ frame_needed = 1, uses_anonymous_args = 0
 26555              		@ link register save eliminated.
 26556 0b30 80B4     		push	{r7}
 26557              	.LCFI72:
 26558              		.cfi_def_cfa_offset 4
 26559 0b32 83B0     		sub	sp, sp, #12
 26560              	.LCFI73:
 26561              		.cfi_def_cfa_offset 16
 26562 0b34 00AF     		add	r7, sp, #0
 26563              		.cfi_offset 7, -4
 26564              	.LCFI74:
 26565              		.cfi_def_cfa_register 7
 26566 0b36 7860     		str	r0, [r7, #4]
 26567 0b38 3960     		str	r1, [r7, #0]
1106:../Libraries/STM32F4xx_StdPeriph_Driver/src/stm32f4xx_tim.c ****   /* Check the parameters */
1107:../Libraries/STM32F4xx_StdPeriph_Driver/src/stm32f4xx_tim.c ****   assert_param(IS_TIM_LIST3_PERIPH(TIMx));
1108:../Libraries/STM32F4xx_StdPeriph_Driver/src/stm32f4xx_tim.c **** 
1109:../Libraries/STM32F4xx_StdPeriph_Driver/src/stm32f4xx_tim.c ****   /* Set the Capture Compare4 Register value */
1110:../Libraries/STM32F4xx_StdPeriph_Driver/src/stm32f4xx_tim.c ****   TIMx->CCR4 = Compare4;
 26568              		.loc 1 1110 0
 26569 0b3a 7B68     		ldr	r3, [r7, #4]
 26570 0b3c 3A68     		ldr	r2, [r7, #0]
 26571 0b3e 1A64     		str	r2, [r3, #64]
1111:../Libraries/STM32F4xx_StdPeriph_Driver/src/stm32f4xx_tim.c **** }
 26572              		.loc 1 1111 0
 26573 0b40 07F10C07 		add	r7, r7, #12
 26574 0b44 BD46     		mov	sp, r7
 26575 0b46 80BC     		pop	{r7}
 26576 0b48 7047     		bx	lr
 26577              		.cfi_endproc
 26578              	.LFE134:
 26580 0b4a 00BF     		.align	2
 26581              		.global	TIM_ForcedOC1Config
 26582              		.thumb
 26583              		.thumb_func
 26585              	TIM_ForcedOC1Config:
 26586              	.LFB135:
1112:../Libraries/STM32F4xx_StdPeriph_Driver/src/stm32f4xx_tim.c **** 
1113:../Libraries/STM32F4xx_StdPeriph_Driver/src/stm32f4xx_tim.c **** /**
1114:../Libraries/STM32F4xx_StdPeriph_Driver/src/stm32f4xx_tim.c ****   * @brief  Forces the TIMx output 1 waveform to active or inactive level.
1115:../Libraries/STM32F4xx_StdPeriph_Driver/src/stm32f4xx_tim.c ****   * @param  TIMx: where x can be 1 to 14 except 6 and 7, to select the TIM peripheral.
1116:../Libraries/STM32F4xx_StdPeriph_Driver/src/stm32f4xx_tim.c ****   * @param  TIM_ForcedAction: specifies the forced Action to be set to the output waveform.
1117:../Libraries/STM32F4xx_StdPeriph_Driver/src/stm32f4xx_tim.c ****   *          This parameter can be one of the following values:
1118:../Libraries/STM32F4xx_StdPeriph_Driver/src/stm32f4xx_tim.c ****   *            @arg TIM_ForcedAction_Active: Force active level on OC1REF
1119:../Libraries/STM32F4xx_StdPeriph_Driver/src/stm32f4xx_tim.c ****   *            @arg TIM_ForcedAction_InActive: Force inactive level on OC1REF.
1120:../Libraries/STM32F4xx_StdPeriph_Driver/src/stm32f4xx_tim.c ****   * @retval None
1121:../Libraries/STM32F4xx_StdPeriph_Driver/src/stm32f4xx_tim.c ****   */
1122:../Libraries/STM32F4xx_StdPeriph_Driver/src/stm32f4xx_tim.c **** void TIM_ForcedOC1Config(TIM_TypeDef* TIMx, uint16_t TIM_ForcedAction)
1123:../Libraries/STM32F4xx_StdPeriph_Driver/src/stm32f4xx_tim.c **** {
 26587              		.loc 1 1123 0
 26588              		.cfi_startproc
 26589              		@ args = 0, pretend = 0, frame = 16
 26590              		@ frame_needed = 1, uses_anonymous_args = 0
 26591              		@ link register save eliminated.
 26592 0b4c 80B4     		push	{r7}
 26593              	.LCFI75:
 26594              		.cfi_def_cfa_offset 4
 26595 0b4e 85B0     		sub	sp, sp, #20
 26596              	.LCFI76:
 26597              		.cfi_def_cfa_offset 24
 26598 0b50 00AF     		add	r7, sp, #0
 26599              		.cfi_offset 7, -4
 26600              	.LCFI77:
 26601              		.cfi_def_cfa_register 7
 26602 0b52 7860     		str	r0, [r7, #4]
 26603 0b54 0B46     		mov	r3, r1
 26604 0b56 7B80     		strh	r3, [r7, #2]	@ movhi
1124:../Libraries/STM32F4xx_StdPeriph_Driver/src/stm32f4xx_tim.c ****   uint16_t tmpccmr1 = 0;
 26605              		.loc 1 1124 0
 26606 0b58 4FF00003 		mov	r3, #0
 26607 0b5c FB81     		strh	r3, [r7, #14]	@ movhi
1125:../Libraries/STM32F4xx_StdPeriph_Driver/src/stm32f4xx_tim.c **** 
1126:../Libraries/STM32F4xx_StdPeriph_Driver/src/stm32f4xx_tim.c ****   /* Check the parameters */
1127:../Libraries/STM32F4xx_StdPeriph_Driver/src/stm32f4xx_tim.c ****   assert_param(IS_TIM_LIST1_PERIPH(TIMx));
1128:../Libraries/STM32F4xx_StdPeriph_Driver/src/stm32f4xx_tim.c ****   assert_param(IS_TIM_FORCED_ACTION(TIM_ForcedAction));
1129:../Libraries/STM32F4xx_StdPeriph_Driver/src/stm32f4xx_tim.c ****   tmpccmr1 = TIMx->CCMR1;
 26608              		.loc 1 1129 0
 26609 0b5e 7B68     		ldr	r3, [r7, #4]
 26610 0b60 1B8B     		ldrh	r3, [r3, #24]	@ movhi
 26611 0b62 FB81     		strh	r3, [r7, #14]	@ movhi
1130:../Libraries/STM32F4xx_StdPeriph_Driver/src/stm32f4xx_tim.c **** 
1131:../Libraries/STM32F4xx_StdPeriph_Driver/src/stm32f4xx_tim.c ****   /* Reset the OC1M Bits */
1132:../Libraries/STM32F4xx_StdPeriph_Driver/src/stm32f4xx_tim.c ****   tmpccmr1 &= (uint16_t)~TIM_CCMR1_OC1M;
 26612              		.loc 1 1132 0
 26613 0b64 FB89     		ldrh	r3, [r7, #14]	@ movhi
 26614 0b66 23F07003 		bic	r3, r3, #112
 26615 0b6a FB81     		strh	r3, [r7, #14]	@ movhi
1133:../Libraries/STM32F4xx_StdPeriph_Driver/src/stm32f4xx_tim.c **** 
1134:../Libraries/STM32F4xx_StdPeriph_Driver/src/stm32f4xx_tim.c ****   /* Configure The Forced output Mode */
1135:../Libraries/STM32F4xx_StdPeriph_Driver/src/stm32f4xx_tim.c ****   tmpccmr1 |= TIM_ForcedAction;
 26616              		.loc 1 1135 0
 26617 0b6c FA89     		ldrh	r2, [r7, #14]	@ movhi
 26618 0b6e 7B88     		ldrh	r3, [r7, #2]	@ movhi
 26619 0b70 42EA0303 		orr	r3, r2, r3
 26620 0b74 FB81     		strh	r3, [r7, #14]	@ movhi
1136:../Libraries/STM32F4xx_StdPeriph_Driver/src/stm32f4xx_tim.c **** 
1137:../Libraries/STM32F4xx_StdPeriph_Driver/src/stm32f4xx_tim.c ****   /* Write to TIMx CCMR1 register */
1138:../Libraries/STM32F4xx_StdPeriph_Driver/src/stm32f4xx_tim.c ****   TIMx->CCMR1 = tmpccmr1;
 26621              		.loc 1 1138 0
 26622 0b76 7B68     		ldr	r3, [r7, #4]
 26623 0b78 FA89     		ldrh	r2, [r7, #14]	@ movhi
 26624 0b7a 1A83     		strh	r2, [r3, #24]	@ movhi
1139:../Libraries/STM32F4xx_StdPeriph_Driver/src/stm32f4xx_tim.c **** }
 26625              		.loc 1 1139 0
 26626 0b7c 07F11407 		add	r7, r7, #20
 26627 0b80 BD46     		mov	sp, r7
 26628 0b82 80BC     		pop	{r7}
 26629 0b84 7047     		bx	lr
 26630              		.cfi_endproc
 26631              	.LFE135:
 26633 0b86 00BF     		.align	2
 26634              		.global	TIM_ForcedOC2Config
 26635              		.thumb
 26636              		.thumb_func
 26638              	TIM_ForcedOC2Config:
 26639              	.LFB136:
1140:../Libraries/STM32F4xx_StdPeriph_Driver/src/stm32f4xx_tim.c **** 
1141:../Libraries/STM32F4xx_StdPeriph_Driver/src/stm32f4xx_tim.c **** /**
1142:../Libraries/STM32F4xx_StdPeriph_Driver/src/stm32f4xx_tim.c ****   * @brief  Forces the TIMx output 2 waveform to active or inactive level.
1143:../Libraries/STM32F4xx_StdPeriph_Driver/src/stm32f4xx_tim.c ****   * @param  TIMx: where x can be  1, 2, 3, 4, 5, 8, 9 or 12 to select the TIM 
1144:../Libraries/STM32F4xx_StdPeriph_Driver/src/stm32f4xx_tim.c ****   *         peripheral.
1145:../Libraries/STM32F4xx_StdPeriph_Driver/src/stm32f4xx_tim.c ****   * @param  TIM_ForcedAction: specifies the forced Action to be set to the output waveform.
1146:../Libraries/STM32F4xx_StdPeriph_Driver/src/stm32f4xx_tim.c ****   *          This parameter can be one of the following values:
1147:../Libraries/STM32F4xx_StdPeriph_Driver/src/stm32f4xx_tim.c ****   *            @arg TIM_ForcedAction_Active: Force active level on OC2REF
1148:../Libraries/STM32F4xx_StdPeriph_Driver/src/stm32f4xx_tim.c ****   *            @arg TIM_ForcedAction_InActive: Force inactive level on OC2REF.
1149:../Libraries/STM32F4xx_StdPeriph_Driver/src/stm32f4xx_tim.c ****   * @retval None
1150:../Libraries/STM32F4xx_StdPeriph_Driver/src/stm32f4xx_tim.c ****   */
1151:../Libraries/STM32F4xx_StdPeriph_Driver/src/stm32f4xx_tim.c **** void TIM_ForcedOC2Config(TIM_TypeDef* TIMx, uint16_t TIM_ForcedAction)
1152:../Libraries/STM32F4xx_StdPeriph_Driver/src/stm32f4xx_tim.c **** {
 26640              		.loc 1 1152 0
 26641              		.cfi_startproc
 26642              		@ args = 0, pretend = 0, frame = 16
 26643              		@ frame_needed = 1, uses_anonymous_args = 0
 26644              		@ link register save eliminated.
 26645 0b88 80B4     		push	{r7}
 26646              	.LCFI78:
 26647              		.cfi_def_cfa_offset 4
 26648 0b8a 85B0     		sub	sp, sp, #20
 26649              	.LCFI79:
 26650              		.cfi_def_cfa_offset 24
 26651 0b8c 00AF     		add	r7, sp, #0
 26652              		.cfi_offset 7, -4
 26653              	.LCFI80:
 26654              		.cfi_def_cfa_register 7
 26655 0b8e 7860     		str	r0, [r7, #4]
 26656 0b90 0B46     		mov	r3, r1
 26657 0b92 7B80     		strh	r3, [r7, #2]	@ movhi
1153:../Libraries/STM32F4xx_StdPeriph_Driver/src/stm32f4xx_tim.c ****   uint16_t tmpccmr1 = 0;
 26658              		.loc 1 1153 0
 26659 0b94 4FF00003 		mov	r3, #0
 26660 0b98 FB81     		strh	r3, [r7, #14]	@ movhi
1154:../Libraries/STM32F4xx_StdPeriph_Driver/src/stm32f4xx_tim.c **** 
1155:../Libraries/STM32F4xx_StdPeriph_Driver/src/stm32f4xx_tim.c ****   /* Check the parameters */
1156:../Libraries/STM32F4xx_StdPeriph_Driver/src/stm32f4xx_tim.c ****   assert_param(IS_TIM_LIST2_PERIPH(TIMx));
1157:../Libraries/STM32F4xx_StdPeriph_Driver/src/stm32f4xx_tim.c ****   assert_param(IS_TIM_FORCED_ACTION(TIM_ForcedAction));
1158:../Libraries/STM32F4xx_StdPeriph_Driver/src/stm32f4xx_tim.c ****   tmpccmr1 = TIMx->CCMR1;
 26661              		.loc 1 1158 0
 26662 0b9a 7B68     		ldr	r3, [r7, #4]
 26663 0b9c 1B8B     		ldrh	r3, [r3, #24]	@ movhi
 26664 0b9e FB81     		strh	r3, [r7, #14]	@ movhi
1159:../Libraries/STM32F4xx_StdPeriph_Driver/src/stm32f4xx_tim.c **** 
1160:../Libraries/STM32F4xx_StdPeriph_Driver/src/stm32f4xx_tim.c ****   /* Reset the OC2M Bits */
1161:../Libraries/STM32F4xx_StdPeriph_Driver/src/stm32f4xx_tim.c ****   tmpccmr1 &= (uint16_t)~TIM_CCMR1_OC2M;
 26665              		.loc 1 1161 0
 26666 0ba0 FB89     		ldrh	r3, [r7, #14]	@ movhi
 26667 0ba2 23F4E043 		bic	r3, r3, #28672
 26668 0ba6 FB81     		strh	r3, [r7, #14]	@ movhi
1162:../Libraries/STM32F4xx_StdPeriph_Driver/src/stm32f4xx_tim.c **** 
1163:../Libraries/STM32F4xx_StdPeriph_Driver/src/stm32f4xx_tim.c ****   /* Configure The Forced output Mode */
1164:../Libraries/STM32F4xx_StdPeriph_Driver/src/stm32f4xx_tim.c ****   tmpccmr1 |= (uint16_t)(TIM_ForcedAction << 8);
 26669              		.loc 1 1164 0
 26670 0ba8 7B88     		ldrh	r3, [r7, #2]	@ movhi
 26671 0baa 4FEA0323 		lsl	r3, r3, #8
 26672 0bae 9AB2     		uxth	r2, r3
 26673 0bb0 FB89     		ldrh	r3, [r7, #14]	@ movhi
 26674 0bb2 42EA0303 		orr	r3, r2, r3
 26675 0bb6 FB81     		strh	r3, [r7, #14]	@ movhi
1165:../Libraries/STM32F4xx_StdPeriph_Driver/src/stm32f4xx_tim.c **** 
1166:../Libraries/STM32F4xx_StdPeriph_Driver/src/stm32f4xx_tim.c ****   /* Write to TIMx CCMR1 register */
1167:../Libraries/STM32F4xx_StdPeriph_Driver/src/stm32f4xx_tim.c ****   TIMx->CCMR1 = tmpccmr1;
 26676              		.loc 1 1167 0
 26677 0bb8 7B68     		ldr	r3, [r7, #4]
 26678 0bba FA89     		ldrh	r2, [r7, #14]	@ movhi
 26679 0bbc 1A83     		strh	r2, [r3, #24]	@ movhi
1168:../Libraries/STM32F4xx_StdPeriph_Driver/src/stm32f4xx_tim.c **** }
 26680              		.loc 1 1168 0
 26681 0bbe 07F11407 		add	r7, r7, #20
 26682 0bc2 BD46     		mov	sp, r7
 26683 0bc4 80BC     		pop	{r7}
 26684 0bc6 7047     		bx	lr
 26685              		.cfi_endproc
 26686              	.LFE136:
 26688              		.align	2
 26689              		.global	TIM_ForcedOC3Config
 26690              		.thumb
 26691              		.thumb_func
 26693              	TIM_ForcedOC3Config:
 26694              	.LFB137:
1169:../Libraries/STM32F4xx_StdPeriph_Driver/src/stm32f4xx_tim.c **** 
1170:../Libraries/STM32F4xx_StdPeriph_Driver/src/stm32f4xx_tim.c **** /**
1171:../Libraries/STM32F4xx_StdPeriph_Driver/src/stm32f4xx_tim.c ****   * @brief  Forces the TIMx output 3 waveform to active or inactive level.
1172:../Libraries/STM32F4xx_StdPeriph_Driver/src/stm32f4xx_tim.c ****   * @param  TIMx: where x can be  1, 2, 3, 4, 5 or 8 to select the TIM peripheral.
1173:../Libraries/STM32F4xx_StdPeriph_Driver/src/stm32f4xx_tim.c ****   * @param  TIM_ForcedAction: specifies the forced Action to be set to the output waveform.
1174:../Libraries/STM32F4xx_StdPeriph_Driver/src/stm32f4xx_tim.c ****   *          This parameter can be one of the following values:
1175:../Libraries/STM32F4xx_StdPeriph_Driver/src/stm32f4xx_tim.c ****   *            @arg TIM_ForcedAction_Active: Force active level on OC3REF
1176:../Libraries/STM32F4xx_StdPeriph_Driver/src/stm32f4xx_tim.c ****   *            @arg TIM_ForcedAction_InActive: Force inactive level on OC3REF.
1177:../Libraries/STM32F4xx_StdPeriph_Driver/src/stm32f4xx_tim.c ****   * @retval None
1178:../Libraries/STM32F4xx_StdPeriph_Driver/src/stm32f4xx_tim.c ****   */
1179:../Libraries/STM32F4xx_StdPeriph_Driver/src/stm32f4xx_tim.c **** void TIM_ForcedOC3Config(TIM_TypeDef* TIMx, uint16_t TIM_ForcedAction)
1180:../Libraries/STM32F4xx_StdPeriph_Driver/src/stm32f4xx_tim.c **** {
 26695              		.loc 1 1180 0
 26696              		.cfi_startproc
 26697              		@ args = 0, pretend = 0, frame = 16
 26698              		@ frame_needed = 1, uses_anonymous_args = 0
 26699              		@ link register save eliminated.
 26700 0bc8 80B4     		push	{r7}
 26701              	.LCFI81:
 26702              		.cfi_def_cfa_offset 4
 26703 0bca 85B0     		sub	sp, sp, #20
 26704              	.LCFI82:
 26705              		.cfi_def_cfa_offset 24
 26706 0bcc 00AF     		add	r7, sp, #0
 26707              		.cfi_offset 7, -4
 26708              	.LCFI83:
 26709              		.cfi_def_cfa_register 7
 26710 0bce 7860     		str	r0, [r7, #4]
 26711 0bd0 0B46     		mov	r3, r1
 26712 0bd2 7B80     		strh	r3, [r7, #2]	@ movhi
1181:../Libraries/STM32F4xx_StdPeriph_Driver/src/stm32f4xx_tim.c ****   uint16_t tmpccmr2 = 0;
 26713              		.loc 1 1181 0
 26714 0bd4 4FF00003 		mov	r3, #0
 26715 0bd8 FB81     		strh	r3, [r7, #14]	@ movhi
1182:../Libraries/STM32F4xx_StdPeriph_Driver/src/stm32f4xx_tim.c **** 
1183:../Libraries/STM32F4xx_StdPeriph_Driver/src/stm32f4xx_tim.c ****   /* Check the parameters */
1184:../Libraries/STM32F4xx_StdPeriph_Driver/src/stm32f4xx_tim.c ****   assert_param(IS_TIM_LIST3_PERIPH(TIMx));
1185:../Libraries/STM32F4xx_StdPeriph_Driver/src/stm32f4xx_tim.c ****   assert_param(IS_TIM_FORCED_ACTION(TIM_ForcedAction));
1186:../Libraries/STM32F4xx_StdPeriph_Driver/src/stm32f4xx_tim.c **** 
1187:../Libraries/STM32F4xx_StdPeriph_Driver/src/stm32f4xx_tim.c ****   tmpccmr2 = TIMx->CCMR2;
 26716              		.loc 1 1187 0
 26717 0bda 7B68     		ldr	r3, [r7, #4]
 26718 0bdc 9B8B     		ldrh	r3, [r3, #28]	@ movhi
 26719 0bde FB81     		strh	r3, [r7, #14]	@ movhi
1188:../Libraries/STM32F4xx_StdPeriph_Driver/src/stm32f4xx_tim.c **** 
1189:../Libraries/STM32F4xx_StdPeriph_Driver/src/stm32f4xx_tim.c ****   /* Reset the OC1M Bits */
1190:../Libraries/STM32F4xx_StdPeriph_Driver/src/stm32f4xx_tim.c ****   tmpccmr2 &= (uint16_t)~TIM_CCMR2_OC3M;
 26720              		.loc 1 1190 0
 26721 0be0 FB89     		ldrh	r3, [r7, #14]	@ movhi
 26722 0be2 23F07003 		bic	r3, r3, #112
 26723 0be6 FB81     		strh	r3, [r7, #14]	@ movhi
1191:../Libraries/STM32F4xx_StdPeriph_Driver/src/stm32f4xx_tim.c **** 
1192:../Libraries/STM32F4xx_StdPeriph_Driver/src/stm32f4xx_tim.c ****   /* Configure The Forced output Mode */
1193:../Libraries/STM32F4xx_StdPeriph_Driver/src/stm32f4xx_tim.c ****   tmpccmr2 |= TIM_ForcedAction;
 26724              		.loc 1 1193 0
 26725 0be8 FA89     		ldrh	r2, [r7, #14]	@ movhi
 26726 0bea 7B88     		ldrh	r3, [r7, #2]	@ movhi
 26727 0bec 42EA0303 		orr	r3, r2, r3
 26728 0bf0 FB81     		strh	r3, [r7, #14]	@ movhi
1194:../Libraries/STM32F4xx_StdPeriph_Driver/src/stm32f4xx_tim.c **** 
1195:../Libraries/STM32F4xx_StdPeriph_Driver/src/stm32f4xx_tim.c ****   /* Write to TIMx CCMR2 register */
1196:../Libraries/STM32F4xx_StdPeriph_Driver/src/stm32f4xx_tim.c ****   TIMx->CCMR2 = tmpccmr2;
 26729              		.loc 1 1196 0
 26730 0bf2 7B68     		ldr	r3, [r7, #4]
 26731 0bf4 FA89     		ldrh	r2, [r7, #14]	@ movhi
 26732 0bf6 9A83     		strh	r2, [r3, #28]	@ movhi
1197:../Libraries/STM32F4xx_StdPeriph_Driver/src/stm32f4xx_tim.c **** }
 26733              		.loc 1 1197 0
 26734 0bf8 07F11407 		add	r7, r7, #20
 26735 0bfc BD46     		mov	sp, r7
 26736 0bfe 80BC     		pop	{r7}
 26737 0c00 7047     		bx	lr
 26738              		.cfi_endproc
 26739              	.LFE137:
 26741 0c02 00BF     		.align	2
 26742              		.global	TIM_ForcedOC4Config
 26743              		.thumb
 26744              		.thumb_func
 26746              	TIM_ForcedOC4Config:
 26747              	.LFB138:
1198:../Libraries/STM32F4xx_StdPeriph_Driver/src/stm32f4xx_tim.c **** 
1199:../Libraries/STM32F4xx_StdPeriph_Driver/src/stm32f4xx_tim.c **** /**
1200:../Libraries/STM32F4xx_StdPeriph_Driver/src/stm32f4xx_tim.c ****   * @brief  Forces the TIMx output 4 waveform to active or inactive level.
1201:../Libraries/STM32F4xx_StdPeriph_Driver/src/stm32f4xx_tim.c ****   * @param  TIMx: where x can be  1, 2, 3, 4, 5 or 8 to select the TIM peripheral.
1202:../Libraries/STM32F4xx_StdPeriph_Driver/src/stm32f4xx_tim.c ****   * @param  TIM_ForcedAction: specifies the forced Action to be set to the output waveform.
1203:../Libraries/STM32F4xx_StdPeriph_Driver/src/stm32f4xx_tim.c ****   *          This parameter can be one of the following values:
1204:../Libraries/STM32F4xx_StdPeriph_Driver/src/stm32f4xx_tim.c ****   *            @arg TIM_ForcedAction_Active: Force active level on OC4REF
1205:../Libraries/STM32F4xx_StdPeriph_Driver/src/stm32f4xx_tim.c ****   *            @arg TIM_ForcedAction_InActive: Force inactive level on OC4REF.
1206:../Libraries/STM32F4xx_StdPeriph_Driver/src/stm32f4xx_tim.c ****   * @retval None
1207:../Libraries/STM32F4xx_StdPeriph_Driver/src/stm32f4xx_tim.c ****   */
1208:../Libraries/STM32F4xx_StdPeriph_Driver/src/stm32f4xx_tim.c **** void TIM_ForcedOC4Config(TIM_TypeDef* TIMx, uint16_t TIM_ForcedAction)
1209:../Libraries/STM32F4xx_StdPeriph_Driver/src/stm32f4xx_tim.c **** {
 26748              		.loc 1 1209 0
 26749              		.cfi_startproc
 26750              		@ args = 0, pretend = 0, frame = 16
 26751              		@ frame_needed = 1, uses_anonymous_args = 0
 26752              		@ link register save eliminated.
 26753 0c04 80B4     		push	{r7}
 26754              	.LCFI84:
 26755              		.cfi_def_cfa_offset 4
 26756 0c06 85B0     		sub	sp, sp, #20
 26757              	.LCFI85:
 26758              		.cfi_def_cfa_offset 24
 26759 0c08 00AF     		add	r7, sp, #0
 26760              		.cfi_offset 7, -4
 26761              	.LCFI86:
 26762              		.cfi_def_cfa_register 7
 26763 0c0a 7860     		str	r0, [r7, #4]
 26764 0c0c 0B46     		mov	r3, r1
 26765 0c0e 7B80     		strh	r3, [r7, #2]	@ movhi
1210:../Libraries/STM32F4xx_StdPeriph_Driver/src/stm32f4xx_tim.c ****   uint16_t tmpccmr2 = 0;
 26766              		.loc 1 1210 0
 26767 0c10 4FF00003 		mov	r3, #0
 26768 0c14 FB81     		strh	r3, [r7, #14]	@ movhi
1211:../Libraries/STM32F4xx_StdPeriph_Driver/src/stm32f4xx_tim.c **** 
1212:../Libraries/STM32F4xx_StdPeriph_Driver/src/stm32f4xx_tim.c ****   /* Check the parameters */
1213:../Libraries/STM32F4xx_StdPeriph_Driver/src/stm32f4xx_tim.c ****   assert_param(IS_TIM_LIST3_PERIPH(TIMx));
1214:../Libraries/STM32F4xx_StdPeriph_Driver/src/stm32f4xx_tim.c ****   assert_param(IS_TIM_FORCED_ACTION(TIM_ForcedAction));
1215:../Libraries/STM32F4xx_StdPeriph_Driver/src/stm32f4xx_tim.c ****   tmpccmr2 = TIMx->CCMR2;
 26769              		.loc 1 1215 0
 26770 0c16 7B68     		ldr	r3, [r7, #4]
 26771 0c18 9B8B     		ldrh	r3, [r3, #28]	@ movhi
 26772 0c1a FB81     		strh	r3, [r7, #14]	@ movhi
1216:../Libraries/STM32F4xx_StdPeriph_Driver/src/stm32f4xx_tim.c **** 
1217:../Libraries/STM32F4xx_StdPeriph_Driver/src/stm32f4xx_tim.c ****   /* Reset the OC2M Bits */
1218:../Libraries/STM32F4xx_StdPeriph_Driver/src/stm32f4xx_tim.c ****   tmpccmr2 &= (uint16_t)~TIM_CCMR2_OC4M;
 26773              		.loc 1 1218 0
 26774 0c1c FB89     		ldrh	r3, [r7, #14]	@ movhi
 26775 0c1e 23F4E043 		bic	r3, r3, #28672
 26776 0c22 FB81     		strh	r3, [r7, #14]	@ movhi
1219:../Libraries/STM32F4xx_StdPeriph_Driver/src/stm32f4xx_tim.c **** 
1220:../Libraries/STM32F4xx_StdPeriph_Driver/src/stm32f4xx_tim.c ****   /* Configure The Forced output Mode */
1221:../Libraries/STM32F4xx_StdPeriph_Driver/src/stm32f4xx_tim.c ****   tmpccmr2 |= (uint16_t)(TIM_ForcedAction << 8);
 26777              		.loc 1 1221 0
 26778 0c24 7B88     		ldrh	r3, [r7, #2]	@ movhi
 26779 0c26 4FEA0323 		lsl	r3, r3, #8
 26780 0c2a 9AB2     		uxth	r2, r3
 26781 0c2c FB89     		ldrh	r3, [r7, #14]	@ movhi
 26782 0c2e 42EA0303 		orr	r3, r2, r3
 26783 0c32 FB81     		strh	r3, [r7, #14]	@ movhi
1222:../Libraries/STM32F4xx_StdPeriph_Driver/src/stm32f4xx_tim.c **** 
1223:../Libraries/STM32F4xx_StdPeriph_Driver/src/stm32f4xx_tim.c ****   /* Write to TIMx CCMR2 register */
1224:../Libraries/STM32F4xx_StdPeriph_Driver/src/stm32f4xx_tim.c ****   TIMx->CCMR2 = tmpccmr2;
 26784              		.loc 1 1224 0
 26785 0c34 7B68     		ldr	r3, [r7, #4]
 26786 0c36 FA89     		ldrh	r2, [r7, #14]	@ movhi
 26787 0c38 9A83     		strh	r2, [r3, #28]	@ movhi
1225:../Libraries/STM32F4xx_StdPeriph_Driver/src/stm32f4xx_tim.c **** }
 26788              		.loc 1 1225 0
 26789 0c3a 07F11407 		add	r7, r7, #20
 26790 0c3e BD46     		mov	sp, r7
 26791 0c40 80BC     		pop	{r7}
 26792 0c42 7047     		bx	lr
 26793              		.cfi_endproc
 26794              	.LFE138:
 26796              		.align	2
 26797              		.global	TIM_OC1PreloadConfig
 26798              		.thumb
 26799              		.thumb_func
 26801              	TIM_OC1PreloadConfig:
 26802              	.LFB139:
1226:../Libraries/STM32F4xx_StdPeriph_Driver/src/stm32f4xx_tim.c **** 
1227:../Libraries/STM32F4xx_StdPeriph_Driver/src/stm32f4xx_tim.c **** /**
1228:../Libraries/STM32F4xx_StdPeriph_Driver/src/stm32f4xx_tim.c ****   * @brief  Enables or disables the TIMx peripheral Preload register on CCR1.
1229:../Libraries/STM32F4xx_StdPeriph_Driver/src/stm32f4xx_tim.c ****   * @param  TIMx: where x can be 1 to 14 except 6 and 7, to select the TIM peripheral.
1230:../Libraries/STM32F4xx_StdPeriph_Driver/src/stm32f4xx_tim.c ****   * @param  TIM_OCPreload: new state of the TIMx peripheral Preload register
1231:../Libraries/STM32F4xx_StdPeriph_Driver/src/stm32f4xx_tim.c ****   *          This parameter can be one of the following values:
1232:../Libraries/STM32F4xx_StdPeriph_Driver/src/stm32f4xx_tim.c ****   *            @arg TIM_OCPreload_Enable
1233:../Libraries/STM32F4xx_StdPeriph_Driver/src/stm32f4xx_tim.c ****   *            @arg TIM_OCPreload_Disable
1234:../Libraries/STM32F4xx_StdPeriph_Driver/src/stm32f4xx_tim.c ****   * @retval None
1235:../Libraries/STM32F4xx_StdPeriph_Driver/src/stm32f4xx_tim.c ****   */
1236:../Libraries/STM32F4xx_StdPeriph_Driver/src/stm32f4xx_tim.c **** void TIM_OC1PreloadConfig(TIM_TypeDef* TIMx, uint16_t TIM_OCPreload)
1237:../Libraries/STM32F4xx_StdPeriph_Driver/src/stm32f4xx_tim.c **** {
 26803              		.loc 1 1237 0
 26804              		.cfi_startproc
 26805              		@ args = 0, pretend = 0, frame = 16
 26806              		@ frame_needed = 1, uses_anonymous_args = 0
 26807              		@ link register save eliminated.
 26808 0c44 80B4     		push	{r7}
 26809              	.LCFI87:
 26810              		.cfi_def_cfa_offset 4
 26811 0c46 85B0     		sub	sp, sp, #20
 26812              	.LCFI88:
 26813              		.cfi_def_cfa_offset 24
 26814 0c48 00AF     		add	r7, sp, #0
 26815              		.cfi_offset 7, -4
 26816              	.LCFI89:
 26817              		.cfi_def_cfa_register 7
 26818 0c4a 7860     		str	r0, [r7, #4]
 26819 0c4c 0B46     		mov	r3, r1
 26820 0c4e 7B80     		strh	r3, [r7, #2]	@ movhi
1238:../Libraries/STM32F4xx_StdPeriph_Driver/src/stm32f4xx_tim.c ****   uint16_t tmpccmr1 = 0;
 26821              		.loc 1 1238 0
 26822 0c50 4FF00003 		mov	r3, #0
 26823 0c54 FB81     		strh	r3, [r7, #14]	@ movhi
1239:../Libraries/STM32F4xx_StdPeriph_Driver/src/stm32f4xx_tim.c **** 
1240:../Libraries/STM32F4xx_StdPeriph_Driver/src/stm32f4xx_tim.c ****   /* Check the parameters */
1241:../Libraries/STM32F4xx_StdPeriph_Driver/src/stm32f4xx_tim.c ****   assert_param(IS_TIM_LIST1_PERIPH(TIMx));
1242:../Libraries/STM32F4xx_StdPeriph_Driver/src/stm32f4xx_tim.c ****   assert_param(IS_TIM_OCPRELOAD_STATE(TIM_OCPreload));
1243:../Libraries/STM32F4xx_StdPeriph_Driver/src/stm32f4xx_tim.c **** 
1244:../Libraries/STM32F4xx_StdPeriph_Driver/src/stm32f4xx_tim.c ****   tmpccmr1 = TIMx->CCMR1;
 26824              		.loc 1 1244 0
 26825 0c56 7B68     		ldr	r3, [r7, #4]
 26826 0c58 1B8B     		ldrh	r3, [r3, #24]	@ movhi
 26827 0c5a FB81     		strh	r3, [r7, #14]	@ movhi
1245:../Libraries/STM32F4xx_StdPeriph_Driver/src/stm32f4xx_tim.c **** 
1246:../Libraries/STM32F4xx_StdPeriph_Driver/src/stm32f4xx_tim.c ****   /* Reset the OC1PE Bit */
1247:../Libraries/STM32F4xx_StdPeriph_Driver/src/stm32f4xx_tim.c ****   tmpccmr1 &= (uint16_t)(~TIM_CCMR1_OC1PE);
 26828              		.loc 1 1247 0
 26829 0c5c FB89     		ldrh	r3, [r7, #14]	@ movhi
 26830 0c5e 23F00803 		bic	r3, r3, #8
 26831 0c62 FB81     		strh	r3, [r7, #14]	@ movhi
1248:../Libraries/STM32F4xx_StdPeriph_Driver/src/stm32f4xx_tim.c **** 
1249:../Libraries/STM32F4xx_StdPeriph_Driver/src/stm32f4xx_tim.c ****   /* Enable or Disable the Output Compare Preload feature */
1250:../Libraries/STM32F4xx_StdPeriph_Driver/src/stm32f4xx_tim.c ****   tmpccmr1 |= TIM_OCPreload;
 26832              		.loc 1 1250 0
 26833 0c64 FA89     		ldrh	r2, [r7, #14]	@ movhi
 26834 0c66 7B88     		ldrh	r3, [r7, #2]	@ movhi
 26835 0c68 42EA0303 		orr	r3, r2, r3
 26836 0c6c FB81     		strh	r3, [r7, #14]	@ movhi
1251:../Libraries/STM32F4xx_StdPeriph_Driver/src/stm32f4xx_tim.c **** 
1252:../Libraries/STM32F4xx_StdPeriph_Driver/src/stm32f4xx_tim.c ****   /* Write to TIMx CCMR1 register */
1253:../Libraries/STM32F4xx_StdPeriph_Driver/src/stm32f4xx_tim.c ****   TIMx->CCMR1 = tmpccmr1;
 26837              		.loc 1 1253 0
 26838 0c6e 7B68     		ldr	r3, [r7, #4]
 26839 0c70 FA89     		ldrh	r2, [r7, #14]	@ movhi
 26840 0c72 1A83     		strh	r2, [r3, #24]	@ movhi
1254:../Libraries/STM32F4xx_StdPeriph_Driver/src/stm32f4xx_tim.c **** }
 26841              		.loc 1 1254 0
 26842 0c74 07F11407 		add	r7, r7, #20
 26843 0c78 BD46     		mov	sp, r7
 26844 0c7a 80BC     		pop	{r7}
 26845 0c7c 7047     		bx	lr
 26846              		.cfi_endproc
 26847              	.LFE139:
 26849 0c7e 00BF     		.align	2
 26850              		.global	TIM_OC2PreloadConfig
 26851              		.thumb
 26852              		.thumb_func
 26854              	TIM_OC2PreloadConfig:
 26855              	.LFB140:
1255:../Libraries/STM32F4xx_StdPeriph_Driver/src/stm32f4xx_tim.c **** 
1256:../Libraries/STM32F4xx_StdPeriph_Driver/src/stm32f4xx_tim.c **** /**
1257:../Libraries/STM32F4xx_StdPeriph_Driver/src/stm32f4xx_tim.c ****   * @brief  Enables or disables the TIMx peripheral Preload register on CCR2.
1258:../Libraries/STM32F4xx_StdPeriph_Driver/src/stm32f4xx_tim.c ****   * @param  TIMx: where x can be  1, 2, 3, 4, 5, 8, 9 or 12 to select the TIM 
1259:../Libraries/STM32F4xx_StdPeriph_Driver/src/stm32f4xx_tim.c ****   *         peripheral.
1260:../Libraries/STM32F4xx_StdPeriph_Driver/src/stm32f4xx_tim.c ****   * @param  TIM_OCPreload: new state of the TIMx peripheral Preload register
1261:../Libraries/STM32F4xx_StdPeriph_Driver/src/stm32f4xx_tim.c ****   *          This parameter can be one of the following values:
1262:../Libraries/STM32F4xx_StdPeriph_Driver/src/stm32f4xx_tim.c ****   *            @arg TIM_OCPreload_Enable
1263:../Libraries/STM32F4xx_StdPeriph_Driver/src/stm32f4xx_tim.c ****   *            @arg TIM_OCPreload_Disable
1264:../Libraries/STM32F4xx_StdPeriph_Driver/src/stm32f4xx_tim.c ****   * @retval None
1265:../Libraries/STM32F4xx_StdPeriph_Driver/src/stm32f4xx_tim.c ****   */
1266:../Libraries/STM32F4xx_StdPeriph_Driver/src/stm32f4xx_tim.c **** void TIM_OC2PreloadConfig(TIM_TypeDef* TIMx, uint16_t TIM_OCPreload)
1267:../Libraries/STM32F4xx_StdPeriph_Driver/src/stm32f4xx_tim.c **** {
 26856              		.loc 1 1267 0
 26857              		.cfi_startproc
 26858              		@ args = 0, pretend = 0, frame = 16
 26859              		@ frame_needed = 1, uses_anonymous_args = 0
 26860              		@ link register save eliminated.
 26861 0c80 80B4     		push	{r7}
 26862              	.LCFI90:
 26863              		.cfi_def_cfa_offset 4
 26864 0c82 85B0     		sub	sp, sp, #20
 26865              	.LCFI91:
 26866              		.cfi_def_cfa_offset 24
 26867 0c84 00AF     		add	r7, sp, #0
 26868              		.cfi_offset 7, -4
 26869              	.LCFI92:
 26870              		.cfi_def_cfa_register 7
 26871 0c86 7860     		str	r0, [r7, #4]
 26872 0c88 0B46     		mov	r3, r1
 26873 0c8a 7B80     		strh	r3, [r7, #2]	@ movhi
1268:../Libraries/STM32F4xx_StdPeriph_Driver/src/stm32f4xx_tim.c ****   uint16_t tmpccmr1 = 0;
 26874              		.loc 1 1268 0
 26875 0c8c 4FF00003 		mov	r3, #0
 26876 0c90 FB81     		strh	r3, [r7, #14]	@ movhi
1269:../Libraries/STM32F4xx_StdPeriph_Driver/src/stm32f4xx_tim.c **** 
1270:../Libraries/STM32F4xx_StdPeriph_Driver/src/stm32f4xx_tim.c ****   /* Check the parameters */
1271:../Libraries/STM32F4xx_StdPeriph_Driver/src/stm32f4xx_tim.c ****   assert_param(IS_TIM_LIST2_PERIPH(TIMx));
1272:../Libraries/STM32F4xx_StdPeriph_Driver/src/stm32f4xx_tim.c ****   assert_param(IS_TIM_OCPRELOAD_STATE(TIM_OCPreload));
1273:../Libraries/STM32F4xx_StdPeriph_Driver/src/stm32f4xx_tim.c **** 
1274:../Libraries/STM32F4xx_StdPeriph_Driver/src/stm32f4xx_tim.c ****   tmpccmr1 = TIMx->CCMR1;
 26877              		.loc 1 1274 0
 26878 0c92 7B68     		ldr	r3, [r7, #4]
 26879 0c94 1B8B     		ldrh	r3, [r3, #24]	@ movhi
 26880 0c96 FB81     		strh	r3, [r7, #14]	@ movhi
1275:../Libraries/STM32F4xx_StdPeriph_Driver/src/stm32f4xx_tim.c **** 
1276:../Libraries/STM32F4xx_StdPeriph_Driver/src/stm32f4xx_tim.c ****   /* Reset the OC2PE Bit */
1277:../Libraries/STM32F4xx_StdPeriph_Driver/src/stm32f4xx_tim.c ****   tmpccmr1 &= (uint16_t)(~TIM_CCMR1_OC2PE);
 26881              		.loc 1 1277 0
 26882 0c98 FB89     		ldrh	r3, [r7, #14]	@ movhi
 26883 0c9a 23F40063 		bic	r3, r3, #2048
 26884 0c9e FB81     		strh	r3, [r7, #14]	@ movhi
1278:../Libraries/STM32F4xx_StdPeriph_Driver/src/stm32f4xx_tim.c **** 
1279:../Libraries/STM32F4xx_StdPeriph_Driver/src/stm32f4xx_tim.c ****   /* Enable or Disable the Output Compare Preload feature */
1280:../Libraries/STM32F4xx_StdPeriph_Driver/src/stm32f4xx_tim.c ****   tmpccmr1 |= (uint16_t)(TIM_OCPreload << 8);
 26885              		.loc 1 1280 0
 26886 0ca0 7B88     		ldrh	r3, [r7, #2]	@ movhi
 26887 0ca2 4FEA0323 		lsl	r3, r3, #8
 26888 0ca6 9AB2     		uxth	r2, r3
 26889 0ca8 FB89     		ldrh	r3, [r7, #14]	@ movhi
 26890 0caa 42EA0303 		orr	r3, r2, r3
 26891 0cae FB81     		strh	r3, [r7, #14]	@ movhi
1281:../Libraries/STM32F4xx_StdPeriph_Driver/src/stm32f4xx_tim.c **** 
1282:../Libraries/STM32F4xx_StdPeriph_Driver/src/stm32f4xx_tim.c ****   /* Write to TIMx CCMR1 register */
1283:../Libraries/STM32F4xx_StdPeriph_Driver/src/stm32f4xx_tim.c ****   TIMx->CCMR1 = tmpccmr1;
 26892              		.loc 1 1283 0
 26893 0cb0 7B68     		ldr	r3, [r7, #4]
 26894 0cb2 FA89     		ldrh	r2, [r7, #14]	@ movhi
 26895 0cb4 1A83     		strh	r2, [r3, #24]	@ movhi
1284:../Libraries/STM32F4xx_StdPeriph_Driver/src/stm32f4xx_tim.c **** }
 26896              		.loc 1 1284 0
 26897 0cb6 07F11407 		add	r7, r7, #20
 26898 0cba BD46     		mov	sp, r7
 26899 0cbc 80BC     		pop	{r7}
 26900 0cbe 7047     		bx	lr
 26901              		.cfi_endproc
 26902              	.LFE140:
 26904              		.align	2
 26905              		.global	TIM_OC3PreloadConfig
 26906              		.thumb
 26907              		.thumb_func
 26909              	TIM_OC3PreloadConfig:
 26910              	.LFB141:
1285:../Libraries/STM32F4xx_StdPeriph_Driver/src/stm32f4xx_tim.c **** 
1286:../Libraries/STM32F4xx_StdPeriph_Driver/src/stm32f4xx_tim.c **** /**
1287:../Libraries/STM32F4xx_StdPeriph_Driver/src/stm32f4xx_tim.c ****   * @brief  Enables or disables the TIMx peripheral Preload register on CCR3.
1288:../Libraries/STM32F4xx_StdPeriph_Driver/src/stm32f4xx_tim.c ****   * @param  TIMx: where x can be  1, 2, 3, 4, 5 or 8 to select the TIM peripheral.
1289:../Libraries/STM32F4xx_StdPeriph_Driver/src/stm32f4xx_tim.c ****   * @param  TIM_OCPreload: new state of the TIMx peripheral Preload register
1290:../Libraries/STM32F4xx_StdPeriph_Driver/src/stm32f4xx_tim.c ****   *          This parameter can be one of the following values:
1291:../Libraries/STM32F4xx_StdPeriph_Driver/src/stm32f4xx_tim.c ****   *            @arg TIM_OCPreload_Enable
1292:../Libraries/STM32F4xx_StdPeriph_Driver/src/stm32f4xx_tim.c ****   *            @arg TIM_OCPreload_Disable
1293:../Libraries/STM32F4xx_StdPeriph_Driver/src/stm32f4xx_tim.c ****   * @retval None
1294:../Libraries/STM32F4xx_StdPeriph_Driver/src/stm32f4xx_tim.c ****   */
1295:../Libraries/STM32F4xx_StdPeriph_Driver/src/stm32f4xx_tim.c **** void TIM_OC3PreloadConfig(TIM_TypeDef* TIMx, uint16_t TIM_OCPreload)
1296:../Libraries/STM32F4xx_StdPeriph_Driver/src/stm32f4xx_tim.c **** {
 26911              		.loc 1 1296 0
 26912              		.cfi_startproc
 26913              		@ args = 0, pretend = 0, frame = 16
 26914              		@ frame_needed = 1, uses_anonymous_args = 0
 26915              		@ link register save eliminated.
 26916 0cc0 80B4     		push	{r7}
 26917              	.LCFI93:
 26918              		.cfi_def_cfa_offset 4
 26919 0cc2 85B0     		sub	sp, sp, #20
 26920              	.LCFI94:
 26921              		.cfi_def_cfa_offset 24
 26922 0cc4 00AF     		add	r7, sp, #0
 26923              		.cfi_offset 7, -4
 26924              	.LCFI95:
 26925              		.cfi_def_cfa_register 7
 26926 0cc6 7860     		str	r0, [r7, #4]
 26927 0cc8 0B46     		mov	r3, r1
 26928 0cca 7B80     		strh	r3, [r7, #2]	@ movhi
1297:../Libraries/STM32F4xx_StdPeriph_Driver/src/stm32f4xx_tim.c ****   uint16_t tmpccmr2 = 0;
 26929              		.loc 1 1297 0
 26930 0ccc 4FF00003 		mov	r3, #0
 26931 0cd0 FB81     		strh	r3, [r7, #14]	@ movhi
1298:../Libraries/STM32F4xx_StdPeriph_Driver/src/stm32f4xx_tim.c **** 
1299:../Libraries/STM32F4xx_StdPeriph_Driver/src/stm32f4xx_tim.c ****   /* Check the parameters */
1300:../Libraries/STM32F4xx_StdPeriph_Driver/src/stm32f4xx_tim.c ****   assert_param(IS_TIM_LIST3_PERIPH(TIMx));
1301:../Libraries/STM32F4xx_StdPeriph_Driver/src/stm32f4xx_tim.c ****   assert_param(IS_TIM_OCPRELOAD_STATE(TIM_OCPreload));
1302:../Libraries/STM32F4xx_StdPeriph_Driver/src/stm32f4xx_tim.c **** 
1303:../Libraries/STM32F4xx_StdPeriph_Driver/src/stm32f4xx_tim.c ****   tmpccmr2 = TIMx->CCMR2;
 26932              		.loc 1 1303 0
 26933 0cd2 7B68     		ldr	r3, [r7, #4]
 26934 0cd4 9B8B     		ldrh	r3, [r3, #28]	@ movhi
 26935 0cd6 FB81     		strh	r3, [r7, #14]	@ movhi
1304:../Libraries/STM32F4xx_StdPeriph_Driver/src/stm32f4xx_tim.c **** 
1305:../Libraries/STM32F4xx_StdPeriph_Driver/src/stm32f4xx_tim.c ****   /* Reset the OC3PE Bit */
1306:../Libraries/STM32F4xx_StdPeriph_Driver/src/stm32f4xx_tim.c ****   tmpccmr2 &= (uint16_t)(~TIM_CCMR2_OC3PE);
 26936              		.loc 1 1306 0
 26937 0cd8 FB89     		ldrh	r3, [r7, #14]	@ movhi
 26938 0cda 23F00803 		bic	r3, r3, #8
 26939 0cde FB81     		strh	r3, [r7, #14]	@ movhi
1307:../Libraries/STM32F4xx_StdPeriph_Driver/src/stm32f4xx_tim.c **** 
1308:../Libraries/STM32F4xx_StdPeriph_Driver/src/stm32f4xx_tim.c ****   /* Enable or Disable the Output Compare Preload feature */
1309:../Libraries/STM32F4xx_StdPeriph_Driver/src/stm32f4xx_tim.c ****   tmpccmr2 |= TIM_OCPreload;
 26940              		.loc 1 1309 0
 26941 0ce0 FA89     		ldrh	r2, [r7, #14]	@ movhi
 26942 0ce2 7B88     		ldrh	r3, [r7, #2]	@ movhi
 26943 0ce4 42EA0303 		orr	r3, r2, r3
 26944 0ce8 FB81     		strh	r3, [r7, #14]	@ movhi
1310:../Libraries/STM32F4xx_StdPeriph_Driver/src/stm32f4xx_tim.c **** 
1311:../Libraries/STM32F4xx_StdPeriph_Driver/src/stm32f4xx_tim.c ****   /* Write to TIMx CCMR2 register */
1312:../Libraries/STM32F4xx_StdPeriph_Driver/src/stm32f4xx_tim.c ****   TIMx->CCMR2 = tmpccmr2;
 26945              		.loc 1 1312 0
 26946 0cea 7B68     		ldr	r3, [r7, #4]
 26947 0cec FA89     		ldrh	r2, [r7, #14]	@ movhi
 26948 0cee 9A83     		strh	r2, [r3, #28]	@ movhi
1313:../Libraries/STM32F4xx_StdPeriph_Driver/src/stm32f4xx_tim.c **** }
 26949              		.loc 1 1313 0
 26950 0cf0 07F11407 		add	r7, r7, #20
 26951 0cf4 BD46     		mov	sp, r7
 26952 0cf6 80BC     		pop	{r7}
 26953 0cf8 7047     		bx	lr
 26954              		.cfi_endproc
 26955              	.LFE141:
 26957 0cfa 00BF     		.align	2
 26958              		.global	TIM_OC4PreloadConfig
 26959              		.thumb
 26960              		.thumb_func
 26962              	TIM_OC4PreloadConfig:
 26963              	.LFB142:
1314:../Libraries/STM32F4xx_StdPeriph_Driver/src/stm32f4xx_tim.c **** 
1315:../Libraries/STM32F4xx_StdPeriph_Driver/src/stm32f4xx_tim.c **** /**
1316:../Libraries/STM32F4xx_StdPeriph_Driver/src/stm32f4xx_tim.c ****   * @brief  Enables or disables the TIMx peripheral Preload register on CCR4.
1317:../Libraries/STM32F4xx_StdPeriph_Driver/src/stm32f4xx_tim.c ****   * @param  TIMx: where x can be  1, 2, 3, 4, 5 or 8 to select the TIM peripheral.
1318:../Libraries/STM32F4xx_StdPeriph_Driver/src/stm32f4xx_tim.c ****   * @param  TIM_OCPreload: new state of the TIMx peripheral Preload register
1319:../Libraries/STM32F4xx_StdPeriph_Driver/src/stm32f4xx_tim.c ****   *          This parameter can be one of the following values:
1320:../Libraries/STM32F4xx_StdPeriph_Driver/src/stm32f4xx_tim.c ****   *            @arg TIM_OCPreload_Enable
1321:../Libraries/STM32F4xx_StdPeriph_Driver/src/stm32f4xx_tim.c ****   *            @arg TIM_OCPreload_Disable
1322:../Libraries/STM32F4xx_StdPeriph_Driver/src/stm32f4xx_tim.c ****   * @retval None
1323:../Libraries/STM32F4xx_StdPeriph_Driver/src/stm32f4xx_tim.c ****   */
1324:../Libraries/STM32F4xx_StdPeriph_Driver/src/stm32f4xx_tim.c **** void TIM_OC4PreloadConfig(TIM_TypeDef* TIMx, uint16_t TIM_OCPreload)
1325:../Libraries/STM32F4xx_StdPeriph_Driver/src/stm32f4xx_tim.c **** {
 26964              		.loc 1 1325 0
 26965              		.cfi_startproc
 26966              		@ args = 0, pretend = 0, frame = 16
 26967              		@ frame_needed = 1, uses_anonymous_args = 0
 26968              		@ link register save eliminated.
 26969 0cfc 80B4     		push	{r7}
 26970              	.LCFI96:
 26971              		.cfi_def_cfa_offset 4
 26972 0cfe 85B0     		sub	sp, sp, #20
 26973              	.LCFI97:
 26974              		.cfi_def_cfa_offset 24
 26975 0d00 00AF     		add	r7, sp, #0
 26976              		.cfi_offset 7, -4
 26977              	.LCFI98:
 26978              		.cfi_def_cfa_register 7
 26979 0d02 7860     		str	r0, [r7, #4]
 26980 0d04 0B46     		mov	r3, r1
 26981 0d06 7B80     		strh	r3, [r7, #2]	@ movhi
1326:../Libraries/STM32F4xx_StdPeriph_Driver/src/stm32f4xx_tim.c ****   uint16_t tmpccmr2 = 0;
 26982              		.loc 1 1326 0
 26983 0d08 4FF00003 		mov	r3, #0
 26984 0d0c FB81     		strh	r3, [r7, #14]	@ movhi
1327:../Libraries/STM32F4xx_StdPeriph_Driver/src/stm32f4xx_tim.c **** 
1328:../Libraries/STM32F4xx_StdPeriph_Driver/src/stm32f4xx_tim.c ****   /* Check the parameters */
1329:../Libraries/STM32F4xx_StdPeriph_Driver/src/stm32f4xx_tim.c ****   assert_param(IS_TIM_LIST3_PERIPH(TIMx));
1330:../Libraries/STM32F4xx_StdPeriph_Driver/src/stm32f4xx_tim.c ****   assert_param(IS_TIM_OCPRELOAD_STATE(TIM_OCPreload));
1331:../Libraries/STM32F4xx_StdPeriph_Driver/src/stm32f4xx_tim.c **** 
1332:../Libraries/STM32F4xx_StdPeriph_Driver/src/stm32f4xx_tim.c ****   tmpccmr2 = TIMx->CCMR2;
 26985              		.loc 1 1332 0
 26986 0d0e 7B68     		ldr	r3, [r7, #4]
 26987 0d10 9B8B     		ldrh	r3, [r3, #28]	@ movhi
 26988 0d12 FB81     		strh	r3, [r7, #14]	@ movhi
1333:../Libraries/STM32F4xx_StdPeriph_Driver/src/stm32f4xx_tim.c **** 
1334:../Libraries/STM32F4xx_StdPeriph_Driver/src/stm32f4xx_tim.c ****   /* Reset the OC4PE Bit */
1335:../Libraries/STM32F4xx_StdPeriph_Driver/src/stm32f4xx_tim.c ****   tmpccmr2 &= (uint16_t)(~TIM_CCMR2_OC4PE);
 26989              		.loc 1 1335 0
 26990 0d14 FB89     		ldrh	r3, [r7, #14]	@ movhi
 26991 0d16 23F40063 		bic	r3, r3, #2048
 26992 0d1a FB81     		strh	r3, [r7, #14]	@ movhi
1336:../Libraries/STM32F4xx_StdPeriph_Driver/src/stm32f4xx_tim.c **** 
1337:../Libraries/STM32F4xx_StdPeriph_Driver/src/stm32f4xx_tim.c ****   /* Enable or Disable the Output Compare Preload feature */
1338:../Libraries/STM32F4xx_StdPeriph_Driver/src/stm32f4xx_tim.c ****   tmpccmr2 |= (uint16_t)(TIM_OCPreload << 8);
 26993              		.loc 1 1338 0
 26994 0d1c 7B88     		ldrh	r3, [r7, #2]	@ movhi
 26995 0d1e 4FEA0323 		lsl	r3, r3, #8
 26996 0d22 9AB2     		uxth	r2, r3
 26997 0d24 FB89     		ldrh	r3, [r7, #14]	@ movhi
 26998 0d26 42EA0303 		orr	r3, r2, r3
 26999 0d2a FB81     		strh	r3, [r7, #14]	@ movhi
1339:../Libraries/STM32F4xx_StdPeriph_Driver/src/stm32f4xx_tim.c **** 
1340:../Libraries/STM32F4xx_StdPeriph_Driver/src/stm32f4xx_tim.c ****   /* Write to TIMx CCMR2 register */
1341:../Libraries/STM32F4xx_StdPeriph_Driver/src/stm32f4xx_tim.c ****   TIMx->CCMR2 = tmpccmr2;
 27000              		.loc 1 1341 0
 27001 0d2c 7B68     		ldr	r3, [r7, #4]
 27002 0d2e FA89     		ldrh	r2, [r7, #14]	@ movhi
 27003 0d30 9A83     		strh	r2, [r3, #28]	@ movhi
1342:../Libraries/STM32F4xx_StdPeriph_Driver/src/stm32f4xx_tim.c **** }
 27004              		.loc 1 1342 0
 27005 0d32 07F11407 		add	r7, r7, #20
 27006 0d36 BD46     		mov	sp, r7
 27007 0d38 80BC     		pop	{r7}
 27008 0d3a 7047     		bx	lr
 27009              		.cfi_endproc
 27010              	.LFE142:
 27012              		.align	2
 27013              		.global	TIM_OC1FastConfig
 27014              		.thumb
 27015              		.thumb_func
 27017              	TIM_OC1FastConfig:
 27018              	.LFB143:
1343:../Libraries/STM32F4xx_StdPeriph_Driver/src/stm32f4xx_tim.c **** 
1344:../Libraries/STM32F4xx_StdPeriph_Driver/src/stm32f4xx_tim.c **** /**
1345:../Libraries/STM32F4xx_StdPeriph_Driver/src/stm32f4xx_tim.c ****   * @brief  Configures the TIMx Output Compare 1 Fast feature.
1346:../Libraries/STM32F4xx_StdPeriph_Driver/src/stm32f4xx_tim.c ****   * @param  TIMx: where x can be 1 to 14 except 6 and 7, to select the TIM peripheral.
1347:../Libraries/STM32F4xx_StdPeriph_Driver/src/stm32f4xx_tim.c ****   * @param  TIM_OCFast: new state of the Output Compare Fast Enable Bit.
1348:../Libraries/STM32F4xx_StdPeriph_Driver/src/stm32f4xx_tim.c ****   *          This parameter can be one of the following values:
1349:../Libraries/STM32F4xx_StdPeriph_Driver/src/stm32f4xx_tim.c ****   *            @arg TIM_OCFast_Enable: TIM output compare fast enable
1350:../Libraries/STM32F4xx_StdPeriph_Driver/src/stm32f4xx_tim.c ****   *            @arg TIM_OCFast_Disable: TIM output compare fast disable
1351:../Libraries/STM32F4xx_StdPeriph_Driver/src/stm32f4xx_tim.c ****   * @retval None
1352:../Libraries/STM32F4xx_StdPeriph_Driver/src/stm32f4xx_tim.c ****   */
1353:../Libraries/STM32F4xx_StdPeriph_Driver/src/stm32f4xx_tim.c **** void TIM_OC1FastConfig(TIM_TypeDef* TIMx, uint16_t TIM_OCFast)
1354:../Libraries/STM32F4xx_StdPeriph_Driver/src/stm32f4xx_tim.c **** {
 27019              		.loc 1 1354 0
 27020              		.cfi_startproc
 27021              		@ args = 0, pretend = 0, frame = 16
 27022              		@ frame_needed = 1, uses_anonymous_args = 0
 27023              		@ link register save eliminated.
 27024 0d3c 80B4     		push	{r7}
 27025              	.LCFI99:
 27026              		.cfi_def_cfa_offset 4
 27027 0d3e 85B0     		sub	sp, sp, #20
 27028              	.LCFI100:
 27029              		.cfi_def_cfa_offset 24
 27030 0d40 00AF     		add	r7, sp, #0
 27031              		.cfi_offset 7, -4
 27032              	.LCFI101:
 27033              		.cfi_def_cfa_register 7
 27034 0d42 7860     		str	r0, [r7, #4]
 27035 0d44 0B46     		mov	r3, r1
 27036 0d46 7B80     		strh	r3, [r7, #2]	@ movhi
1355:../Libraries/STM32F4xx_StdPeriph_Driver/src/stm32f4xx_tim.c ****   uint16_t tmpccmr1 = 0;
 27037              		.loc 1 1355 0
 27038 0d48 4FF00003 		mov	r3, #0
 27039 0d4c FB81     		strh	r3, [r7, #14]	@ movhi
1356:../Libraries/STM32F4xx_StdPeriph_Driver/src/stm32f4xx_tim.c **** 
1357:../Libraries/STM32F4xx_StdPeriph_Driver/src/stm32f4xx_tim.c ****   /* Check the parameters */
1358:../Libraries/STM32F4xx_StdPeriph_Driver/src/stm32f4xx_tim.c ****   assert_param(IS_TIM_LIST1_PERIPH(TIMx));
1359:../Libraries/STM32F4xx_StdPeriph_Driver/src/stm32f4xx_tim.c ****   assert_param(IS_TIM_OCFAST_STATE(TIM_OCFast));
1360:../Libraries/STM32F4xx_StdPeriph_Driver/src/stm32f4xx_tim.c **** 
1361:../Libraries/STM32F4xx_StdPeriph_Driver/src/stm32f4xx_tim.c ****   /* Get the TIMx CCMR1 register value */
1362:../Libraries/STM32F4xx_StdPeriph_Driver/src/stm32f4xx_tim.c ****   tmpccmr1 = TIMx->CCMR1;
 27040              		.loc 1 1362 0
 27041 0d4e 7B68     		ldr	r3, [r7, #4]
 27042 0d50 1B8B     		ldrh	r3, [r3, #24]	@ movhi
 27043 0d52 FB81     		strh	r3, [r7, #14]	@ movhi
1363:../Libraries/STM32F4xx_StdPeriph_Driver/src/stm32f4xx_tim.c **** 
1364:../Libraries/STM32F4xx_StdPeriph_Driver/src/stm32f4xx_tim.c ****   /* Reset the OC1FE Bit */
1365:../Libraries/STM32F4xx_StdPeriph_Driver/src/stm32f4xx_tim.c ****   tmpccmr1 &= (uint16_t)~TIM_CCMR1_OC1FE;
 27044              		.loc 1 1365 0
 27045 0d54 FB89     		ldrh	r3, [r7, #14]	@ movhi
 27046 0d56 23F00403 		bic	r3, r3, #4
 27047 0d5a FB81     		strh	r3, [r7, #14]	@ movhi
1366:../Libraries/STM32F4xx_StdPeriph_Driver/src/stm32f4xx_tim.c **** 
1367:../Libraries/STM32F4xx_StdPeriph_Driver/src/stm32f4xx_tim.c ****   /* Enable or Disable the Output Compare Fast Bit */
1368:../Libraries/STM32F4xx_StdPeriph_Driver/src/stm32f4xx_tim.c ****   tmpccmr1 |= TIM_OCFast;
 27048              		.loc 1 1368 0
 27049 0d5c FA89     		ldrh	r2, [r7, #14]	@ movhi
 27050 0d5e 7B88     		ldrh	r3, [r7, #2]	@ movhi
 27051 0d60 42EA0303 		orr	r3, r2, r3
 27052 0d64 FB81     		strh	r3, [r7, #14]	@ movhi
1369:../Libraries/STM32F4xx_StdPeriph_Driver/src/stm32f4xx_tim.c **** 
1370:../Libraries/STM32F4xx_StdPeriph_Driver/src/stm32f4xx_tim.c ****   /* Write to TIMx CCMR1 */
1371:../Libraries/STM32F4xx_StdPeriph_Driver/src/stm32f4xx_tim.c ****   TIMx->CCMR1 = tmpccmr1;
 27053              		.loc 1 1371 0
 27054 0d66 7B68     		ldr	r3, [r7, #4]
 27055 0d68 FA89     		ldrh	r2, [r7, #14]	@ movhi
 27056 0d6a 1A83     		strh	r2, [r3, #24]	@ movhi
1372:../Libraries/STM32F4xx_StdPeriph_Driver/src/stm32f4xx_tim.c **** }
 27057              		.loc 1 1372 0
 27058 0d6c 07F11407 		add	r7, r7, #20
 27059 0d70 BD46     		mov	sp, r7
 27060 0d72 80BC     		pop	{r7}
 27061 0d74 7047     		bx	lr
 27062              		.cfi_endproc
 27063              	.LFE143:
 27065 0d76 00BF     		.align	2
 27066              		.global	TIM_OC2FastConfig
 27067              		.thumb
 27068              		.thumb_func
 27070              	TIM_OC2FastConfig:
 27071              	.LFB144:
1373:../Libraries/STM32F4xx_StdPeriph_Driver/src/stm32f4xx_tim.c **** 
1374:../Libraries/STM32F4xx_StdPeriph_Driver/src/stm32f4xx_tim.c **** /**
1375:../Libraries/STM32F4xx_StdPeriph_Driver/src/stm32f4xx_tim.c ****   * @brief  Configures the TIMx Output Compare 2 Fast feature.
1376:../Libraries/STM32F4xx_StdPeriph_Driver/src/stm32f4xx_tim.c ****   * @param  TIMx: where x can be  1, 2, 3, 4, 5, 8, 9 or 12 to select the TIM 
1377:../Libraries/STM32F4xx_StdPeriph_Driver/src/stm32f4xx_tim.c ****   *         peripheral.
1378:../Libraries/STM32F4xx_StdPeriph_Driver/src/stm32f4xx_tim.c ****   * @param  TIM_OCFast: new state of the Output Compare Fast Enable Bit.
1379:../Libraries/STM32F4xx_StdPeriph_Driver/src/stm32f4xx_tim.c ****   *          This parameter can be one of the following values:
1380:../Libraries/STM32F4xx_StdPeriph_Driver/src/stm32f4xx_tim.c ****   *            @arg TIM_OCFast_Enable: TIM output compare fast enable
1381:../Libraries/STM32F4xx_StdPeriph_Driver/src/stm32f4xx_tim.c ****   *            @arg TIM_OCFast_Disable: TIM output compare fast disable
1382:../Libraries/STM32F4xx_StdPeriph_Driver/src/stm32f4xx_tim.c ****   * @retval None
1383:../Libraries/STM32F4xx_StdPeriph_Driver/src/stm32f4xx_tim.c ****   */
1384:../Libraries/STM32F4xx_StdPeriph_Driver/src/stm32f4xx_tim.c **** void TIM_OC2FastConfig(TIM_TypeDef* TIMx, uint16_t TIM_OCFast)
1385:../Libraries/STM32F4xx_StdPeriph_Driver/src/stm32f4xx_tim.c **** {
 27072              		.loc 1 1385 0
 27073              		.cfi_startproc
 27074              		@ args = 0, pretend = 0, frame = 16
 27075              		@ frame_needed = 1, uses_anonymous_args = 0
 27076              		@ link register save eliminated.
 27077 0d78 80B4     		push	{r7}
 27078              	.LCFI102:
 27079              		.cfi_def_cfa_offset 4
 27080 0d7a 85B0     		sub	sp, sp, #20
 27081              	.LCFI103:
 27082              		.cfi_def_cfa_offset 24
 27083 0d7c 00AF     		add	r7, sp, #0
 27084              		.cfi_offset 7, -4
 27085              	.LCFI104:
 27086              		.cfi_def_cfa_register 7
 27087 0d7e 7860     		str	r0, [r7, #4]
 27088 0d80 0B46     		mov	r3, r1
 27089 0d82 7B80     		strh	r3, [r7, #2]	@ movhi
1386:../Libraries/STM32F4xx_StdPeriph_Driver/src/stm32f4xx_tim.c ****   uint16_t tmpccmr1 = 0;
 27090              		.loc 1 1386 0
 27091 0d84 4FF00003 		mov	r3, #0
 27092 0d88 FB81     		strh	r3, [r7, #14]	@ movhi
1387:../Libraries/STM32F4xx_StdPeriph_Driver/src/stm32f4xx_tim.c **** 
1388:../Libraries/STM32F4xx_StdPeriph_Driver/src/stm32f4xx_tim.c ****   /* Check the parameters */
1389:../Libraries/STM32F4xx_StdPeriph_Driver/src/stm32f4xx_tim.c ****   assert_param(IS_TIM_LIST2_PERIPH(TIMx));
1390:../Libraries/STM32F4xx_StdPeriph_Driver/src/stm32f4xx_tim.c ****   assert_param(IS_TIM_OCFAST_STATE(TIM_OCFast));
1391:../Libraries/STM32F4xx_StdPeriph_Driver/src/stm32f4xx_tim.c **** 
1392:../Libraries/STM32F4xx_StdPeriph_Driver/src/stm32f4xx_tim.c ****   /* Get the TIMx CCMR1 register value */
1393:../Libraries/STM32F4xx_StdPeriph_Driver/src/stm32f4xx_tim.c ****   tmpccmr1 = TIMx->CCMR1;
 27093              		.loc 1 1393 0
 27094 0d8a 7B68     		ldr	r3, [r7, #4]
 27095 0d8c 1B8B     		ldrh	r3, [r3, #24]	@ movhi
 27096 0d8e FB81     		strh	r3, [r7, #14]	@ movhi
1394:../Libraries/STM32F4xx_StdPeriph_Driver/src/stm32f4xx_tim.c **** 
1395:../Libraries/STM32F4xx_StdPeriph_Driver/src/stm32f4xx_tim.c ****   /* Reset the OC2FE Bit */
1396:../Libraries/STM32F4xx_StdPeriph_Driver/src/stm32f4xx_tim.c ****   tmpccmr1 &= (uint16_t)(~TIM_CCMR1_OC2FE);
 27097              		.loc 1 1396 0
 27098 0d90 FB89     		ldrh	r3, [r7, #14]	@ movhi
 27099 0d92 23F48063 		bic	r3, r3, #1024
 27100 0d96 FB81     		strh	r3, [r7, #14]	@ movhi
1397:../Libraries/STM32F4xx_StdPeriph_Driver/src/stm32f4xx_tim.c **** 
1398:../Libraries/STM32F4xx_StdPeriph_Driver/src/stm32f4xx_tim.c ****   /* Enable or Disable the Output Compare Fast Bit */
1399:../Libraries/STM32F4xx_StdPeriph_Driver/src/stm32f4xx_tim.c ****   tmpccmr1 |= (uint16_t)(TIM_OCFast << 8);
 27101              		.loc 1 1399 0
 27102 0d98 7B88     		ldrh	r3, [r7, #2]	@ movhi
 27103 0d9a 4FEA0323 		lsl	r3, r3, #8
 27104 0d9e 9AB2     		uxth	r2, r3
 27105 0da0 FB89     		ldrh	r3, [r7, #14]	@ movhi
 27106 0da2 42EA0303 		orr	r3, r2, r3
 27107 0da6 FB81     		strh	r3, [r7, #14]	@ movhi
1400:../Libraries/STM32F4xx_StdPeriph_Driver/src/stm32f4xx_tim.c **** 
1401:../Libraries/STM32F4xx_StdPeriph_Driver/src/stm32f4xx_tim.c ****   /* Write to TIMx CCMR1 */
1402:../Libraries/STM32F4xx_StdPeriph_Driver/src/stm32f4xx_tim.c ****   TIMx->CCMR1 = tmpccmr1;
 27108              		.loc 1 1402 0
 27109 0da8 7B68     		ldr	r3, [r7, #4]
 27110 0daa FA89     		ldrh	r2, [r7, #14]	@ movhi
 27111 0dac 1A83     		strh	r2, [r3, #24]	@ movhi
1403:../Libraries/STM32F4xx_StdPeriph_Driver/src/stm32f4xx_tim.c **** }
 27112              		.loc 1 1403 0
 27113 0dae 07F11407 		add	r7, r7, #20
 27114 0db2 BD46     		mov	sp, r7
 27115 0db4 80BC     		pop	{r7}
 27116 0db6 7047     		bx	lr
 27117              		.cfi_endproc
 27118              	.LFE144:
 27120              		.align	2
 27121              		.global	TIM_OC3FastConfig
 27122              		.thumb
 27123              		.thumb_func
 27125              	TIM_OC3FastConfig:
 27126              	.LFB145:
1404:../Libraries/STM32F4xx_StdPeriph_Driver/src/stm32f4xx_tim.c **** 
1405:../Libraries/STM32F4xx_StdPeriph_Driver/src/stm32f4xx_tim.c **** /**
1406:../Libraries/STM32F4xx_StdPeriph_Driver/src/stm32f4xx_tim.c ****   * @brief  Configures the TIMx Output Compare 3 Fast feature.
1407:../Libraries/STM32F4xx_StdPeriph_Driver/src/stm32f4xx_tim.c ****   * @param  TIMx: where x can be  1, 2, 3, 4, 5 or 8 to select the TIM peripheral.
1408:../Libraries/STM32F4xx_StdPeriph_Driver/src/stm32f4xx_tim.c ****   * @param  TIM_OCFast: new state of the Output Compare Fast Enable Bit.
1409:../Libraries/STM32F4xx_StdPeriph_Driver/src/stm32f4xx_tim.c ****   *          This parameter can be one of the following values:
1410:../Libraries/STM32F4xx_StdPeriph_Driver/src/stm32f4xx_tim.c ****   *            @arg TIM_OCFast_Enable: TIM output compare fast enable
1411:../Libraries/STM32F4xx_StdPeriph_Driver/src/stm32f4xx_tim.c ****   *            @arg TIM_OCFast_Disable: TIM output compare fast disable
1412:../Libraries/STM32F4xx_StdPeriph_Driver/src/stm32f4xx_tim.c ****   * @retval None
1413:../Libraries/STM32F4xx_StdPeriph_Driver/src/stm32f4xx_tim.c ****   */
1414:../Libraries/STM32F4xx_StdPeriph_Driver/src/stm32f4xx_tim.c **** void TIM_OC3FastConfig(TIM_TypeDef* TIMx, uint16_t TIM_OCFast)
1415:../Libraries/STM32F4xx_StdPeriph_Driver/src/stm32f4xx_tim.c **** {
 27127              		.loc 1 1415 0
 27128              		.cfi_startproc
 27129              		@ args = 0, pretend = 0, frame = 16
 27130              		@ frame_needed = 1, uses_anonymous_args = 0
 27131              		@ link register save eliminated.
 27132 0db8 80B4     		push	{r7}
 27133              	.LCFI105:
 27134              		.cfi_def_cfa_offset 4
 27135 0dba 85B0     		sub	sp, sp, #20
 27136              	.LCFI106:
 27137              		.cfi_def_cfa_offset 24
 27138 0dbc 00AF     		add	r7, sp, #0
 27139              		.cfi_offset 7, -4
 27140              	.LCFI107:
 27141              		.cfi_def_cfa_register 7
 27142 0dbe 7860     		str	r0, [r7, #4]
 27143 0dc0 0B46     		mov	r3, r1
 27144 0dc2 7B80     		strh	r3, [r7, #2]	@ movhi
1416:../Libraries/STM32F4xx_StdPeriph_Driver/src/stm32f4xx_tim.c ****   uint16_t tmpccmr2 = 0;
 27145              		.loc 1 1416 0
 27146 0dc4 4FF00003 		mov	r3, #0
 27147 0dc8 FB81     		strh	r3, [r7, #14]	@ movhi
1417:../Libraries/STM32F4xx_StdPeriph_Driver/src/stm32f4xx_tim.c ****   
1418:../Libraries/STM32F4xx_StdPeriph_Driver/src/stm32f4xx_tim.c ****   /* Check the parameters */
1419:../Libraries/STM32F4xx_StdPeriph_Driver/src/stm32f4xx_tim.c ****   assert_param(IS_TIM_LIST3_PERIPH(TIMx));
1420:../Libraries/STM32F4xx_StdPeriph_Driver/src/stm32f4xx_tim.c ****   assert_param(IS_TIM_OCFAST_STATE(TIM_OCFast));
1421:../Libraries/STM32F4xx_StdPeriph_Driver/src/stm32f4xx_tim.c **** 
1422:../Libraries/STM32F4xx_StdPeriph_Driver/src/stm32f4xx_tim.c ****   /* Get the TIMx CCMR2 register value */
1423:../Libraries/STM32F4xx_StdPeriph_Driver/src/stm32f4xx_tim.c ****   tmpccmr2 = TIMx->CCMR2;
 27148              		.loc 1 1423 0
 27149 0dca 7B68     		ldr	r3, [r7, #4]
 27150 0dcc 9B8B     		ldrh	r3, [r3, #28]	@ movhi
 27151 0dce FB81     		strh	r3, [r7, #14]	@ movhi
1424:../Libraries/STM32F4xx_StdPeriph_Driver/src/stm32f4xx_tim.c **** 
1425:../Libraries/STM32F4xx_StdPeriph_Driver/src/stm32f4xx_tim.c ****   /* Reset the OC3FE Bit */
1426:../Libraries/STM32F4xx_StdPeriph_Driver/src/stm32f4xx_tim.c ****   tmpccmr2 &= (uint16_t)~TIM_CCMR2_OC3FE;
 27152              		.loc 1 1426 0
 27153 0dd0 FB89     		ldrh	r3, [r7, #14]	@ movhi
 27154 0dd2 23F00403 		bic	r3, r3, #4
 27155 0dd6 FB81     		strh	r3, [r7, #14]	@ movhi
1427:../Libraries/STM32F4xx_StdPeriph_Driver/src/stm32f4xx_tim.c **** 
1428:../Libraries/STM32F4xx_StdPeriph_Driver/src/stm32f4xx_tim.c ****   /* Enable or Disable the Output Compare Fast Bit */
1429:../Libraries/STM32F4xx_StdPeriph_Driver/src/stm32f4xx_tim.c ****   tmpccmr2 |= TIM_OCFast;
 27156              		.loc 1 1429 0
 27157 0dd8 FA89     		ldrh	r2, [r7, #14]	@ movhi
